
IMT_Smart_Home.elf:     file format elf32-avr

Sections:
Idx Name          Size      VMA       LMA       File off  Algn
  0 .text         00004684  00000000  00000000  00000094  2**1
                  CONTENTS, ALLOC, LOAD, READONLY, CODE
  1 .data         000000b6  00800060  00004684  00004718  2**0
                  CONTENTS, ALLOC, LOAD, DATA
  2 .bss          00000008  00800116  00800116  000047ce  2**0
                  ALLOC
  3 .stab         00005e8c  00000000  00000000  000047d0  2**2
                  CONTENTS, READONLY, DEBUGGING
  4 .stabstr      000029ff  00000000  00000000  0000a65c  2**0
                  CONTENTS, READONLY, DEBUGGING
  5 .debug_aranges 00000140  00000000  00000000  0000d05b  2**0
                  CONTENTS, READONLY, DEBUGGING
  6 .debug_pubnames 00000170  00000000  00000000  0000d19b  2**0
                  CONTENTS, READONLY, DEBUGGING
  7 .debug_info   00001c49  00000000  00000000  0000d30b  2**0
                  CONTENTS, READONLY, DEBUGGING
  8 .debug_abbrev 00000eeb  00000000  00000000  0000ef54  2**0
                  CONTENTS, READONLY, DEBUGGING
  9 .debug_line   00000dad  00000000  00000000  0000fe3f  2**0
                  CONTENTS, READONLY, DEBUGGING
 10 .debug_frame  00000160  00000000  00000000  00010bec  2**2
                  CONTENTS, READONLY, DEBUGGING
 11 .debug_str    0000028d  00000000  00000000  00010d4c  2**0
                  CONTENTS, READONLY, DEBUGGING
 12 .debug_loc    000007ce  00000000  00000000  00010fd9  2**0
                  CONTENTS, READONLY, DEBUGGING
 13 .debug_ranges 00000050  00000000  00000000  000117a7  2**0
                  CONTENTS, READONLY, DEBUGGING

Disassembly of section .text:

00000000 <__vectors>:
       0:	0c 94 2a 00 	jmp	0x54	; 0x54 <__ctors_end>
       4:	0c 94 49 1d 	jmp	0x3a92	; 0x3a92 <__vector_1>
       8:	0c 94 47 00 	jmp	0x8e	; 0x8e <__bad_interrupt>
       c:	0c 94 47 00 	jmp	0x8e	; 0x8e <__bad_interrupt>
      10:	0c 94 47 00 	jmp	0x8e	; 0x8e <__bad_interrupt>
      14:	0c 94 47 00 	jmp	0x8e	; 0x8e <__bad_interrupt>
      18:	0c 94 5a 06 	jmp	0xcb4	; 0xcb4 <__vector_6>
      1c:	0c 94 47 00 	jmp	0x8e	; 0x8e <__bad_interrupt>
      20:	0c 94 47 00 	jmp	0x8e	; 0x8e <__bad_interrupt>
      24:	0c 94 47 00 	jmp	0x8e	; 0x8e <__bad_interrupt>
      28:	0c 94 47 00 	jmp	0x8e	; 0x8e <__bad_interrupt>
      2c:	0c 94 47 00 	jmp	0x8e	; 0x8e <__bad_interrupt>
      30:	0c 94 47 00 	jmp	0x8e	; 0x8e <__bad_interrupt>
      34:	0c 94 47 00 	jmp	0x8e	; 0x8e <__bad_interrupt>
      38:	0c 94 47 00 	jmp	0x8e	; 0x8e <__bad_interrupt>
      3c:	0c 94 47 00 	jmp	0x8e	; 0x8e <__bad_interrupt>
      40:	0c 94 47 00 	jmp	0x8e	; 0x8e <__bad_interrupt>
      44:	0c 94 47 00 	jmp	0x8e	; 0x8e <__bad_interrupt>
      48:	0c 94 47 00 	jmp	0x8e	; 0x8e <__bad_interrupt>
      4c:	0c 94 47 00 	jmp	0x8e	; 0x8e <__bad_interrupt>
      50:	0c 94 47 00 	jmp	0x8e	; 0x8e <__bad_interrupt>

00000054 <__ctors_end>:
      54:	11 24       	eor	r1, r1
      56:	1f be       	out	0x3f, r1	; 63
      58:	cf e5       	ldi	r28, 0x5F	; 95
      5a:	d8 e0       	ldi	r29, 0x08	; 8
      5c:	de bf       	out	0x3e, r29	; 62
      5e:	cd bf       	out	0x3d, r28	; 61

00000060 <__do_copy_data>:
      60:	11 e0       	ldi	r17, 0x01	; 1
      62:	a0 e6       	ldi	r26, 0x60	; 96
      64:	b0 e0       	ldi	r27, 0x00	; 0
      66:	e4 e8       	ldi	r30, 0x84	; 132
      68:	f6 e4       	ldi	r31, 0x46	; 70
      6a:	02 c0       	rjmp	.+4      	; 0x70 <.do_copy_data_start>

0000006c <.do_copy_data_loop>:
      6c:	05 90       	lpm	r0, Z+
      6e:	0d 92       	st	X+, r0

00000070 <.do_copy_data_start>:
      70:	a6 31       	cpi	r26, 0x16	; 22
      72:	b1 07       	cpc	r27, r17
      74:	d9 f7       	brne	.-10     	; 0x6c <.do_copy_data_loop>

00000076 <__do_clear_bss>:
      76:	11 e0       	ldi	r17, 0x01	; 1
      78:	a6 e1       	ldi	r26, 0x16	; 22
      7a:	b1 e0       	ldi	r27, 0x01	; 1
      7c:	01 c0       	rjmp	.+2      	; 0x80 <.do_clear_bss_start>

0000007e <.do_clear_bss_loop>:
      7e:	1d 92       	st	X+, r1

00000080 <.do_clear_bss_start>:
      80:	ae 31       	cpi	r26, 0x1E	; 30
      82:	b1 07       	cpc	r27, r17
      84:	e1 f7       	brne	.-8      	; 0x7e <.do_clear_bss_loop>
      86:	0e 94 a3 05 	call	0xb46	; 0xb46 <main>
      8a:	0c 94 40 23 	jmp	0x4680	; 0x4680 <_exit>

0000008e <__bad_interrupt>:
      8e:	0c 94 00 00 	jmp	0	; 0x0 <__vectors>

00000092 <__fixunssfsi>:
      92:	ef 92       	push	r14
      94:	ff 92       	push	r15
      96:	0f 93       	push	r16
      98:	1f 93       	push	r17
      9a:	7b 01       	movw	r14, r22
      9c:	8c 01       	movw	r16, r24
      9e:	20 e0       	ldi	r18, 0x00	; 0
      a0:	30 e0       	ldi	r19, 0x00	; 0
      a2:	40 e0       	ldi	r20, 0x00	; 0
      a4:	5f e4       	ldi	r21, 0x4F	; 79
      a6:	0e 94 49 03 	call	0x692	; 0x692 <__gesf2>
      aa:	88 23       	and	r24, r24
      ac:	8c f0       	brlt	.+34     	; 0xd0 <__fixunssfsi+0x3e>
      ae:	c8 01       	movw	r24, r16
      b0:	b7 01       	movw	r22, r14
      b2:	20 e0       	ldi	r18, 0x00	; 0
      b4:	30 e0       	ldi	r19, 0x00	; 0
      b6:	40 e0       	ldi	r20, 0x00	; 0
      b8:	5f e4       	ldi	r21, 0x4F	; 79
      ba:	0e 94 c1 01 	call	0x382	; 0x382 <__subsf3>
      be:	0e 94 a9 03 	call	0x752	; 0x752 <__fixsfsi>
      c2:	9b 01       	movw	r18, r22
      c4:	ac 01       	movw	r20, r24
      c6:	20 50       	subi	r18, 0x00	; 0
      c8:	30 40       	sbci	r19, 0x00	; 0
      ca:	40 40       	sbci	r20, 0x00	; 0
      cc:	50 48       	sbci	r21, 0x80	; 128
      ce:	06 c0       	rjmp	.+12     	; 0xdc <__fixunssfsi+0x4a>
      d0:	c8 01       	movw	r24, r16
      d2:	b7 01       	movw	r22, r14
      d4:	0e 94 a9 03 	call	0x752	; 0x752 <__fixsfsi>
      d8:	9b 01       	movw	r18, r22
      da:	ac 01       	movw	r20, r24
      dc:	b9 01       	movw	r22, r18
      de:	ca 01       	movw	r24, r20
      e0:	1f 91       	pop	r17
      e2:	0f 91       	pop	r16
      e4:	ff 90       	pop	r15
      e6:	ef 90       	pop	r14
      e8:	08 95       	ret

000000ea <_fpadd_parts>:
      ea:	a0 e0       	ldi	r26, 0x00	; 0
      ec:	b0 e0       	ldi	r27, 0x00	; 0
      ee:	eb e7       	ldi	r30, 0x7B	; 123
      f0:	f0 e0       	ldi	r31, 0x00	; 0
      f2:	0c 94 09 23 	jmp	0x4612	; 0x4612 <__prologue_saves__>
      f6:	dc 01       	movw	r26, r24
      f8:	2b 01       	movw	r4, r22
      fa:	fa 01       	movw	r30, r20
      fc:	9c 91       	ld	r25, X
      fe:	92 30       	cpi	r25, 0x02	; 2
     100:	08 f4       	brcc	.+2      	; 0x104 <_fpadd_parts+0x1a>
     102:	39 c1       	rjmp	.+626    	; 0x376 <_fpadd_parts+0x28c>
     104:	eb 01       	movw	r28, r22
     106:	88 81       	ld	r24, Y
     108:	82 30       	cpi	r24, 0x02	; 2
     10a:	08 f4       	brcc	.+2      	; 0x10e <_fpadd_parts+0x24>
     10c:	33 c1       	rjmp	.+614    	; 0x374 <_fpadd_parts+0x28a>
     10e:	94 30       	cpi	r25, 0x04	; 4
     110:	69 f4       	brne	.+26     	; 0x12c <_fpadd_parts+0x42>
     112:	84 30       	cpi	r24, 0x04	; 4
     114:	09 f0       	breq	.+2      	; 0x118 <_fpadd_parts+0x2e>
     116:	2f c1       	rjmp	.+606    	; 0x376 <_fpadd_parts+0x28c>
     118:	11 96       	adiw	r26, 0x01	; 1
     11a:	9c 91       	ld	r25, X
     11c:	11 97       	sbiw	r26, 0x01	; 1
     11e:	89 81       	ldd	r24, Y+1	; 0x01
     120:	98 17       	cp	r25, r24
     122:	09 f4       	brne	.+2      	; 0x126 <_fpadd_parts+0x3c>
     124:	28 c1       	rjmp	.+592    	; 0x376 <_fpadd_parts+0x28c>
     126:	a3 e0       	ldi	r26, 0x03	; 3
     128:	b1 e0       	ldi	r27, 0x01	; 1
     12a:	25 c1       	rjmp	.+586    	; 0x376 <_fpadd_parts+0x28c>
     12c:	84 30       	cpi	r24, 0x04	; 4
     12e:	09 f4       	brne	.+2      	; 0x132 <_fpadd_parts+0x48>
     130:	21 c1       	rjmp	.+578    	; 0x374 <_fpadd_parts+0x28a>
     132:	82 30       	cpi	r24, 0x02	; 2
     134:	a9 f4       	brne	.+42     	; 0x160 <_fpadd_parts+0x76>
     136:	92 30       	cpi	r25, 0x02	; 2
     138:	09 f0       	breq	.+2      	; 0x13c <_fpadd_parts+0x52>
     13a:	1d c1       	rjmp	.+570    	; 0x376 <_fpadd_parts+0x28c>
     13c:	9a 01       	movw	r18, r20
     13e:	ad 01       	movw	r20, r26
     140:	88 e0       	ldi	r24, 0x08	; 8
     142:	ea 01       	movw	r28, r20
     144:	09 90       	ld	r0, Y+
     146:	ae 01       	movw	r20, r28
     148:	e9 01       	movw	r28, r18
     14a:	09 92       	st	Y+, r0
     14c:	9e 01       	movw	r18, r28
     14e:	81 50       	subi	r24, 0x01	; 1
     150:	c1 f7       	brne	.-16     	; 0x142 <_fpadd_parts+0x58>
     152:	e2 01       	movw	r28, r4
     154:	89 81       	ldd	r24, Y+1	; 0x01
     156:	11 96       	adiw	r26, 0x01	; 1
     158:	9c 91       	ld	r25, X
     15a:	89 23       	and	r24, r25
     15c:	81 83       	std	Z+1, r24	; 0x01
     15e:	08 c1       	rjmp	.+528    	; 0x370 <_fpadd_parts+0x286>
     160:	92 30       	cpi	r25, 0x02	; 2
     162:	09 f4       	brne	.+2      	; 0x166 <_fpadd_parts+0x7c>
     164:	07 c1       	rjmp	.+526    	; 0x374 <_fpadd_parts+0x28a>
     166:	12 96       	adiw	r26, 0x02	; 2
     168:	2d 90       	ld	r2, X+
     16a:	3c 90       	ld	r3, X
     16c:	13 97       	sbiw	r26, 0x03	; 3
     16e:	eb 01       	movw	r28, r22
     170:	8a 81       	ldd	r24, Y+2	; 0x02
     172:	9b 81       	ldd	r25, Y+3	; 0x03
     174:	14 96       	adiw	r26, 0x04	; 4
     176:	ad 90       	ld	r10, X+
     178:	bd 90       	ld	r11, X+
     17a:	cd 90       	ld	r12, X+
     17c:	dc 90       	ld	r13, X
     17e:	17 97       	sbiw	r26, 0x07	; 7
     180:	ec 80       	ldd	r14, Y+4	; 0x04
     182:	fd 80       	ldd	r15, Y+5	; 0x05
     184:	0e 81       	ldd	r16, Y+6	; 0x06
     186:	1f 81       	ldd	r17, Y+7	; 0x07
     188:	91 01       	movw	r18, r2
     18a:	28 1b       	sub	r18, r24
     18c:	39 0b       	sbc	r19, r25
     18e:	b9 01       	movw	r22, r18
     190:	37 ff       	sbrs	r19, 7
     192:	04 c0       	rjmp	.+8      	; 0x19c <_fpadd_parts+0xb2>
     194:	66 27       	eor	r22, r22
     196:	77 27       	eor	r23, r23
     198:	62 1b       	sub	r22, r18
     19a:	73 0b       	sbc	r23, r19
     19c:	60 32       	cpi	r22, 0x20	; 32
     19e:	71 05       	cpc	r23, r1
     1a0:	0c f0       	brlt	.+2      	; 0x1a4 <_fpadd_parts+0xba>
     1a2:	61 c0       	rjmp	.+194    	; 0x266 <_fpadd_parts+0x17c>
     1a4:	12 16       	cp	r1, r18
     1a6:	13 06       	cpc	r1, r19
     1a8:	6c f5       	brge	.+90     	; 0x204 <_fpadd_parts+0x11a>
     1aa:	37 01       	movw	r6, r14
     1ac:	48 01       	movw	r8, r16
     1ae:	06 2e       	mov	r0, r22
     1b0:	04 c0       	rjmp	.+8      	; 0x1ba <_fpadd_parts+0xd0>
     1b2:	96 94       	lsr	r9
     1b4:	87 94       	ror	r8
     1b6:	77 94       	ror	r7
     1b8:	67 94       	ror	r6
     1ba:	0a 94       	dec	r0
     1bc:	d2 f7       	brpl	.-12     	; 0x1b2 <_fpadd_parts+0xc8>
     1be:	21 e0       	ldi	r18, 0x01	; 1
     1c0:	30 e0       	ldi	r19, 0x00	; 0
     1c2:	40 e0       	ldi	r20, 0x00	; 0
     1c4:	50 e0       	ldi	r21, 0x00	; 0
     1c6:	04 c0       	rjmp	.+8      	; 0x1d0 <_fpadd_parts+0xe6>
     1c8:	22 0f       	add	r18, r18
     1ca:	33 1f       	adc	r19, r19
     1cc:	44 1f       	adc	r20, r20
     1ce:	55 1f       	adc	r21, r21
     1d0:	6a 95       	dec	r22
     1d2:	d2 f7       	brpl	.-12     	; 0x1c8 <_fpadd_parts+0xde>
     1d4:	21 50       	subi	r18, 0x01	; 1
     1d6:	30 40       	sbci	r19, 0x00	; 0
     1d8:	40 40       	sbci	r20, 0x00	; 0
     1da:	50 40       	sbci	r21, 0x00	; 0
     1dc:	2e 21       	and	r18, r14
     1de:	3f 21       	and	r19, r15
     1e0:	40 23       	and	r20, r16
     1e2:	51 23       	and	r21, r17
     1e4:	21 15       	cp	r18, r1
     1e6:	31 05       	cpc	r19, r1
     1e8:	41 05       	cpc	r20, r1
     1ea:	51 05       	cpc	r21, r1
     1ec:	21 f0       	breq	.+8      	; 0x1f6 <_fpadd_parts+0x10c>
     1ee:	21 e0       	ldi	r18, 0x01	; 1
     1f0:	30 e0       	ldi	r19, 0x00	; 0
     1f2:	40 e0       	ldi	r20, 0x00	; 0
     1f4:	50 e0       	ldi	r21, 0x00	; 0
     1f6:	79 01       	movw	r14, r18
     1f8:	8a 01       	movw	r16, r20
     1fa:	e6 28       	or	r14, r6
     1fc:	f7 28       	or	r15, r7
     1fe:	08 29       	or	r16, r8
     200:	19 29       	or	r17, r9
     202:	3c c0       	rjmp	.+120    	; 0x27c <_fpadd_parts+0x192>
     204:	23 2b       	or	r18, r19
     206:	d1 f1       	breq	.+116    	; 0x27c <_fpadd_parts+0x192>
     208:	26 0e       	add	r2, r22
     20a:	37 1e       	adc	r3, r23
     20c:	35 01       	movw	r6, r10
     20e:	46 01       	movw	r8, r12
     210:	06 2e       	mov	r0, r22
     212:	04 c0       	rjmp	.+8      	; 0x21c <_fpadd_parts+0x132>
     214:	96 94       	lsr	r9
     216:	87 94       	ror	r8
     218:	77 94       	ror	r7
     21a:	67 94       	ror	r6
     21c:	0a 94       	dec	r0
     21e:	d2 f7       	brpl	.-12     	; 0x214 <_fpadd_parts+0x12a>
     220:	21 e0       	ldi	r18, 0x01	; 1
     222:	30 e0       	ldi	r19, 0x00	; 0
     224:	40 e0       	ldi	r20, 0x00	; 0
     226:	50 e0       	ldi	r21, 0x00	; 0
     228:	04 c0       	rjmp	.+8      	; 0x232 <_fpadd_parts+0x148>
     22a:	22 0f       	add	r18, r18
     22c:	33 1f       	adc	r19, r19
     22e:	44 1f       	adc	r20, r20
     230:	55 1f       	adc	r21, r21
     232:	6a 95       	dec	r22
     234:	d2 f7       	brpl	.-12     	; 0x22a <_fpadd_parts+0x140>
     236:	21 50       	subi	r18, 0x01	; 1
     238:	30 40       	sbci	r19, 0x00	; 0
     23a:	40 40       	sbci	r20, 0x00	; 0
     23c:	50 40       	sbci	r21, 0x00	; 0
     23e:	2a 21       	and	r18, r10
     240:	3b 21       	and	r19, r11
     242:	4c 21       	and	r20, r12
     244:	5d 21       	and	r21, r13
     246:	21 15       	cp	r18, r1
     248:	31 05       	cpc	r19, r1
     24a:	41 05       	cpc	r20, r1
     24c:	51 05       	cpc	r21, r1
     24e:	21 f0       	breq	.+8      	; 0x258 <_fpadd_parts+0x16e>
     250:	21 e0       	ldi	r18, 0x01	; 1
     252:	30 e0       	ldi	r19, 0x00	; 0
     254:	40 e0       	ldi	r20, 0x00	; 0
     256:	50 e0       	ldi	r21, 0x00	; 0
     258:	59 01       	movw	r10, r18
     25a:	6a 01       	movw	r12, r20
     25c:	a6 28       	or	r10, r6
     25e:	b7 28       	or	r11, r7
     260:	c8 28       	or	r12, r8
     262:	d9 28       	or	r13, r9
     264:	0b c0       	rjmp	.+22     	; 0x27c <_fpadd_parts+0x192>
     266:	82 15       	cp	r24, r2
     268:	93 05       	cpc	r25, r3
     26a:	2c f0       	brlt	.+10     	; 0x276 <_fpadd_parts+0x18c>
     26c:	1c 01       	movw	r2, r24
     26e:	aa 24       	eor	r10, r10
     270:	bb 24       	eor	r11, r11
     272:	65 01       	movw	r12, r10
     274:	03 c0       	rjmp	.+6      	; 0x27c <_fpadd_parts+0x192>
     276:	ee 24       	eor	r14, r14
     278:	ff 24       	eor	r15, r15
     27a:	87 01       	movw	r16, r14
     27c:	11 96       	adiw	r26, 0x01	; 1
     27e:	9c 91       	ld	r25, X
     280:	d2 01       	movw	r26, r4
     282:	11 96       	adiw	r26, 0x01	; 1
     284:	8c 91       	ld	r24, X
     286:	98 17       	cp	r25, r24
     288:	09 f4       	brne	.+2      	; 0x28c <_fpadd_parts+0x1a2>
     28a:	45 c0       	rjmp	.+138    	; 0x316 <_fpadd_parts+0x22c>
     28c:	99 23       	and	r25, r25
     28e:	39 f0       	breq	.+14     	; 0x29e <_fpadd_parts+0x1b4>
     290:	a8 01       	movw	r20, r16
     292:	97 01       	movw	r18, r14
     294:	2a 19       	sub	r18, r10
     296:	3b 09       	sbc	r19, r11
     298:	4c 09       	sbc	r20, r12
     29a:	5d 09       	sbc	r21, r13
     29c:	06 c0       	rjmp	.+12     	; 0x2aa <_fpadd_parts+0x1c0>
     29e:	a6 01       	movw	r20, r12
     2a0:	95 01       	movw	r18, r10
     2a2:	2e 19       	sub	r18, r14
     2a4:	3f 09       	sbc	r19, r15
     2a6:	40 0b       	sbc	r20, r16
     2a8:	51 0b       	sbc	r21, r17
     2aa:	57 fd       	sbrc	r21, 7
     2ac:	08 c0       	rjmp	.+16     	; 0x2be <_fpadd_parts+0x1d4>
     2ae:	11 82       	std	Z+1, r1	; 0x01
     2b0:	33 82       	std	Z+3, r3	; 0x03
     2b2:	22 82       	std	Z+2, r2	; 0x02
     2b4:	24 83       	std	Z+4, r18	; 0x04
     2b6:	35 83       	std	Z+5, r19	; 0x05
     2b8:	46 83       	std	Z+6, r20	; 0x06
     2ba:	57 83       	std	Z+7, r21	; 0x07
     2bc:	1d c0       	rjmp	.+58     	; 0x2f8 <_fpadd_parts+0x20e>
     2be:	81 e0       	ldi	r24, 0x01	; 1
     2c0:	81 83       	std	Z+1, r24	; 0x01
     2c2:	33 82       	std	Z+3, r3	; 0x03
     2c4:	22 82       	std	Z+2, r2	; 0x02
     2c6:	88 27       	eor	r24, r24
     2c8:	99 27       	eor	r25, r25
     2ca:	dc 01       	movw	r26, r24
     2cc:	82 1b       	sub	r24, r18
     2ce:	93 0b       	sbc	r25, r19
     2d0:	a4 0b       	sbc	r26, r20
     2d2:	b5 0b       	sbc	r27, r21
     2d4:	84 83       	std	Z+4, r24	; 0x04
     2d6:	95 83       	std	Z+5, r25	; 0x05
     2d8:	a6 83       	std	Z+6, r26	; 0x06
     2da:	b7 83       	std	Z+7, r27	; 0x07
     2dc:	0d c0       	rjmp	.+26     	; 0x2f8 <_fpadd_parts+0x20e>
     2de:	22 0f       	add	r18, r18
     2e0:	33 1f       	adc	r19, r19
     2e2:	44 1f       	adc	r20, r20
     2e4:	55 1f       	adc	r21, r21
     2e6:	24 83       	std	Z+4, r18	; 0x04
     2e8:	35 83       	std	Z+5, r19	; 0x05
     2ea:	46 83       	std	Z+6, r20	; 0x06
     2ec:	57 83       	std	Z+7, r21	; 0x07
     2ee:	82 81       	ldd	r24, Z+2	; 0x02
     2f0:	93 81       	ldd	r25, Z+3	; 0x03
     2f2:	01 97       	sbiw	r24, 0x01	; 1
     2f4:	93 83       	std	Z+3, r25	; 0x03
     2f6:	82 83       	std	Z+2, r24	; 0x02
     2f8:	24 81       	ldd	r18, Z+4	; 0x04
     2fa:	35 81       	ldd	r19, Z+5	; 0x05
     2fc:	46 81       	ldd	r20, Z+6	; 0x06
     2fe:	57 81       	ldd	r21, Z+7	; 0x07
     300:	da 01       	movw	r26, r20
     302:	c9 01       	movw	r24, r18
     304:	01 97       	sbiw	r24, 0x01	; 1
     306:	a1 09       	sbc	r26, r1
     308:	b1 09       	sbc	r27, r1
     30a:	8f 5f       	subi	r24, 0xFF	; 255
     30c:	9f 4f       	sbci	r25, 0xFF	; 255
     30e:	af 4f       	sbci	r26, 0xFF	; 255
     310:	bf 43       	sbci	r27, 0x3F	; 63
     312:	28 f3       	brcs	.-54     	; 0x2de <_fpadd_parts+0x1f4>
     314:	0b c0       	rjmp	.+22     	; 0x32c <_fpadd_parts+0x242>
     316:	91 83       	std	Z+1, r25	; 0x01
     318:	33 82       	std	Z+3, r3	; 0x03
     31a:	22 82       	std	Z+2, r2	; 0x02
     31c:	ea 0c       	add	r14, r10
     31e:	fb 1c       	adc	r15, r11
     320:	0c 1d       	adc	r16, r12
     322:	1d 1d       	adc	r17, r13
     324:	e4 82       	std	Z+4, r14	; 0x04
     326:	f5 82       	std	Z+5, r15	; 0x05
     328:	06 83       	std	Z+6, r16	; 0x06
     32a:	17 83       	std	Z+7, r17	; 0x07
     32c:	83 e0       	ldi	r24, 0x03	; 3
     32e:	80 83       	st	Z, r24
     330:	24 81       	ldd	r18, Z+4	; 0x04
     332:	35 81       	ldd	r19, Z+5	; 0x05
     334:	46 81       	ldd	r20, Z+6	; 0x06
     336:	57 81       	ldd	r21, Z+7	; 0x07
     338:	57 ff       	sbrs	r21, 7
     33a:	1a c0       	rjmp	.+52     	; 0x370 <_fpadd_parts+0x286>
     33c:	c9 01       	movw	r24, r18
     33e:	aa 27       	eor	r26, r26
     340:	97 fd       	sbrc	r25, 7
     342:	a0 95       	com	r26
     344:	ba 2f       	mov	r27, r26
     346:	81 70       	andi	r24, 0x01	; 1
     348:	90 70       	andi	r25, 0x00	; 0
     34a:	a0 70       	andi	r26, 0x00	; 0
     34c:	b0 70       	andi	r27, 0x00	; 0
     34e:	56 95       	lsr	r21
     350:	47 95       	ror	r20
     352:	37 95       	ror	r19
     354:	27 95       	ror	r18
     356:	82 2b       	or	r24, r18
     358:	93 2b       	or	r25, r19
     35a:	a4 2b       	or	r26, r20
     35c:	b5 2b       	or	r27, r21
     35e:	84 83       	std	Z+4, r24	; 0x04
     360:	95 83       	std	Z+5, r25	; 0x05
     362:	a6 83       	std	Z+6, r26	; 0x06
     364:	b7 83       	std	Z+7, r27	; 0x07
     366:	82 81       	ldd	r24, Z+2	; 0x02
     368:	93 81       	ldd	r25, Z+3	; 0x03
     36a:	01 96       	adiw	r24, 0x01	; 1
     36c:	93 83       	std	Z+3, r25	; 0x03
     36e:	82 83       	std	Z+2, r24	; 0x02
     370:	df 01       	movw	r26, r30
     372:	01 c0       	rjmp	.+2      	; 0x376 <_fpadd_parts+0x28c>
     374:	d2 01       	movw	r26, r4
     376:	cd 01       	movw	r24, r26
     378:	cd b7       	in	r28, 0x3d	; 61
     37a:	de b7       	in	r29, 0x3e	; 62
     37c:	e2 e1       	ldi	r30, 0x12	; 18
     37e:	0c 94 25 23 	jmp	0x464a	; 0x464a <__epilogue_restores__>

00000382 <__subsf3>:
     382:	a0 e2       	ldi	r26, 0x20	; 32
     384:	b0 e0       	ldi	r27, 0x00	; 0
     386:	e7 ec       	ldi	r30, 0xC7	; 199
     388:	f1 e0       	ldi	r31, 0x01	; 1
     38a:	0c 94 15 23 	jmp	0x462a	; 0x462a <__prologue_saves__+0x18>
     38e:	69 83       	std	Y+1, r22	; 0x01
     390:	7a 83       	std	Y+2, r23	; 0x02
     392:	8b 83       	std	Y+3, r24	; 0x03
     394:	9c 83       	std	Y+4, r25	; 0x04
     396:	2d 83       	std	Y+5, r18	; 0x05
     398:	3e 83       	std	Y+6, r19	; 0x06
     39a:	4f 83       	std	Y+7, r20	; 0x07
     39c:	58 87       	std	Y+8, r21	; 0x08
     39e:	e9 e0       	ldi	r30, 0x09	; 9
     3a0:	ee 2e       	mov	r14, r30
     3a2:	f1 2c       	mov	r15, r1
     3a4:	ec 0e       	add	r14, r28
     3a6:	fd 1e       	adc	r15, r29
     3a8:	ce 01       	movw	r24, r28
     3aa:	01 96       	adiw	r24, 0x01	; 1
     3ac:	b7 01       	movw	r22, r14
     3ae:	0e 94 d2 04 	call	0x9a4	; 0x9a4 <__unpack_f>
     3b2:	8e 01       	movw	r16, r28
     3b4:	0f 5e       	subi	r16, 0xEF	; 239
     3b6:	1f 4f       	sbci	r17, 0xFF	; 255
     3b8:	ce 01       	movw	r24, r28
     3ba:	05 96       	adiw	r24, 0x05	; 5
     3bc:	b8 01       	movw	r22, r16
     3be:	0e 94 d2 04 	call	0x9a4	; 0x9a4 <__unpack_f>
     3c2:	8a 89       	ldd	r24, Y+18	; 0x12
     3c4:	91 e0       	ldi	r25, 0x01	; 1
     3c6:	89 27       	eor	r24, r25
     3c8:	8a 8b       	std	Y+18, r24	; 0x12
     3ca:	c7 01       	movw	r24, r14
     3cc:	b8 01       	movw	r22, r16
     3ce:	ae 01       	movw	r20, r28
     3d0:	47 5e       	subi	r20, 0xE7	; 231
     3d2:	5f 4f       	sbci	r21, 0xFF	; 255
     3d4:	0e 94 75 00 	call	0xea	; 0xea <_fpadd_parts>
     3d8:	0e 94 fd 03 	call	0x7fa	; 0x7fa <__pack_f>
     3dc:	a0 96       	adiw	r28, 0x20	; 32
     3de:	e6 e0       	ldi	r30, 0x06	; 6
     3e0:	0c 94 31 23 	jmp	0x4662	; 0x4662 <__epilogue_restores__+0x18>

000003e4 <__addsf3>:
     3e4:	a0 e2       	ldi	r26, 0x20	; 32
     3e6:	b0 e0       	ldi	r27, 0x00	; 0
     3e8:	e8 ef       	ldi	r30, 0xF8	; 248
     3ea:	f1 e0       	ldi	r31, 0x01	; 1
     3ec:	0c 94 15 23 	jmp	0x462a	; 0x462a <__prologue_saves__+0x18>
     3f0:	69 83       	std	Y+1, r22	; 0x01
     3f2:	7a 83       	std	Y+2, r23	; 0x02
     3f4:	8b 83       	std	Y+3, r24	; 0x03
     3f6:	9c 83       	std	Y+4, r25	; 0x04
     3f8:	2d 83       	std	Y+5, r18	; 0x05
     3fa:	3e 83       	std	Y+6, r19	; 0x06
     3fc:	4f 83       	std	Y+7, r20	; 0x07
     3fe:	58 87       	std	Y+8, r21	; 0x08
     400:	f9 e0       	ldi	r31, 0x09	; 9
     402:	ef 2e       	mov	r14, r31
     404:	f1 2c       	mov	r15, r1
     406:	ec 0e       	add	r14, r28
     408:	fd 1e       	adc	r15, r29
     40a:	ce 01       	movw	r24, r28
     40c:	01 96       	adiw	r24, 0x01	; 1
     40e:	b7 01       	movw	r22, r14
     410:	0e 94 d2 04 	call	0x9a4	; 0x9a4 <__unpack_f>
     414:	8e 01       	movw	r16, r28
     416:	0f 5e       	subi	r16, 0xEF	; 239
     418:	1f 4f       	sbci	r17, 0xFF	; 255
     41a:	ce 01       	movw	r24, r28
     41c:	05 96       	adiw	r24, 0x05	; 5
     41e:	b8 01       	movw	r22, r16
     420:	0e 94 d2 04 	call	0x9a4	; 0x9a4 <__unpack_f>
     424:	c7 01       	movw	r24, r14
     426:	b8 01       	movw	r22, r16
     428:	ae 01       	movw	r20, r28
     42a:	47 5e       	subi	r20, 0xE7	; 231
     42c:	5f 4f       	sbci	r21, 0xFF	; 255
     42e:	0e 94 75 00 	call	0xea	; 0xea <_fpadd_parts>
     432:	0e 94 fd 03 	call	0x7fa	; 0x7fa <__pack_f>
     436:	a0 96       	adiw	r28, 0x20	; 32
     438:	e6 e0       	ldi	r30, 0x06	; 6
     43a:	0c 94 31 23 	jmp	0x4662	; 0x4662 <__epilogue_restores__+0x18>

0000043e <__mulsf3>:
     43e:	a0 e2       	ldi	r26, 0x20	; 32
     440:	b0 e0       	ldi	r27, 0x00	; 0
     442:	e5 e2       	ldi	r30, 0x25	; 37
     444:	f2 e0       	ldi	r31, 0x02	; 2
     446:	0c 94 09 23 	jmp	0x4612	; 0x4612 <__prologue_saves__>
     44a:	69 83       	std	Y+1, r22	; 0x01
     44c:	7a 83       	std	Y+2, r23	; 0x02
     44e:	8b 83       	std	Y+3, r24	; 0x03
     450:	9c 83       	std	Y+4, r25	; 0x04
     452:	2d 83       	std	Y+5, r18	; 0x05
     454:	3e 83       	std	Y+6, r19	; 0x06
     456:	4f 83       	std	Y+7, r20	; 0x07
     458:	58 87       	std	Y+8, r21	; 0x08
     45a:	ce 01       	movw	r24, r28
     45c:	01 96       	adiw	r24, 0x01	; 1
     45e:	be 01       	movw	r22, r28
     460:	67 5f       	subi	r22, 0xF7	; 247
     462:	7f 4f       	sbci	r23, 0xFF	; 255
     464:	0e 94 d2 04 	call	0x9a4	; 0x9a4 <__unpack_f>
     468:	ce 01       	movw	r24, r28
     46a:	05 96       	adiw	r24, 0x05	; 5
     46c:	be 01       	movw	r22, r28
     46e:	6f 5e       	subi	r22, 0xEF	; 239
     470:	7f 4f       	sbci	r23, 0xFF	; 255
     472:	0e 94 d2 04 	call	0x9a4	; 0x9a4 <__unpack_f>
     476:	99 85       	ldd	r25, Y+9	; 0x09
     478:	92 30       	cpi	r25, 0x02	; 2
     47a:	88 f0       	brcs	.+34     	; 0x49e <__mulsf3+0x60>
     47c:	89 89       	ldd	r24, Y+17	; 0x11
     47e:	82 30       	cpi	r24, 0x02	; 2
     480:	c8 f0       	brcs	.+50     	; 0x4b4 <__mulsf3+0x76>
     482:	94 30       	cpi	r25, 0x04	; 4
     484:	19 f4       	brne	.+6      	; 0x48c <__mulsf3+0x4e>
     486:	82 30       	cpi	r24, 0x02	; 2
     488:	51 f4       	brne	.+20     	; 0x49e <__mulsf3+0x60>
     48a:	04 c0       	rjmp	.+8      	; 0x494 <__mulsf3+0x56>
     48c:	84 30       	cpi	r24, 0x04	; 4
     48e:	29 f4       	brne	.+10     	; 0x49a <__mulsf3+0x5c>
     490:	92 30       	cpi	r25, 0x02	; 2
     492:	81 f4       	brne	.+32     	; 0x4b4 <__mulsf3+0x76>
     494:	83 e0       	ldi	r24, 0x03	; 3
     496:	91 e0       	ldi	r25, 0x01	; 1
     498:	c6 c0       	rjmp	.+396    	; 0x626 <__mulsf3+0x1e8>
     49a:	92 30       	cpi	r25, 0x02	; 2
     49c:	49 f4       	brne	.+18     	; 0x4b0 <__mulsf3+0x72>
     49e:	20 e0       	ldi	r18, 0x00	; 0
     4a0:	9a 85       	ldd	r25, Y+10	; 0x0a
     4a2:	8a 89       	ldd	r24, Y+18	; 0x12
     4a4:	98 13       	cpse	r25, r24
     4a6:	21 e0       	ldi	r18, 0x01	; 1
     4a8:	2a 87       	std	Y+10, r18	; 0x0a
     4aa:	ce 01       	movw	r24, r28
     4ac:	09 96       	adiw	r24, 0x09	; 9
     4ae:	bb c0       	rjmp	.+374    	; 0x626 <__mulsf3+0x1e8>
     4b0:	82 30       	cpi	r24, 0x02	; 2
     4b2:	49 f4       	brne	.+18     	; 0x4c6 <__mulsf3+0x88>
     4b4:	20 e0       	ldi	r18, 0x00	; 0
     4b6:	9a 85       	ldd	r25, Y+10	; 0x0a
     4b8:	8a 89       	ldd	r24, Y+18	; 0x12
     4ba:	98 13       	cpse	r25, r24
     4bc:	21 e0       	ldi	r18, 0x01	; 1
     4be:	2a 8b       	std	Y+18, r18	; 0x12
     4c0:	ce 01       	movw	r24, r28
     4c2:	41 96       	adiw	r24, 0x11	; 17
     4c4:	b0 c0       	rjmp	.+352    	; 0x626 <__mulsf3+0x1e8>
     4c6:	2d 84       	ldd	r2, Y+13	; 0x0d
     4c8:	3e 84       	ldd	r3, Y+14	; 0x0e
     4ca:	4f 84       	ldd	r4, Y+15	; 0x0f
     4cc:	58 88       	ldd	r5, Y+16	; 0x10
     4ce:	6d 88       	ldd	r6, Y+21	; 0x15
     4d0:	7e 88       	ldd	r7, Y+22	; 0x16
     4d2:	8f 88       	ldd	r8, Y+23	; 0x17
     4d4:	98 8c       	ldd	r9, Y+24	; 0x18
     4d6:	ee 24       	eor	r14, r14
     4d8:	ff 24       	eor	r15, r15
     4da:	87 01       	movw	r16, r14
     4dc:	aa 24       	eor	r10, r10
     4de:	bb 24       	eor	r11, r11
     4e0:	65 01       	movw	r12, r10
     4e2:	40 e0       	ldi	r20, 0x00	; 0
     4e4:	50 e0       	ldi	r21, 0x00	; 0
     4e6:	60 e0       	ldi	r22, 0x00	; 0
     4e8:	70 e0       	ldi	r23, 0x00	; 0
     4ea:	e0 e0       	ldi	r30, 0x00	; 0
     4ec:	f0 e0       	ldi	r31, 0x00	; 0
     4ee:	c1 01       	movw	r24, r2
     4f0:	81 70       	andi	r24, 0x01	; 1
     4f2:	90 70       	andi	r25, 0x00	; 0
     4f4:	89 2b       	or	r24, r25
     4f6:	e9 f0       	breq	.+58     	; 0x532 <__mulsf3+0xf4>
     4f8:	e6 0c       	add	r14, r6
     4fa:	f7 1c       	adc	r15, r7
     4fc:	08 1d       	adc	r16, r8
     4fe:	19 1d       	adc	r17, r9
     500:	9a 01       	movw	r18, r20
     502:	ab 01       	movw	r20, r22
     504:	2a 0d       	add	r18, r10
     506:	3b 1d       	adc	r19, r11
     508:	4c 1d       	adc	r20, r12
     50a:	5d 1d       	adc	r21, r13
     50c:	80 e0       	ldi	r24, 0x00	; 0
     50e:	90 e0       	ldi	r25, 0x00	; 0
     510:	a0 e0       	ldi	r26, 0x00	; 0
     512:	b0 e0       	ldi	r27, 0x00	; 0
     514:	e6 14       	cp	r14, r6
     516:	f7 04       	cpc	r15, r7
     518:	08 05       	cpc	r16, r8
     51a:	19 05       	cpc	r17, r9
     51c:	20 f4       	brcc	.+8      	; 0x526 <__mulsf3+0xe8>
     51e:	81 e0       	ldi	r24, 0x01	; 1
     520:	90 e0       	ldi	r25, 0x00	; 0
     522:	a0 e0       	ldi	r26, 0x00	; 0
     524:	b0 e0       	ldi	r27, 0x00	; 0
     526:	ba 01       	movw	r22, r20
     528:	a9 01       	movw	r20, r18
     52a:	48 0f       	add	r20, r24
     52c:	59 1f       	adc	r21, r25
     52e:	6a 1f       	adc	r22, r26
     530:	7b 1f       	adc	r23, r27
     532:	aa 0c       	add	r10, r10
     534:	bb 1c       	adc	r11, r11
     536:	cc 1c       	adc	r12, r12
     538:	dd 1c       	adc	r13, r13
     53a:	97 fe       	sbrs	r9, 7
     53c:	08 c0       	rjmp	.+16     	; 0x54e <__mulsf3+0x110>
     53e:	81 e0       	ldi	r24, 0x01	; 1
     540:	90 e0       	ldi	r25, 0x00	; 0
     542:	a0 e0       	ldi	r26, 0x00	; 0
     544:	b0 e0       	ldi	r27, 0x00	; 0
     546:	a8 2a       	or	r10, r24
     548:	b9 2a       	or	r11, r25
     54a:	ca 2a       	or	r12, r26
     54c:	db 2a       	or	r13, r27
     54e:	31 96       	adiw	r30, 0x01	; 1
     550:	e0 32       	cpi	r30, 0x20	; 32
     552:	f1 05       	cpc	r31, r1
     554:	49 f0       	breq	.+18     	; 0x568 <__mulsf3+0x12a>
     556:	66 0c       	add	r6, r6
     558:	77 1c       	adc	r7, r7
     55a:	88 1c       	adc	r8, r8
     55c:	99 1c       	adc	r9, r9
     55e:	56 94       	lsr	r5
     560:	47 94       	ror	r4
     562:	37 94       	ror	r3
     564:	27 94       	ror	r2
     566:	c3 cf       	rjmp	.-122    	; 0x4ee <__mulsf3+0xb0>
     568:	fa 85       	ldd	r31, Y+10	; 0x0a
     56a:	ea 89       	ldd	r30, Y+18	; 0x12
     56c:	2b 89       	ldd	r18, Y+19	; 0x13
     56e:	3c 89       	ldd	r19, Y+20	; 0x14
     570:	8b 85       	ldd	r24, Y+11	; 0x0b
     572:	9c 85       	ldd	r25, Y+12	; 0x0c
     574:	28 0f       	add	r18, r24
     576:	39 1f       	adc	r19, r25
     578:	2e 5f       	subi	r18, 0xFE	; 254
     57a:	3f 4f       	sbci	r19, 0xFF	; 255
     57c:	17 c0       	rjmp	.+46     	; 0x5ac <__mulsf3+0x16e>
     57e:	ca 01       	movw	r24, r20
     580:	81 70       	andi	r24, 0x01	; 1
     582:	90 70       	andi	r25, 0x00	; 0
     584:	89 2b       	or	r24, r25
     586:	61 f0       	breq	.+24     	; 0x5a0 <__mulsf3+0x162>
     588:	16 95       	lsr	r17
     58a:	07 95       	ror	r16
     58c:	f7 94       	ror	r15
     58e:	e7 94       	ror	r14
     590:	80 e0       	ldi	r24, 0x00	; 0
     592:	90 e0       	ldi	r25, 0x00	; 0
     594:	a0 e0       	ldi	r26, 0x00	; 0
     596:	b0 e8       	ldi	r27, 0x80	; 128
     598:	e8 2a       	or	r14, r24
     59a:	f9 2a       	or	r15, r25
     59c:	0a 2b       	or	r16, r26
     59e:	1b 2b       	or	r17, r27
     5a0:	76 95       	lsr	r23
     5a2:	67 95       	ror	r22
     5a4:	57 95       	ror	r21
     5a6:	47 95       	ror	r20
     5a8:	2f 5f       	subi	r18, 0xFF	; 255
     5aa:	3f 4f       	sbci	r19, 0xFF	; 255
     5ac:	77 fd       	sbrc	r23, 7
     5ae:	e7 cf       	rjmp	.-50     	; 0x57e <__mulsf3+0x140>
     5b0:	0c c0       	rjmp	.+24     	; 0x5ca <__mulsf3+0x18c>
     5b2:	44 0f       	add	r20, r20
     5b4:	55 1f       	adc	r21, r21
     5b6:	66 1f       	adc	r22, r22
     5b8:	77 1f       	adc	r23, r23
     5ba:	17 fd       	sbrc	r17, 7
     5bc:	41 60       	ori	r20, 0x01	; 1
     5be:	ee 0c       	add	r14, r14
     5c0:	ff 1c       	adc	r15, r15
     5c2:	00 1f       	adc	r16, r16
     5c4:	11 1f       	adc	r17, r17
     5c6:	21 50       	subi	r18, 0x01	; 1
     5c8:	30 40       	sbci	r19, 0x00	; 0
     5ca:	40 30       	cpi	r20, 0x00	; 0
     5cc:	90 e0       	ldi	r25, 0x00	; 0
     5ce:	59 07       	cpc	r21, r25
     5d0:	90 e0       	ldi	r25, 0x00	; 0
     5d2:	69 07       	cpc	r22, r25
     5d4:	90 e4       	ldi	r25, 0x40	; 64
     5d6:	79 07       	cpc	r23, r25
     5d8:	60 f3       	brcs	.-40     	; 0x5b2 <__mulsf3+0x174>
     5da:	2b 8f       	std	Y+27, r18	; 0x1b
     5dc:	3c 8f       	std	Y+28, r19	; 0x1c
     5de:	db 01       	movw	r26, r22
     5e0:	ca 01       	movw	r24, r20
     5e2:	8f 77       	andi	r24, 0x7F	; 127
     5e4:	90 70       	andi	r25, 0x00	; 0
     5e6:	a0 70       	andi	r26, 0x00	; 0
     5e8:	b0 70       	andi	r27, 0x00	; 0
     5ea:	80 34       	cpi	r24, 0x40	; 64
     5ec:	91 05       	cpc	r25, r1
     5ee:	a1 05       	cpc	r26, r1
     5f0:	b1 05       	cpc	r27, r1
     5f2:	61 f4       	brne	.+24     	; 0x60c <__mulsf3+0x1ce>
     5f4:	47 fd       	sbrc	r20, 7
     5f6:	0a c0       	rjmp	.+20     	; 0x60c <__mulsf3+0x1ce>
     5f8:	e1 14       	cp	r14, r1
     5fa:	f1 04       	cpc	r15, r1
     5fc:	01 05       	cpc	r16, r1
     5fe:	11 05       	cpc	r17, r1
     600:	29 f0       	breq	.+10     	; 0x60c <__mulsf3+0x1ce>
     602:	40 5c       	subi	r20, 0xC0	; 192
     604:	5f 4f       	sbci	r21, 0xFF	; 255
     606:	6f 4f       	sbci	r22, 0xFF	; 255
     608:	7f 4f       	sbci	r23, 0xFF	; 255
     60a:	40 78       	andi	r20, 0x80	; 128
     60c:	1a 8e       	std	Y+26, r1	; 0x1a
     60e:	fe 17       	cp	r31, r30
     610:	11 f0       	breq	.+4      	; 0x616 <__mulsf3+0x1d8>
     612:	81 e0       	ldi	r24, 0x01	; 1
     614:	8a 8f       	std	Y+26, r24	; 0x1a
     616:	4d 8f       	std	Y+29, r20	; 0x1d
     618:	5e 8f       	std	Y+30, r21	; 0x1e
     61a:	6f 8f       	std	Y+31, r22	; 0x1f
     61c:	78 a3       	std	Y+32, r23	; 0x20
     61e:	83 e0       	ldi	r24, 0x03	; 3
     620:	89 8f       	std	Y+25, r24	; 0x19
     622:	ce 01       	movw	r24, r28
     624:	49 96       	adiw	r24, 0x19	; 25
     626:	0e 94 fd 03 	call	0x7fa	; 0x7fa <__pack_f>
     62a:	a0 96       	adiw	r28, 0x20	; 32
     62c:	e2 e1       	ldi	r30, 0x12	; 18
     62e:	0c 94 25 23 	jmp	0x464a	; 0x464a <__epilogue_restores__>

00000632 <__gtsf2>:
     632:	a8 e1       	ldi	r26, 0x18	; 24
     634:	b0 e0       	ldi	r27, 0x00	; 0
     636:	ef e1       	ldi	r30, 0x1F	; 31
     638:	f3 e0       	ldi	r31, 0x03	; 3
     63a:	0c 94 15 23 	jmp	0x462a	; 0x462a <__prologue_saves__+0x18>
     63e:	69 83       	std	Y+1, r22	; 0x01
     640:	7a 83       	std	Y+2, r23	; 0x02
     642:	8b 83       	std	Y+3, r24	; 0x03
     644:	9c 83       	std	Y+4, r25	; 0x04
     646:	2d 83       	std	Y+5, r18	; 0x05
     648:	3e 83       	std	Y+6, r19	; 0x06
     64a:	4f 83       	std	Y+7, r20	; 0x07
     64c:	58 87       	std	Y+8, r21	; 0x08
     64e:	89 e0       	ldi	r24, 0x09	; 9
     650:	e8 2e       	mov	r14, r24
     652:	f1 2c       	mov	r15, r1
     654:	ec 0e       	add	r14, r28
     656:	fd 1e       	adc	r15, r29
     658:	ce 01       	movw	r24, r28
     65a:	01 96       	adiw	r24, 0x01	; 1
     65c:	b7 01       	movw	r22, r14
     65e:	0e 94 d2 04 	call	0x9a4	; 0x9a4 <__unpack_f>
     662:	8e 01       	movw	r16, r28
     664:	0f 5e       	subi	r16, 0xEF	; 239
     666:	1f 4f       	sbci	r17, 0xFF	; 255
     668:	ce 01       	movw	r24, r28
     66a:	05 96       	adiw	r24, 0x05	; 5
     66c:	b8 01       	movw	r22, r16
     66e:	0e 94 d2 04 	call	0x9a4	; 0x9a4 <__unpack_f>
     672:	89 85       	ldd	r24, Y+9	; 0x09
     674:	82 30       	cpi	r24, 0x02	; 2
     676:	40 f0       	brcs	.+16     	; 0x688 <__gtsf2+0x56>
     678:	89 89       	ldd	r24, Y+17	; 0x11
     67a:	82 30       	cpi	r24, 0x02	; 2
     67c:	28 f0       	brcs	.+10     	; 0x688 <__gtsf2+0x56>
     67e:	c7 01       	movw	r24, r14
     680:	b8 01       	movw	r22, r16
     682:	0e 94 4a 05 	call	0xa94	; 0xa94 <__fpcmp_parts_f>
     686:	01 c0       	rjmp	.+2      	; 0x68a <__gtsf2+0x58>
     688:	8f ef       	ldi	r24, 0xFF	; 255
     68a:	68 96       	adiw	r28, 0x18	; 24
     68c:	e6 e0       	ldi	r30, 0x06	; 6
     68e:	0c 94 31 23 	jmp	0x4662	; 0x4662 <__epilogue_restores__+0x18>

00000692 <__gesf2>:
     692:	a8 e1       	ldi	r26, 0x18	; 24
     694:	b0 e0       	ldi	r27, 0x00	; 0
     696:	ef e4       	ldi	r30, 0x4F	; 79
     698:	f3 e0       	ldi	r31, 0x03	; 3
     69a:	0c 94 15 23 	jmp	0x462a	; 0x462a <__prologue_saves__+0x18>
     69e:	69 83       	std	Y+1, r22	; 0x01
     6a0:	7a 83       	std	Y+2, r23	; 0x02
     6a2:	8b 83       	std	Y+3, r24	; 0x03
     6a4:	9c 83       	std	Y+4, r25	; 0x04
     6a6:	2d 83       	std	Y+5, r18	; 0x05
     6a8:	3e 83       	std	Y+6, r19	; 0x06
     6aa:	4f 83       	std	Y+7, r20	; 0x07
     6ac:	58 87       	std	Y+8, r21	; 0x08
     6ae:	89 e0       	ldi	r24, 0x09	; 9
     6b0:	e8 2e       	mov	r14, r24
     6b2:	f1 2c       	mov	r15, r1
     6b4:	ec 0e       	add	r14, r28
     6b6:	fd 1e       	adc	r15, r29
     6b8:	ce 01       	movw	r24, r28
     6ba:	01 96       	adiw	r24, 0x01	; 1
     6bc:	b7 01       	movw	r22, r14
     6be:	0e 94 d2 04 	call	0x9a4	; 0x9a4 <__unpack_f>
     6c2:	8e 01       	movw	r16, r28
     6c4:	0f 5e       	subi	r16, 0xEF	; 239
     6c6:	1f 4f       	sbci	r17, 0xFF	; 255
     6c8:	ce 01       	movw	r24, r28
     6ca:	05 96       	adiw	r24, 0x05	; 5
     6cc:	b8 01       	movw	r22, r16
     6ce:	0e 94 d2 04 	call	0x9a4	; 0x9a4 <__unpack_f>
     6d2:	89 85       	ldd	r24, Y+9	; 0x09
     6d4:	82 30       	cpi	r24, 0x02	; 2
     6d6:	40 f0       	brcs	.+16     	; 0x6e8 <__gesf2+0x56>
     6d8:	89 89       	ldd	r24, Y+17	; 0x11
     6da:	82 30       	cpi	r24, 0x02	; 2
     6dc:	28 f0       	brcs	.+10     	; 0x6e8 <__gesf2+0x56>
     6de:	c7 01       	movw	r24, r14
     6e0:	b8 01       	movw	r22, r16
     6e2:	0e 94 4a 05 	call	0xa94	; 0xa94 <__fpcmp_parts_f>
     6e6:	01 c0       	rjmp	.+2      	; 0x6ea <__gesf2+0x58>
     6e8:	8f ef       	ldi	r24, 0xFF	; 255
     6ea:	68 96       	adiw	r28, 0x18	; 24
     6ec:	e6 e0       	ldi	r30, 0x06	; 6
     6ee:	0c 94 31 23 	jmp	0x4662	; 0x4662 <__epilogue_restores__+0x18>

000006f2 <__ltsf2>:
     6f2:	a8 e1       	ldi	r26, 0x18	; 24
     6f4:	b0 e0       	ldi	r27, 0x00	; 0
     6f6:	ef e7       	ldi	r30, 0x7F	; 127
     6f8:	f3 e0       	ldi	r31, 0x03	; 3
     6fa:	0c 94 15 23 	jmp	0x462a	; 0x462a <__prologue_saves__+0x18>
     6fe:	69 83       	std	Y+1, r22	; 0x01
     700:	7a 83       	std	Y+2, r23	; 0x02
     702:	8b 83       	std	Y+3, r24	; 0x03
     704:	9c 83       	std	Y+4, r25	; 0x04
     706:	2d 83       	std	Y+5, r18	; 0x05
     708:	3e 83       	std	Y+6, r19	; 0x06
     70a:	4f 83       	std	Y+7, r20	; 0x07
     70c:	58 87       	std	Y+8, r21	; 0x08
     70e:	89 e0       	ldi	r24, 0x09	; 9
     710:	e8 2e       	mov	r14, r24
     712:	f1 2c       	mov	r15, r1
     714:	ec 0e       	add	r14, r28
     716:	fd 1e       	adc	r15, r29
     718:	ce 01       	movw	r24, r28
     71a:	01 96       	adiw	r24, 0x01	; 1
     71c:	b7 01       	movw	r22, r14
     71e:	0e 94 d2 04 	call	0x9a4	; 0x9a4 <__unpack_f>
     722:	8e 01       	movw	r16, r28
     724:	0f 5e       	subi	r16, 0xEF	; 239
     726:	1f 4f       	sbci	r17, 0xFF	; 255
     728:	ce 01       	movw	r24, r28
     72a:	05 96       	adiw	r24, 0x05	; 5
     72c:	b8 01       	movw	r22, r16
     72e:	0e 94 d2 04 	call	0x9a4	; 0x9a4 <__unpack_f>
     732:	89 85       	ldd	r24, Y+9	; 0x09
     734:	82 30       	cpi	r24, 0x02	; 2
     736:	40 f0       	brcs	.+16     	; 0x748 <__ltsf2+0x56>
     738:	89 89       	ldd	r24, Y+17	; 0x11
     73a:	82 30       	cpi	r24, 0x02	; 2
     73c:	28 f0       	brcs	.+10     	; 0x748 <__ltsf2+0x56>
     73e:	c7 01       	movw	r24, r14
     740:	b8 01       	movw	r22, r16
     742:	0e 94 4a 05 	call	0xa94	; 0xa94 <__fpcmp_parts_f>
     746:	01 c0       	rjmp	.+2      	; 0x74a <__ltsf2+0x58>
     748:	81 e0       	ldi	r24, 0x01	; 1
     74a:	68 96       	adiw	r28, 0x18	; 24
     74c:	e6 e0       	ldi	r30, 0x06	; 6
     74e:	0c 94 31 23 	jmp	0x4662	; 0x4662 <__epilogue_restores__+0x18>

00000752 <__fixsfsi>:
     752:	ac e0       	ldi	r26, 0x0C	; 12
     754:	b0 e0       	ldi	r27, 0x00	; 0
     756:	ef ea       	ldi	r30, 0xAF	; 175
     758:	f3 e0       	ldi	r31, 0x03	; 3
     75a:	0c 94 19 23 	jmp	0x4632	; 0x4632 <__prologue_saves__+0x20>
     75e:	69 83       	std	Y+1, r22	; 0x01
     760:	7a 83       	std	Y+2, r23	; 0x02
     762:	8b 83       	std	Y+3, r24	; 0x03
     764:	9c 83       	std	Y+4, r25	; 0x04
     766:	ce 01       	movw	r24, r28
     768:	01 96       	adiw	r24, 0x01	; 1
     76a:	be 01       	movw	r22, r28
     76c:	6b 5f       	subi	r22, 0xFB	; 251
     76e:	7f 4f       	sbci	r23, 0xFF	; 255
     770:	0e 94 d2 04 	call	0x9a4	; 0x9a4 <__unpack_f>
     774:	8d 81       	ldd	r24, Y+5	; 0x05
     776:	82 30       	cpi	r24, 0x02	; 2
     778:	61 f1       	breq	.+88     	; 0x7d2 <__fixsfsi+0x80>
     77a:	82 30       	cpi	r24, 0x02	; 2
     77c:	50 f1       	brcs	.+84     	; 0x7d2 <__fixsfsi+0x80>
     77e:	84 30       	cpi	r24, 0x04	; 4
     780:	21 f4       	brne	.+8      	; 0x78a <__fixsfsi+0x38>
     782:	8e 81       	ldd	r24, Y+6	; 0x06
     784:	88 23       	and	r24, r24
     786:	51 f1       	breq	.+84     	; 0x7dc <__fixsfsi+0x8a>
     788:	2e c0       	rjmp	.+92     	; 0x7e6 <__fixsfsi+0x94>
     78a:	2f 81       	ldd	r18, Y+7	; 0x07
     78c:	38 85       	ldd	r19, Y+8	; 0x08
     78e:	37 fd       	sbrc	r19, 7
     790:	20 c0       	rjmp	.+64     	; 0x7d2 <__fixsfsi+0x80>
     792:	6e 81       	ldd	r22, Y+6	; 0x06
     794:	2f 31       	cpi	r18, 0x1F	; 31
     796:	31 05       	cpc	r19, r1
     798:	1c f0       	brlt	.+6      	; 0x7a0 <__fixsfsi+0x4e>
     79a:	66 23       	and	r22, r22
     79c:	f9 f0       	breq	.+62     	; 0x7dc <__fixsfsi+0x8a>
     79e:	23 c0       	rjmp	.+70     	; 0x7e6 <__fixsfsi+0x94>
     7a0:	8e e1       	ldi	r24, 0x1E	; 30
     7a2:	90 e0       	ldi	r25, 0x00	; 0
     7a4:	82 1b       	sub	r24, r18
     7a6:	93 0b       	sbc	r25, r19
     7a8:	29 85       	ldd	r18, Y+9	; 0x09
     7aa:	3a 85       	ldd	r19, Y+10	; 0x0a
     7ac:	4b 85       	ldd	r20, Y+11	; 0x0b
     7ae:	5c 85       	ldd	r21, Y+12	; 0x0c
     7b0:	04 c0       	rjmp	.+8      	; 0x7ba <__fixsfsi+0x68>
     7b2:	56 95       	lsr	r21
     7b4:	47 95       	ror	r20
     7b6:	37 95       	ror	r19
     7b8:	27 95       	ror	r18
     7ba:	8a 95       	dec	r24
     7bc:	d2 f7       	brpl	.-12     	; 0x7b2 <__fixsfsi+0x60>
     7be:	66 23       	and	r22, r22
     7c0:	b1 f0       	breq	.+44     	; 0x7ee <__fixsfsi+0x9c>
     7c2:	50 95       	com	r21
     7c4:	40 95       	com	r20
     7c6:	30 95       	com	r19
     7c8:	21 95       	neg	r18
     7ca:	3f 4f       	sbci	r19, 0xFF	; 255
     7cc:	4f 4f       	sbci	r20, 0xFF	; 255
     7ce:	5f 4f       	sbci	r21, 0xFF	; 255
     7d0:	0e c0       	rjmp	.+28     	; 0x7ee <__fixsfsi+0x9c>
     7d2:	20 e0       	ldi	r18, 0x00	; 0
     7d4:	30 e0       	ldi	r19, 0x00	; 0
     7d6:	40 e0       	ldi	r20, 0x00	; 0
     7d8:	50 e0       	ldi	r21, 0x00	; 0
     7da:	09 c0       	rjmp	.+18     	; 0x7ee <__fixsfsi+0x9c>
     7dc:	2f ef       	ldi	r18, 0xFF	; 255
     7de:	3f ef       	ldi	r19, 0xFF	; 255
     7e0:	4f ef       	ldi	r20, 0xFF	; 255
     7e2:	5f e7       	ldi	r21, 0x7F	; 127
     7e4:	04 c0       	rjmp	.+8      	; 0x7ee <__fixsfsi+0x9c>
     7e6:	20 e0       	ldi	r18, 0x00	; 0
     7e8:	30 e0       	ldi	r19, 0x00	; 0
     7ea:	40 e0       	ldi	r20, 0x00	; 0
     7ec:	50 e8       	ldi	r21, 0x80	; 128
     7ee:	b9 01       	movw	r22, r18
     7f0:	ca 01       	movw	r24, r20
     7f2:	2c 96       	adiw	r28, 0x0c	; 12
     7f4:	e2 e0       	ldi	r30, 0x02	; 2
     7f6:	0c 94 35 23 	jmp	0x466a	; 0x466a <__epilogue_restores__+0x20>

000007fa <__pack_f>:
     7fa:	df 92       	push	r13
     7fc:	ef 92       	push	r14
     7fe:	ff 92       	push	r15
     800:	0f 93       	push	r16
     802:	1f 93       	push	r17
     804:	fc 01       	movw	r30, r24
     806:	e4 80       	ldd	r14, Z+4	; 0x04
     808:	f5 80       	ldd	r15, Z+5	; 0x05
     80a:	06 81       	ldd	r16, Z+6	; 0x06
     80c:	17 81       	ldd	r17, Z+7	; 0x07
     80e:	d1 80       	ldd	r13, Z+1	; 0x01
     810:	80 81       	ld	r24, Z
     812:	82 30       	cpi	r24, 0x02	; 2
     814:	48 f4       	brcc	.+18     	; 0x828 <__pack_f+0x2e>
     816:	80 e0       	ldi	r24, 0x00	; 0
     818:	90 e0       	ldi	r25, 0x00	; 0
     81a:	a0 e1       	ldi	r26, 0x10	; 16
     81c:	b0 e0       	ldi	r27, 0x00	; 0
     81e:	e8 2a       	or	r14, r24
     820:	f9 2a       	or	r15, r25
     822:	0a 2b       	or	r16, r26
     824:	1b 2b       	or	r17, r27
     826:	a5 c0       	rjmp	.+330    	; 0x972 <__stack+0x113>
     828:	84 30       	cpi	r24, 0x04	; 4
     82a:	09 f4       	brne	.+2      	; 0x82e <__pack_f+0x34>
     82c:	9f c0       	rjmp	.+318    	; 0x96c <__stack+0x10d>
     82e:	82 30       	cpi	r24, 0x02	; 2
     830:	21 f4       	brne	.+8      	; 0x83a <__pack_f+0x40>
     832:	ee 24       	eor	r14, r14
     834:	ff 24       	eor	r15, r15
     836:	87 01       	movw	r16, r14
     838:	05 c0       	rjmp	.+10     	; 0x844 <__pack_f+0x4a>
     83a:	e1 14       	cp	r14, r1
     83c:	f1 04       	cpc	r15, r1
     83e:	01 05       	cpc	r16, r1
     840:	11 05       	cpc	r17, r1
     842:	19 f4       	brne	.+6      	; 0x84a <__pack_f+0x50>
     844:	e0 e0       	ldi	r30, 0x00	; 0
     846:	f0 e0       	ldi	r31, 0x00	; 0
     848:	96 c0       	rjmp	.+300    	; 0x976 <__stack+0x117>
     84a:	62 81       	ldd	r22, Z+2	; 0x02
     84c:	73 81       	ldd	r23, Z+3	; 0x03
     84e:	9f ef       	ldi	r25, 0xFF	; 255
     850:	62 38       	cpi	r22, 0x82	; 130
     852:	79 07       	cpc	r23, r25
     854:	0c f0       	brlt	.+2      	; 0x858 <__pack_f+0x5e>
     856:	5b c0       	rjmp	.+182    	; 0x90e <__stack+0xaf>
     858:	22 e8       	ldi	r18, 0x82	; 130
     85a:	3f ef       	ldi	r19, 0xFF	; 255
     85c:	26 1b       	sub	r18, r22
     85e:	37 0b       	sbc	r19, r23
     860:	2a 31       	cpi	r18, 0x1A	; 26
     862:	31 05       	cpc	r19, r1
     864:	2c f0       	brlt	.+10     	; 0x870 <__stack+0x11>
     866:	20 e0       	ldi	r18, 0x00	; 0
     868:	30 e0       	ldi	r19, 0x00	; 0
     86a:	40 e0       	ldi	r20, 0x00	; 0
     86c:	50 e0       	ldi	r21, 0x00	; 0
     86e:	2a c0       	rjmp	.+84     	; 0x8c4 <__stack+0x65>
     870:	b8 01       	movw	r22, r16
     872:	a7 01       	movw	r20, r14
     874:	02 2e       	mov	r0, r18
     876:	04 c0       	rjmp	.+8      	; 0x880 <__stack+0x21>
     878:	76 95       	lsr	r23
     87a:	67 95       	ror	r22
     87c:	57 95       	ror	r21
     87e:	47 95       	ror	r20
     880:	0a 94       	dec	r0
     882:	d2 f7       	brpl	.-12     	; 0x878 <__stack+0x19>
     884:	81 e0       	ldi	r24, 0x01	; 1
     886:	90 e0       	ldi	r25, 0x00	; 0
     888:	a0 e0       	ldi	r26, 0x00	; 0
     88a:	b0 e0       	ldi	r27, 0x00	; 0
     88c:	04 c0       	rjmp	.+8      	; 0x896 <__stack+0x37>
     88e:	88 0f       	add	r24, r24
     890:	99 1f       	adc	r25, r25
     892:	aa 1f       	adc	r26, r26
     894:	bb 1f       	adc	r27, r27
     896:	2a 95       	dec	r18
     898:	d2 f7       	brpl	.-12     	; 0x88e <__stack+0x2f>
     89a:	01 97       	sbiw	r24, 0x01	; 1
     89c:	a1 09       	sbc	r26, r1
     89e:	b1 09       	sbc	r27, r1
     8a0:	8e 21       	and	r24, r14
     8a2:	9f 21       	and	r25, r15
     8a4:	a0 23       	and	r26, r16
     8a6:	b1 23       	and	r27, r17
     8a8:	00 97       	sbiw	r24, 0x00	; 0
     8aa:	a1 05       	cpc	r26, r1
     8ac:	b1 05       	cpc	r27, r1
     8ae:	21 f0       	breq	.+8      	; 0x8b8 <__stack+0x59>
     8b0:	81 e0       	ldi	r24, 0x01	; 1
     8b2:	90 e0       	ldi	r25, 0x00	; 0
     8b4:	a0 e0       	ldi	r26, 0x00	; 0
     8b6:	b0 e0       	ldi	r27, 0x00	; 0
     8b8:	9a 01       	movw	r18, r20
     8ba:	ab 01       	movw	r20, r22
     8bc:	28 2b       	or	r18, r24
     8be:	39 2b       	or	r19, r25
     8c0:	4a 2b       	or	r20, r26
     8c2:	5b 2b       	or	r21, r27
     8c4:	da 01       	movw	r26, r20
     8c6:	c9 01       	movw	r24, r18
     8c8:	8f 77       	andi	r24, 0x7F	; 127
     8ca:	90 70       	andi	r25, 0x00	; 0
     8cc:	a0 70       	andi	r26, 0x00	; 0
     8ce:	b0 70       	andi	r27, 0x00	; 0
     8d0:	80 34       	cpi	r24, 0x40	; 64
     8d2:	91 05       	cpc	r25, r1
     8d4:	a1 05       	cpc	r26, r1
     8d6:	b1 05       	cpc	r27, r1
     8d8:	39 f4       	brne	.+14     	; 0x8e8 <__stack+0x89>
     8da:	27 ff       	sbrs	r18, 7
     8dc:	09 c0       	rjmp	.+18     	; 0x8f0 <__stack+0x91>
     8de:	20 5c       	subi	r18, 0xC0	; 192
     8e0:	3f 4f       	sbci	r19, 0xFF	; 255
     8e2:	4f 4f       	sbci	r20, 0xFF	; 255
     8e4:	5f 4f       	sbci	r21, 0xFF	; 255
     8e6:	04 c0       	rjmp	.+8      	; 0x8f0 <__stack+0x91>
     8e8:	21 5c       	subi	r18, 0xC1	; 193
     8ea:	3f 4f       	sbci	r19, 0xFF	; 255
     8ec:	4f 4f       	sbci	r20, 0xFF	; 255
     8ee:	5f 4f       	sbci	r21, 0xFF	; 255
     8f0:	e0 e0       	ldi	r30, 0x00	; 0
     8f2:	f0 e0       	ldi	r31, 0x00	; 0
     8f4:	20 30       	cpi	r18, 0x00	; 0
     8f6:	a0 e0       	ldi	r26, 0x00	; 0
     8f8:	3a 07       	cpc	r19, r26
     8fa:	a0 e0       	ldi	r26, 0x00	; 0
     8fc:	4a 07       	cpc	r20, r26
     8fe:	a0 e4       	ldi	r26, 0x40	; 64
     900:	5a 07       	cpc	r21, r26
     902:	10 f0       	brcs	.+4      	; 0x908 <__stack+0xa9>
     904:	e1 e0       	ldi	r30, 0x01	; 1
     906:	f0 e0       	ldi	r31, 0x00	; 0
     908:	79 01       	movw	r14, r18
     90a:	8a 01       	movw	r16, r20
     90c:	27 c0       	rjmp	.+78     	; 0x95c <__stack+0xfd>
     90e:	60 38       	cpi	r22, 0x80	; 128
     910:	71 05       	cpc	r23, r1
     912:	64 f5       	brge	.+88     	; 0x96c <__stack+0x10d>
     914:	fb 01       	movw	r30, r22
     916:	e1 58       	subi	r30, 0x81	; 129
     918:	ff 4f       	sbci	r31, 0xFF	; 255
     91a:	d8 01       	movw	r26, r16
     91c:	c7 01       	movw	r24, r14
     91e:	8f 77       	andi	r24, 0x7F	; 127
     920:	90 70       	andi	r25, 0x00	; 0
     922:	a0 70       	andi	r26, 0x00	; 0
     924:	b0 70       	andi	r27, 0x00	; 0
     926:	80 34       	cpi	r24, 0x40	; 64
     928:	91 05       	cpc	r25, r1
     92a:	a1 05       	cpc	r26, r1
     92c:	b1 05       	cpc	r27, r1
     92e:	39 f4       	brne	.+14     	; 0x93e <__stack+0xdf>
     930:	e7 fe       	sbrs	r14, 7
     932:	0d c0       	rjmp	.+26     	; 0x94e <__stack+0xef>
     934:	80 e4       	ldi	r24, 0x40	; 64
     936:	90 e0       	ldi	r25, 0x00	; 0
     938:	a0 e0       	ldi	r26, 0x00	; 0
     93a:	b0 e0       	ldi	r27, 0x00	; 0
     93c:	04 c0       	rjmp	.+8      	; 0x946 <__stack+0xe7>
     93e:	8f e3       	ldi	r24, 0x3F	; 63
     940:	90 e0       	ldi	r25, 0x00	; 0
     942:	a0 e0       	ldi	r26, 0x00	; 0
     944:	b0 e0       	ldi	r27, 0x00	; 0
     946:	e8 0e       	add	r14, r24
     948:	f9 1e       	adc	r15, r25
     94a:	0a 1f       	adc	r16, r26
     94c:	1b 1f       	adc	r17, r27
     94e:	17 ff       	sbrs	r17, 7
     950:	05 c0       	rjmp	.+10     	; 0x95c <__stack+0xfd>
     952:	16 95       	lsr	r17
     954:	07 95       	ror	r16
     956:	f7 94       	ror	r15
     958:	e7 94       	ror	r14
     95a:	31 96       	adiw	r30, 0x01	; 1
     95c:	87 e0       	ldi	r24, 0x07	; 7
     95e:	16 95       	lsr	r17
     960:	07 95       	ror	r16
     962:	f7 94       	ror	r15
     964:	e7 94       	ror	r14
     966:	8a 95       	dec	r24
     968:	d1 f7       	brne	.-12     	; 0x95e <__stack+0xff>
     96a:	05 c0       	rjmp	.+10     	; 0x976 <__stack+0x117>
     96c:	ee 24       	eor	r14, r14
     96e:	ff 24       	eor	r15, r15
     970:	87 01       	movw	r16, r14
     972:	ef ef       	ldi	r30, 0xFF	; 255
     974:	f0 e0       	ldi	r31, 0x00	; 0
     976:	6e 2f       	mov	r22, r30
     978:	67 95       	ror	r22
     97a:	66 27       	eor	r22, r22
     97c:	67 95       	ror	r22
     97e:	90 2f       	mov	r25, r16
     980:	9f 77       	andi	r25, 0x7F	; 127
     982:	d7 94       	ror	r13
     984:	dd 24       	eor	r13, r13
     986:	d7 94       	ror	r13
     988:	8e 2f       	mov	r24, r30
     98a:	86 95       	lsr	r24
     98c:	49 2f       	mov	r20, r25
     98e:	46 2b       	or	r20, r22
     990:	58 2f       	mov	r21, r24
     992:	5d 29       	or	r21, r13
     994:	b7 01       	movw	r22, r14
     996:	ca 01       	movw	r24, r20
     998:	1f 91       	pop	r17
     99a:	0f 91       	pop	r16
     99c:	ff 90       	pop	r15
     99e:	ef 90       	pop	r14
     9a0:	df 90       	pop	r13
     9a2:	08 95       	ret

000009a4 <__unpack_f>:
     9a4:	fc 01       	movw	r30, r24
     9a6:	db 01       	movw	r26, r22
     9a8:	40 81       	ld	r20, Z
     9aa:	51 81       	ldd	r21, Z+1	; 0x01
     9ac:	22 81       	ldd	r18, Z+2	; 0x02
     9ae:	62 2f       	mov	r22, r18
     9b0:	6f 77       	andi	r22, 0x7F	; 127
     9b2:	70 e0       	ldi	r23, 0x00	; 0
     9b4:	22 1f       	adc	r18, r18
     9b6:	22 27       	eor	r18, r18
     9b8:	22 1f       	adc	r18, r18
     9ba:	93 81       	ldd	r25, Z+3	; 0x03
     9bc:	89 2f       	mov	r24, r25
     9be:	88 0f       	add	r24, r24
     9c0:	82 2b       	or	r24, r18
     9c2:	28 2f       	mov	r18, r24
     9c4:	30 e0       	ldi	r19, 0x00	; 0
     9c6:	99 1f       	adc	r25, r25
     9c8:	99 27       	eor	r25, r25
     9ca:	99 1f       	adc	r25, r25
     9cc:	11 96       	adiw	r26, 0x01	; 1
     9ce:	9c 93       	st	X, r25
     9d0:	11 97       	sbiw	r26, 0x01	; 1
     9d2:	21 15       	cp	r18, r1
     9d4:	31 05       	cpc	r19, r1
     9d6:	a9 f5       	brne	.+106    	; 0xa42 <__unpack_f+0x9e>
     9d8:	41 15       	cp	r20, r1
     9da:	51 05       	cpc	r21, r1
     9dc:	61 05       	cpc	r22, r1
     9de:	71 05       	cpc	r23, r1
     9e0:	11 f4       	brne	.+4      	; 0x9e6 <__unpack_f+0x42>
     9e2:	82 e0       	ldi	r24, 0x02	; 2
     9e4:	37 c0       	rjmp	.+110    	; 0xa54 <__unpack_f+0xb0>
     9e6:	82 e8       	ldi	r24, 0x82	; 130
     9e8:	9f ef       	ldi	r25, 0xFF	; 255
     9ea:	13 96       	adiw	r26, 0x03	; 3
     9ec:	9c 93       	st	X, r25
     9ee:	8e 93       	st	-X, r24
     9f0:	12 97       	sbiw	r26, 0x02	; 2
     9f2:	9a 01       	movw	r18, r20
     9f4:	ab 01       	movw	r20, r22
     9f6:	67 e0       	ldi	r22, 0x07	; 7
     9f8:	22 0f       	add	r18, r18
     9fa:	33 1f       	adc	r19, r19
     9fc:	44 1f       	adc	r20, r20
     9fe:	55 1f       	adc	r21, r21
     a00:	6a 95       	dec	r22
     a02:	d1 f7       	brne	.-12     	; 0x9f8 <__unpack_f+0x54>
     a04:	83 e0       	ldi	r24, 0x03	; 3
     a06:	8c 93       	st	X, r24
     a08:	0d c0       	rjmp	.+26     	; 0xa24 <__unpack_f+0x80>
     a0a:	22 0f       	add	r18, r18
     a0c:	33 1f       	adc	r19, r19
     a0e:	44 1f       	adc	r20, r20
     a10:	55 1f       	adc	r21, r21
     a12:	12 96       	adiw	r26, 0x02	; 2
     a14:	8d 91       	ld	r24, X+
     a16:	9c 91       	ld	r25, X
     a18:	13 97       	sbiw	r26, 0x03	; 3
     a1a:	01 97       	sbiw	r24, 0x01	; 1
     a1c:	13 96       	adiw	r26, 0x03	; 3
     a1e:	9c 93       	st	X, r25
     a20:	8e 93       	st	-X, r24
     a22:	12 97       	sbiw	r26, 0x02	; 2
     a24:	20 30       	cpi	r18, 0x00	; 0
     a26:	80 e0       	ldi	r24, 0x00	; 0
     a28:	38 07       	cpc	r19, r24
     a2a:	80 e0       	ldi	r24, 0x00	; 0
     a2c:	48 07       	cpc	r20, r24
     a2e:	80 e4       	ldi	r24, 0x40	; 64
     a30:	58 07       	cpc	r21, r24
     a32:	58 f3       	brcs	.-42     	; 0xa0a <__unpack_f+0x66>
     a34:	14 96       	adiw	r26, 0x04	; 4
     a36:	2d 93       	st	X+, r18
     a38:	3d 93       	st	X+, r19
     a3a:	4d 93       	st	X+, r20
     a3c:	5c 93       	st	X, r21
     a3e:	17 97       	sbiw	r26, 0x07	; 7
     a40:	08 95       	ret
     a42:	2f 3f       	cpi	r18, 0xFF	; 255
     a44:	31 05       	cpc	r19, r1
     a46:	79 f4       	brne	.+30     	; 0xa66 <__unpack_f+0xc2>
     a48:	41 15       	cp	r20, r1
     a4a:	51 05       	cpc	r21, r1
     a4c:	61 05       	cpc	r22, r1
     a4e:	71 05       	cpc	r23, r1
     a50:	19 f4       	brne	.+6      	; 0xa58 <__unpack_f+0xb4>
     a52:	84 e0       	ldi	r24, 0x04	; 4
     a54:	8c 93       	st	X, r24
     a56:	08 95       	ret
     a58:	64 ff       	sbrs	r22, 4
     a5a:	03 c0       	rjmp	.+6      	; 0xa62 <__unpack_f+0xbe>
     a5c:	81 e0       	ldi	r24, 0x01	; 1
     a5e:	8c 93       	st	X, r24
     a60:	12 c0       	rjmp	.+36     	; 0xa86 <__unpack_f+0xe2>
     a62:	1c 92       	st	X, r1
     a64:	10 c0       	rjmp	.+32     	; 0xa86 <__unpack_f+0xe2>
     a66:	2f 57       	subi	r18, 0x7F	; 127
     a68:	30 40       	sbci	r19, 0x00	; 0
     a6a:	13 96       	adiw	r26, 0x03	; 3
     a6c:	3c 93       	st	X, r19
     a6e:	2e 93       	st	-X, r18
     a70:	12 97       	sbiw	r26, 0x02	; 2
     a72:	83 e0       	ldi	r24, 0x03	; 3
     a74:	8c 93       	st	X, r24
     a76:	87 e0       	ldi	r24, 0x07	; 7
     a78:	44 0f       	add	r20, r20
     a7a:	55 1f       	adc	r21, r21
     a7c:	66 1f       	adc	r22, r22
     a7e:	77 1f       	adc	r23, r23
     a80:	8a 95       	dec	r24
     a82:	d1 f7       	brne	.-12     	; 0xa78 <__unpack_f+0xd4>
     a84:	70 64       	ori	r23, 0x40	; 64
     a86:	14 96       	adiw	r26, 0x04	; 4
     a88:	4d 93       	st	X+, r20
     a8a:	5d 93       	st	X+, r21
     a8c:	6d 93       	st	X+, r22
     a8e:	7c 93       	st	X, r23
     a90:	17 97       	sbiw	r26, 0x07	; 7
     a92:	08 95       	ret

00000a94 <__fpcmp_parts_f>:
     a94:	1f 93       	push	r17
     a96:	dc 01       	movw	r26, r24
     a98:	fb 01       	movw	r30, r22
     a9a:	9c 91       	ld	r25, X
     a9c:	92 30       	cpi	r25, 0x02	; 2
     a9e:	08 f4       	brcc	.+2      	; 0xaa2 <__fpcmp_parts_f+0xe>
     aa0:	47 c0       	rjmp	.+142    	; 0xb30 <__fpcmp_parts_f+0x9c>
     aa2:	80 81       	ld	r24, Z
     aa4:	82 30       	cpi	r24, 0x02	; 2
     aa6:	08 f4       	brcc	.+2      	; 0xaaa <__fpcmp_parts_f+0x16>
     aa8:	43 c0       	rjmp	.+134    	; 0xb30 <__fpcmp_parts_f+0x9c>
     aaa:	94 30       	cpi	r25, 0x04	; 4
     aac:	51 f4       	brne	.+20     	; 0xac2 <__fpcmp_parts_f+0x2e>
     aae:	11 96       	adiw	r26, 0x01	; 1
     ab0:	1c 91       	ld	r17, X
     ab2:	84 30       	cpi	r24, 0x04	; 4
     ab4:	99 f5       	brne	.+102    	; 0xb1c <__fpcmp_parts_f+0x88>
     ab6:	81 81       	ldd	r24, Z+1	; 0x01
     ab8:	68 2f       	mov	r22, r24
     aba:	70 e0       	ldi	r23, 0x00	; 0
     abc:	61 1b       	sub	r22, r17
     abe:	71 09       	sbc	r23, r1
     ac0:	3f c0       	rjmp	.+126    	; 0xb40 <__fpcmp_parts_f+0xac>
     ac2:	84 30       	cpi	r24, 0x04	; 4
     ac4:	21 f0       	breq	.+8      	; 0xace <__fpcmp_parts_f+0x3a>
     ac6:	92 30       	cpi	r25, 0x02	; 2
     ac8:	31 f4       	brne	.+12     	; 0xad6 <__fpcmp_parts_f+0x42>
     aca:	82 30       	cpi	r24, 0x02	; 2
     acc:	b9 f1       	breq	.+110    	; 0xb3c <__fpcmp_parts_f+0xa8>
     ace:	81 81       	ldd	r24, Z+1	; 0x01
     ad0:	88 23       	and	r24, r24
     ad2:	89 f1       	breq	.+98     	; 0xb36 <__fpcmp_parts_f+0xa2>
     ad4:	2d c0       	rjmp	.+90     	; 0xb30 <__fpcmp_parts_f+0x9c>
     ad6:	11 96       	adiw	r26, 0x01	; 1
     ad8:	1c 91       	ld	r17, X
     ada:	11 97       	sbiw	r26, 0x01	; 1
     adc:	82 30       	cpi	r24, 0x02	; 2
     ade:	f1 f0       	breq	.+60     	; 0xb1c <__fpcmp_parts_f+0x88>
     ae0:	81 81       	ldd	r24, Z+1	; 0x01
     ae2:	18 17       	cp	r17, r24
     ae4:	d9 f4       	brne	.+54     	; 0xb1c <__fpcmp_parts_f+0x88>
     ae6:	12 96       	adiw	r26, 0x02	; 2
     ae8:	2d 91       	ld	r18, X+
     aea:	3c 91       	ld	r19, X
     aec:	13 97       	sbiw	r26, 0x03	; 3
     aee:	82 81       	ldd	r24, Z+2	; 0x02
     af0:	93 81       	ldd	r25, Z+3	; 0x03
     af2:	82 17       	cp	r24, r18
     af4:	93 07       	cpc	r25, r19
     af6:	94 f0       	brlt	.+36     	; 0xb1c <__fpcmp_parts_f+0x88>
     af8:	28 17       	cp	r18, r24
     afa:	39 07       	cpc	r19, r25
     afc:	bc f0       	brlt	.+46     	; 0xb2c <__fpcmp_parts_f+0x98>
     afe:	14 96       	adiw	r26, 0x04	; 4
     b00:	8d 91       	ld	r24, X+
     b02:	9d 91       	ld	r25, X+
     b04:	0d 90       	ld	r0, X+
     b06:	bc 91       	ld	r27, X
     b08:	a0 2d       	mov	r26, r0
     b0a:	24 81       	ldd	r18, Z+4	; 0x04
     b0c:	35 81       	ldd	r19, Z+5	; 0x05
     b0e:	46 81       	ldd	r20, Z+6	; 0x06
     b10:	57 81       	ldd	r21, Z+7	; 0x07
     b12:	28 17       	cp	r18, r24
     b14:	39 07       	cpc	r19, r25
     b16:	4a 07       	cpc	r20, r26
     b18:	5b 07       	cpc	r21, r27
     b1a:	18 f4       	brcc	.+6      	; 0xb22 <__fpcmp_parts_f+0x8e>
     b1c:	11 23       	and	r17, r17
     b1e:	41 f0       	breq	.+16     	; 0xb30 <__fpcmp_parts_f+0x9c>
     b20:	0a c0       	rjmp	.+20     	; 0xb36 <__fpcmp_parts_f+0xa2>
     b22:	82 17       	cp	r24, r18
     b24:	93 07       	cpc	r25, r19
     b26:	a4 07       	cpc	r26, r20
     b28:	b5 07       	cpc	r27, r21
     b2a:	40 f4       	brcc	.+16     	; 0xb3c <__fpcmp_parts_f+0xa8>
     b2c:	11 23       	and	r17, r17
     b2e:	19 f0       	breq	.+6      	; 0xb36 <__fpcmp_parts_f+0xa2>
     b30:	61 e0       	ldi	r22, 0x01	; 1
     b32:	70 e0       	ldi	r23, 0x00	; 0
     b34:	05 c0       	rjmp	.+10     	; 0xb40 <__fpcmp_parts_f+0xac>
     b36:	6f ef       	ldi	r22, 0xFF	; 255
     b38:	7f ef       	ldi	r23, 0xFF	; 255
     b3a:	02 c0       	rjmp	.+4      	; 0xb40 <__fpcmp_parts_f+0xac>
     b3c:	60 e0       	ldi	r22, 0x00	; 0
     b3e:	70 e0       	ldi	r23, 0x00	; 0
     b40:	cb 01       	movw	r24, r22
     b42:	1f 91       	pop	r17
     b44:	08 95       	ret

00000b46 <main>:
 * @breaf
 * @return
 */

int main()
{
     b46:	df 93       	push	r29
     b48:	cf 93       	push	r28
     b4a:	cd b7       	in	r28, 0x3d	; 61
     b4c:	de b7       	in	r29, 0x3e	; 62
	 project();
     b4e:	0e 94 f8 1c 	call	0x39f0	; 0x39f0 <project>
     b52:	80 e0       	ldi	r24, 0x00	; 0
     b54:	90 e0       	ldi	r25, 0x00	; 0
}
     b56:	cf 91       	pop	r28
     b58:	df 91       	pop	r29
     b5a:	08 95       	ret

00000b5c <WDT_voidEnable>:
#include "WDT_interface.h"

#define WDT_u8_WDTCR_REG             *((volatile uint8 *)0x41)

void WDT_voidEnable(void)
{
     b5c:	df 93       	push	r29
     b5e:	cf 93       	push	r28
     b60:	cd b7       	in	r28, 0x3d	; 61
     b62:	de b7       	in	r29, 0x3e	; 62
	/* Select Prescaler => 2.1 Sec */
	WDT_u8_WDTCR_REG = 0b00001111;
     b64:	e1 e4       	ldi	r30, 0x41	; 65
     b66:	f0 e0       	ldi	r31, 0x00	; 0
     b68:	8f e0       	ldi	r24, 0x0F	; 15
     b6a:	80 83       	st	Z, r24
}
     b6c:	cf 91       	pop	r28
     b6e:	df 91       	pop	r29
     b70:	08 95       	ret

00000b72 <WDT_voidDisable>:

void WDT_voidDisable(void)
{
     b72:	df 93       	push	r29
     b74:	cf 93       	push	r28
     b76:	cd b7       	in	r28, 0x3d	; 61
     b78:	de b7       	in	r29, 0x3e	; 62
	/* Turn OFF Enable */
	WDT_u8_WDTCR_REG |= (1<<4)|(1<<3);
     b7a:	a1 e4       	ldi	r26, 0x41	; 65
     b7c:	b0 e0       	ldi	r27, 0x00	; 0
     b7e:	e1 e4       	ldi	r30, 0x41	; 65
     b80:	f0 e0       	ldi	r31, 0x00	; 0
     b82:	80 81       	ld	r24, Z
     b84:	88 61       	ori	r24, 0x18	; 24
     b86:	8c 93       	st	X, r24
	
	WDT_u8_WDTCR_REG = 0x00;
     b88:	e1 e4       	ldi	r30, 0x41	; 65
     b8a:	f0 e0       	ldi	r31, 0x00	; 0
     b8c:	10 82       	st	Z, r1
}
     b8e:	cf 91       	pop	r28
     b90:	df 91       	pop	r29
     b92:	08 95       	ret

00000b94 <TIMER1_VoidInit>:


static volatile void (*pointer_IC)(void) = NULL_Ptr  ;

void TIMER1_VoidInit()
{
     b94:	df 93       	push	r29
     b96:	cf 93       	push	r28
     b98:	cd b7       	in	r28, 0x3d	; 61
     b9a:	de b7       	in	r29, 0x3e	; 62
				Set_Bit(TCCR1A,TCCR1A_WGM10);//FAST PWM ICR1
				Set_Bit(TCCR1B,TCCR1B_WGM12);//FAST PWM ICR1
				Set_Bit(TCCR1B,TCCR1B_WGM13);//FAST PWM ICR1

#elif TIMER1_MODE == Fast_PWM_ICR1
				Set_Bit(TCCR1A,TCCR1A_WGM11);//FAST PWM ICR1
     b9c:	af e4       	ldi	r26, 0x4F	; 79
     b9e:	b0 e0       	ldi	r27, 0x00	; 0
     ba0:	ef e4       	ldi	r30, 0x4F	; 79
     ba2:	f0 e0       	ldi	r31, 0x00	; 0
     ba4:	80 81       	ld	r24, Z
     ba6:	82 60       	ori	r24, 0x02	; 2
     ba8:	8c 93       	st	X, r24
				Set_Bit(TCCR1B,TCCR1B_WGM12);//FAST PWM ICR1
     baa:	ae e4       	ldi	r26, 0x4E	; 78
     bac:	b0 e0       	ldi	r27, 0x00	; 0
     bae:	ee e4       	ldi	r30, 0x4E	; 78
     bb0:	f0 e0       	ldi	r31, 0x00	; 0
     bb2:	80 81       	ld	r24, Z
     bb4:	88 60       	ori	r24, 0x08	; 8
     bb6:	8c 93       	st	X, r24
				Set_Bit(TCCR1B,TCCR1B_WGM13);//FAST PWM ICR1
     bb8:	ae e4       	ldi	r26, 0x4E	; 78
     bba:	b0 e0       	ldi	r27, 0x00	; 0
     bbc:	ee e4       	ldi	r30, 0x4E	; 78
     bbe:	f0 e0       	ldi	r31, 0x00	; 0
     bc0:	80 81       	ld	r24, Z
     bc2:	80 61       	ori	r24, 0x10	; 16
     bc4:	8c 93       	st	X, r24

				OCR1AH =Time_On_Value>>Register_Time_On_Shift;
     bc6:	eb e4       	ldi	r30, 0x4B	; 75
     bc8:	f0 e0       	ldi	r31, 0x00	; 0
     bca:	82 e0       	ldi	r24, 0x02	; 2
     bcc:	80 83       	st	Z, r24
				OCR1AL =Time_On_Value;
     bce:	ea e4       	ldi	r30, 0x4A	; 74
     bd0:	f0 e0       	ldi	r31, 0x00	; 0
     bd2:	8e ee       	ldi	r24, 0xEE	; 238
     bd4:	80 83       	st	Z, r24
	#elif TIMER1_PRE == PRE_8
	Set_Bit(TCCR1B,TCCR1B_CS11);

	#elif TIMER1_PRE == PRE_64

	Set_Bit(TCCR1B,TCCR1B_CS10);
     bd6:	ae e4       	ldi	r26, 0x4E	; 78
     bd8:	b0 e0       	ldi	r27, 0x00	; 0
     bda:	ee e4       	ldi	r30, 0x4E	; 78
     bdc:	f0 e0       	ldi	r31, 0x00	; 0
     bde:	80 81       	ld	r24, Z
     be0:	81 60       	ori	r24, 0x01	; 1
     be2:	8c 93       	st	X, r24
	Set_Bit(TCCR1B,TCCR1B_CS11);
     be4:	ae e4       	ldi	r26, 0x4E	; 78
     be6:	b0 e0       	ldi	r27, 0x00	; 0
     be8:	ee e4       	ldi	r30, 0x4E	; 78
     bea:	f0 e0       	ldi	r31, 0x00	; 0
     bec:	80 81       	ld	r24, Z
     bee:	82 60       	ori	r24, 0x02	; 2
     bf0:	8c 93       	st	X, r24
#if   IC_RISING_FALLING == READ_FALLING_IC


#elif IC_RISING_FALLING == READ_RASING_IC

      Set_Bit(TCCR1B,TCCR1B_ICES1);
     bf2:	ae e4       	ldi	r26, 0x4E	; 78
     bf4:	b0 e0       	ldi	r27, 0x00	; 0
     bf6:	ee e4       	ldi	r30, 0x4E	; 78
     bf8:	f0 e0       	ldi	r31, 0x00	; 0
     bfa:	80 81       	ld	r24, Z
     bfc:	80 64       	ori	r24, 0x40	; 64
     bfe:	8c 93       	st	X, r24
#endif
/**************************************************************/

#if PIN_HARDWARE_DIRACTION == OUTPUT

	DDRD_REG |= (1<<PIN_5);    //IN
     c00:	a1 e3       	ldi	r26, 0x31	; 49
     c02:	b0 e0       	ldi	r27, 0x00	; 0
     c04:	e1 e3       	ldi	r30, 0x31	; 49
     c06:	f0 e0       	ldi	r31, 0x00	; 0
     c08:	80 81       	ld	r24, Z
     c0a:	80 62       	ori	r24, 0x20	; 32
     c0c:	8c 93       	st	X, r24

#endif

#if MODE_OF_INVERTAL == Non_invertal_mode

	Set_Bit(TCCR1A,TCCR1A_COM1A1); //Non invertal mode
     c0e:	af e4       	ldi	r26, 0x4F	; 79
     c10:	b0 e0       	ldi	r27, 0x00	; 0
     c12:	ef e4       	ldi	r30, 0x4F	; 79
     c14:	f0 e0       	ldi	r31, 0x00	; 0
     c16:	80 81       	ld	r24, Z
     c18:	80 68       	ori	r24, 0x80	; 128
     c1a:	8c 93       	st	X, r24

#elif TYPE_ISR == ISR_OFF

#endif

}
     c1c:	cf 91       	pop	r28
     c1e:	df 91       	pop	r29
     c20:	08 95       	ret

00000c22 <TIMER1_VoidSetTCNT1>:

void TIMER1_VoidSetTCNT1(uint16 TIMER1_u8CopyTcntVal)
{
     c22:	df 93       	push	r29
     c24:	cf 93       	push	r28
     c26:	00 d0       	rcall	.+0      	; 0xc28 <TIMER1_VoidSetTCNT1+0x6>
     c28:	cd b7       	in	r28, 0x3d	; 61
     c2a:	de b7       	in	r29, 0x3e	; 62
     c2c:	9a 83       	std	Y+2, r25	; 0x02
     c2e:	89 83       	std	Y+1, r24	; 0x01
	TCNT1L = TIMER1_u8CopyTcntVal ;
     c30:	ec e4       	ldi	r30, 0x4C	; 76
     c32:	f0 e0       	ldi	r31, 0x00	; 0
     c34:	89 81       	ldd	r24, Y+1	; 0x01
     c36:	80 83       	st	Z, r24
}
     c38:	0f 90       	pop	r0
     c3a:	0f 90       	pop	r0
     c3c:	cf 91       	pop	r28
     c3e:	df 91       	pop	r29
     c40:	08 95       	ret

00000c42 <TIMER1_VoidClearTCNT1>:

void TIMER1_VoidClearTCNT1()
{
     c42:	df 93       	push	r29
     c44:	cf 93       	push	r28
     c46:	cd b7       	in	r28, 0x3d	; 61
     c48:	de b7       	in	r29, 0x3e	; 62
	TCNT1L = ZERO ;
     c4a:	ec e4       	ldi	r30, 0x4C	; 76
     c4c:	f0 e0       	ldi	r31, 0x00	; 0
     c4e:	10 82       	st	Z, r1
}
     c50:	cf 91       	pop	r28
     c52:	df 91       	pop	r29
     c54:	08 95       	ret

00000c56 <Duty_Cycle1>:


void Duty_Cycle1(uint16 value)
{
     c56:	df 93       	push	r29
     c58:	cf 93       	push	r28
     c5a:	00 d0       	rcall	.+0      	; 0xc5c <Duty_Cycle1+0x6>
     c5c:	cd b7       	in	r28, 0x3d	; 61
     c5e:	de b7       	in	r29, 0x3e	; 62
     c60:	9a 83       	std	Y+2, r25	; 0x02
     c62:	89 83       	std	Y+1, r24	; 0x01

	OCR1AH  = value >> 8;
     c64:	eb e4       	ldi	r30, 0x4B	; 75
     c66:	f0 e0       	ldi	r31, 0x00	; 0
     c68:	89 81       	ldd	r24, Y+1	; 0x01
     c6a:	9a 81       	ldd	r25, Y+2	; 0x02
     c6c:	89 2f       	mov	r24, r25
     c6e:	99 27       	eor	r25, r25
     c70:	80 83       	st	Z, r24
	OCR1AL  = value ;
     c72:	ea e4       	ldi	r30, 0x4A	; 74
     c74:	f0 e0       	ldi	r31, 0x00	; 0
     c76:	89 81       	ldd	r24, Y+1	; 0x01
     c78:	80 83       	st	Z, r24

}
     c7a:	0f 90       	pop	r0
     c7c:	0f 90       	pop	r0
     c7e:	cf 91       	pop	r28
     c80:	df 91       	pop	r29
     c82:	08 95       	ret

00000c84 <TIMER1_ICR1H>:


void TIMER1_ICR1H(int ICR1_H_VALUET)
{
     c84:	df 93       	push	r29
     c86:	cf 93       	push	r28
     c88:	00 d0       	rcall	.+0      	; 0xc8a <TIMER1_ICR1H+0x6>
     c8a:	cd b7       	in	r28, 0x3d	; 61
     c8c:	de b7       	in	r29, 0x3e	; 62
     c8e:	9a 83       	std	Y+2, r25	; 0x02
     c90:	89 83       	std	Y+1, r24	; 0x01
	ICR1H = ICR1_H_VALUET>>Register_Time_On_Shift ; //Value of
     c92:	e7 e4       	ldi	r30, 0x47	; 71
     c94:	f0 e0       	ldi	r31, 0x00	; 0
     c96:	89 81       	ldd	r24, Y+1	; 0x01
     c98:	9a 81       	ldd	r25, Y+2	; 0x02
     c9a:	89 2f       	mov	r24, r25
     c9c:	99 0f       	add	r25, r25
     c9e:	99 0b       	sbc	r25, r25
     ca0:	80 83       	st	Z, r24
	ICR1L = ICR1_H_VALUET ;
     ca2:	e6 e4       	ldi	r30, 0x46	; 70
     ca4:	f0 e0       	ldi	r31, 0x00	; 0
     ca6:	89 81       	ldd	r24, Y+1	; 0x01
     ca8:	80 83       	st	Z, r24

}
     caa:	0f 90       	pop	r0
     cac:	0f 90       	pop	r0
     cae:	cf 91       	pop	r28
     cb0:	df 91       	pop	r29
     cb2:	08 95       	ret

00000cb4 <__vector_6>:
/************************************************************** ISR ****************************************************/


void __vector_6(void) __attribute__((signal)); //IC
void __vector_6(void)
{
     cb4:	1f 92       	push	r1
     cb6:	0f 92       	push	r0
     cb8:	0f b6       	in	r0, 0x3f	; 63
     cba:	0f 92       	push	r0
     cbc:	11 24       	eor	r1, r1
     cbe:	2f 93       	push	r18
     cc0:	3f 93       	push	r19
     cc2:	4f 93       	push	r20
     cc4:	5f 93       	push	r21
     cc6:	6f 93       	push	r22
     cc8:	7f 93       	push	r23
     cca:	8f 93       	push	r24
     ccc:	9f 93       	push	r25
     cce:	af 93       	push	r26
     cd0:	bf 93       	push	r27
     cd2:	ef 93       	push	r30
     cd4:	ff 93       	push	r31
     cd6:	df 93       	push	r29
     cd8:	cf 93       	push	r28
     cda:	cd b7       	in	r28, 0x3d	; 61
     cdc:	de b7       	in	r29, 0x3e	; 62
  if( pointer_IC != NULL_Ptr )
     cde:	80 91 16 01 	lds	r24, 0x0116
     ce2:	90 91 17 01 	lds	r25, 0x0117
     ce6:	00 97       	sbiw	r24, 0x00	; 0
     ce8:	29 f0       	breq	.+10     	; 0xcf4 <__vector_6+0x40>
  {
	  pointer_IC();
     cea:	e0 91 16 01 	lds	r30, 0x0116
     cee:	f0 91 17 01 	lds	r31, 0x0117
     cf2:	09 95       	icall
  }
}
     cf4:	cf 91       	pop	r28
     cf6:	df 91       	pop	r29
     cf8:	ff 91       	pop	r31
     cfa:	ef 91       	pop	r30
     cfc:	bf 91       	pop	r27
     cfe:	af 91       	pop	r26
     d00:	9f 91       	pop	r25
     d02:	8f 91       	pop	r24
     d04:	7f 91       	pop	r23
     d06:	6f 91       	pop	r22
     d08:	5f 91       	pop	r21
     d0a:	4f 91       	pop	r20
     d0c:	3f 91       	pop	r19
     d0e:	2f 91       	pop	r18
     d10:	0f 90       	pop	r0
     d12:	0f be       	out	0x3f, r0	; 63
     d14:	0f 90       	pop	r0
     d16:	1f 90       	pop	r1
     d18:	18 95       	reti

00000d1a <Set_Call_Back_IC>:


void Set_Call_Back_IC(void (*pointer_Call_IC)(void))
{
     d1a:	df 93       	push	r29
     d1c:	cf 93       	push	r28
     d1e:	00 d0       	rcall	.+0      	; 0xd20 <Set_Call_Back_IC+0x6>
     d20:	cd b7       	in	r28, 0x3d	; 61
     d22:	de b7       	in	r29, 0x3e	; 62
     d24:	9a 83       	std	Y+2, r25	; 0x02
     d26:	89 83       	std	Y+1, r24	; 0x01
	pointer_IC = pointer_Call_IC   ;
     d28:	89 81       	ldd	r24, Y+1	; 0x01
     d2a:	9a 81       	ldd	r25, Y+2	; 0x02
     d2c:	90 93 17 01 	sts	0x0117, r25
     d30:	80 93 16 01 	sts	0x0116, r24
}
     d34:	0f 90       	pop	r0
     d36:	0f 90       	pop	r0
     d38:	cf 91       	pop	r28
     d3a:	df 91       	pop	r29
     d3c:	08 95       	ret

00000d3e <Timer1_Fast_PWM_Init>:




void Timer1_Fast_PWM_Init(unsigned short duty_cycle)
{
     d3e:	df 93       	push	r29
     d40:	cf 93       	push	r28
     d42:	00 d0       	rcall	.+0      	; 0xd44 <Timer1_Fast_PWM_Init+0x6>
     d44:	cd b7       	in	r28, 0x3d	; 61
     d46:	de b7       	in	r29, 0x3e	; 62
     d48:	9a 83       	std	Y+2, r25	; 0x02
     d4a:	89 83       	std	Y+1, r24	; 0x01
	TCNT1 = 0;		/* Set timer1 initial count to zero */
     d4c:	ec e4       	ldi	r30, 0x4C	; 76
     d4e:	f0 e0       	ldi	r31, 0x00	; 0
     d50:	11 82       	std	Z+1, r1	; 0x01
     d52:	10 82       	st	Z, r1
	ICR1 = 2499;	/* Set TOP count for timer1 in ICR1 register */
     d54:	e6 e4       	ldi	r30, 0x46	; 70
     d56:	f0 e0       	ldi	r31, 0x00	; 0
     d58:	83 ec       	ldi	r24, 0xC3	; 195
     d5a:	99 e0       	ldi	r25, 0x09	; 9
     d5c:	91 83       	std	Z+1, r25	; 0x01
     d5e:	80 83       	st	Z, r24

	OCR1A = duty_cycle; /* Set the compare value */
     d60:	ea e4       	ldi	r30, 0x4A	; 74
     d62:	f0 e0       	ldi	r31, 0x00	; 0
     d64:	89 81       	ldd	r24, Y+1	; 0x01
     d66:	9a 81       	ldd	r25, Y+2	; 0x02
     d68:	91 83       	std	Z+1, r25	; 0x01
     d6a:	80 83       	st	Z, r24
     * 1. Clear OC1A on compare match (non inverting mode) COM1A1=1 COM1A0=0
     * 2. Disconnect OC1B  COM1B0=0 COM1B1=0
     * 3. FOC1A=0 FOC1B=0 because these bits are only active in case non-pwm mode
     * 4. Fast Pwm Mode with the TOP in ICR1 WGM10=0 WGM11=1 (Mode Number 14)
	 */
	TCCR1A = (1<<WGM11) | (1<<COM1A1);
     d6c:	ef e4       	ldi	r30, 0x4F	; 79
     d6e:	f0 e0       	ldi	r31, 0x00	; 0
     d70:	82 e8       	ldi	r24, 0x82	; 130
     d72:	80 83       	st	Z, r24

	/* Configure timer control register TCCR1A
	 * 1. Fast Pwm Mode with the TOP in ICR1 WGM12=1 WGM13=1 (Mode Number 14)
	 * 2. Prescaler = F_CPU/64
     */
	TCCR1B = (1<<WGM12) | (1<<WGM13) | (1<<CS10) | (1<<CS11);
     d74:	ee e4       	ldi	r30, 0x4E	; 78
     d76:	f0 e0       	ldi	r31, 0x00	; 0
     d78:	8b e1       	ldi	r24, 0x1B	; 27
     d7a:	80 83       	st	Z, r24
}
     d7c:	0f 90       	pop	r0
     d7e:	0f 90       	pop	r0
     d80:	cf 91       	pop	r28
     d82:	df 91       	pop	r29
     d84:	08 95       	ret

00000d86 <TWI_voidInitMaster>:
#include "../include/TWI_interface.h"


/*Set master address to 0 if master will not be addressed*/
void TWI_voidInitMaster(uint8 Copy_u8Address)
{
     d86:	df 93       	push	r29
     d88:	cf 93       	push	r28
     d8a:	0f 92       	push	r0
     d8c:	cd b7       	in	r28, 0x3d	; 61
     d8e:	de b7       	in	r29, 0x3e	; 62
     d90:	89 83       	std	Y+1, r24	; 0x01
	/*Enable Acknowledge bit*/
	 Set_Bit(TWCR_REG,TWCR_REG_TWEA);
     d92:	a6 e5       	ldi	r26, 0x56	; 86
     d94:	b0 e0       	ldi	r27, 0x00	; 0
     d96:	e6 e5       	ldi	r30, 0x56	; 86
     d98:	f0 e0       	ldi	r31, 0x00	; 0
     d9a:	80 81       	ld	r24, Z
     d9c:	80 64       	ori	r24, 0x40	; 64
     d9e:	8c 93       	st	X, r24
	/*Set SCL frequency to x kHz, with 8Mhz clock frequency*/
	/*1- Set TWBR to x*/ // see page 173 TWBR should be 10 or higher
	// /*Set SCL frequency to 400kHz, with 8Mhz system frequency*/
	/*1- Set TWBR to 2*/
	 TWBR_REG = SCL_EQN_TWBR;
     da0:	e0 e2       	ldi	r30, 0x20	; 32
     da2:	f0 e0       	ldi	r31, 0x00	; 0
     da4:	82 e0       	ldi	r24, 0x02	; 2
     da6:	80 83       	st	Z, r24
	/*2- Clear the prescaler bits (TWPS)*/
	 #if TWI_PRE_SCALER	    ==	TWI_1_PRESCALER
	     Clr_Bit(TWSR_REG,TWSR_REG_TWPS0);
     da8:	a1 e2       	ldi	r26, 0x21	; 33
     daa:	b0 e0       	ldi	r27, 0x00	; 0
     dac:	e1 e2       	ldi	r30, 0x21	; 33
     dae:	f0 e0       	ldi	r31, 0x00	; 0
     db0:	80 81       	ld	r24, Z
     db2:	8e 7f       	andi	r24, 0xFE	; 254
     db4:	8c 93       	st	X, r24
	     Clr_Bit(TWSR_REG,TWSR_REG_TWPS1);
     db6:	a1 e2       	ldi	r26, 0x21	; 33
     db8:	b0 e0       	ldi	r27, 0x00	; 0
     dba:	e1 e2       	ldi	r30, 0x21	; 33
     dbc:	f0 e0       	ldi	r31, 0x00	; 0
     dbe:	80 81       	ld	r24, Z
     dc0:	8d 7f       	andi	r24, 0xFD	; 253
     dc2:	8c 93       	st	X, r24
	 #if   MSTR_NODE_ADDRESSING	 ==  MSTR_NODE_NOT_ADDRESSABLE
		
	 #elif MSTR_NODE_ADDRESSING	 ==  MSTR_NODE_ADDRESSABLE
		/*Set the required address in the 7 MSB of TWAR*/
		 //TWAR_REG = (TWAR_REG & 0x01)|(Copy_u8Address);
		 TWAR_REG = Copy_u8Address<<1;
     dc4:	e2 e2       	ldi	r30, 0x22	; 34
     dc6:	f0 e0       	ldi	r31, 0x00	; 0
     dc8:	89 81       	ldd	r24, Y+1	; 0x01
     dca:	88 0f       	add	r24, r24
     dcc:	80 83       	st	Z, r24
	 #endif
	/*Enable TWI*/
	Set_Bit(TWCR_REG,TWCR_REG_TWEN);
     dce:	a6 e5       	ldi	r26, 0x56	; 86
     dd0:	b0 e0       	ldi	r27, 0x00	; 0
     dd2:	e6 e5       	ldi	r30, 0x56	; 86
     dd4:	f0 e0       	ldi	r31, 0x00	; 0
     dd6:	80 81       	ld	r24, Z
     dd8:	84 60       	ori	r24, 0x04	; 4
     dda:	8c 93       	st	X, r24
}
     ddc:	0f 90       	pop	r0
     dde:	cf 91       	pop	r28
     de0:	df 91       	pop	r29
     de2:	08 95       	ret

00000de4 <TWI_voidInitSlave>:

void TWI_voidInitSlave(uint8 Copy_u8Address)
{
     de4:	df 93       	push	r29
     de6:	cf 93       	push	r28
     de8:	0f 92       	push	r0
     dea:	cd b7       	in	r28, 0x3d	; 61
     dec:	de b7       	in	r29, 0x3e	; 62
     dee:	89 83       	std	Y+1, r24	; 0x01
	/*Set the slave address*/
	//TWAR_REG = (TWAR_REG & 0x01)|(Copy_u8Address);
	TWAR_REG = Copy_u8Address<<1;
     df0:	e2 e2       	ldi	r30, 0x22	; 34
     df2:	f0 e0       	ldi	r31, 0x00	; 0
     df4:	89 81       	ldd	r24, Y+1	; 0x01
     df6:	88 0f       	add	r24, r24
     df8:	80 83       	st	Z, r24
	/*Enable Acknowledge bit*/
	Set_Bit(TWCR_REG,TWCR_REG_TWEA);
     dfa:	a6 e5       	ldi	r26, 0x56	; 86
     dfc:	b0 e0       	ldi	r27, 0x00	; 0
     dfe:	e6 e5       	ldi	r30, 0x56	; 86
     e00:	f0 e0       	ldi	r31, 0x00	; 0
     e02:	80 81       	ld	r24, Z
     e04:	80 64       	ori	r24, 0x40	; 64
     e06:	8c 93       	st	X, r24
	/*Enable TWI*/
	Set_Bit(TWCR_REG,TWCR_REG_TWEN);
     e08:	a6 e5       	ldi	r26, 0x56	; 86
     e0a:	b0 e0       	ldi	r27, 0x00	; 0
     e0c:	e6 e5       	ldi	r30, 0x56	; 86
     e0e:	f0 e0       	ldi	r31, 0x00	; 0
     e10:	80 81       	ld	r24, Z
     e12:	84 60       	ori	r24, 0x04	; 4
     e14:	8c 93       	st	X, r24
}
     e16:	0f 90       	pop	r0
     e18:	cf 91       	pop	r28
     e1a:	df 91       	pop	r29
     e1c:	08 95       	ret

00000e1e <TWI_SendStartCondition>:

TWI_ErrorStatus TWI_SendStartCondition(void)
{
     e1e:	df 93       	push	r29
     e20:	cf 93       	push	r28
     e22:	0f 92       	push	r0
     e24:	cd b7       	in	r28, 0x3d	; 61
     e26:	de b7       	in	r29, 0x3e	; 62
	TWI_ErrorStatus Local_Error= NoError;
     e28:	19 82       	std	Y+1, r1	; 0x01
	/*set Send start condition bit*/
	 Set_Bit(TWCR_REG,TWCR_REG_TWSTA);
     e2a:	a6 e5       	ldi	r26, 0x56	; 86
     e2c:	b0 e0       	ldi	r27, 0x00	; 0
     e2e:	e6 e5       	ldi	r30, 0x56	; 86
     e30:	f0 e0       	ldi	r31, 0x00	; 0
     e32:	80 81       	ld	r24, Z
     e34:	80 62       	ori	r24, 0x20	; 32
     e36:	8c 93       	st	X, r24
	/*Clear the interrupt flag that is was set to start the previous operation*/
	  Set_Bit(TWCR_REG,TWCR_REG_TWINT);	  // cleared by setting the bit
     e38:	a6 e5       	ldi	r26, 0x56	; 86
     e3a:	b0 e0       	ldi	r27, 0x00	; 0
     e3c:	e6 e5       	ldi	r30, 0x56	; 86
     e3e:	f0 e0       	ldi	r31, 0x00	; 0
     e40:	80 81       	ld	r24, Z
     e42:	80 68       	ori	r24, 0x80	; 128
     e44:	8c 93       	st	X, r24
	/*wait until the operation finishes and the flag is raised*/
	 while(Get_Bit(TWCR_REG,TWCR_REG_TWINT)==0);
     e46:	e6 e5       	ldi	r30, 0x56	; 86
     e48:	f0 e0       	ldi	r31, 0x00	; 0
     e4a:	80 81       	ld	r24, Z
     e4c:	88 23       	and	r24, r24
     e4e:	dc f7       	brge	.-10     	; 0xe46 <TWI_SendStartCondition+0x28>
	/*Check the operation status*/
	if((TWSR_REG & 0xF8) != START_ACK )
     e50:	e1 e2       	ldi	r30, 0x21	; 33
     e52:	f0 e0       	ldi	r31, 0x00	; 0
     e54:	80 81       	ld	r24, Z
     e56:	88 2f       	mov	r24, r24
     e58:	90 e0       	ldi	r25, 0x00	; 0
     e5a:	88 7f       	andi	r24, 0xF8	; 248
     e5c:	90 70       	andi	r25, 0x00	; 0
     e5e:	88 30       	cpi	r24, 0x08	; 8
     e60:	91 05       	cpc	r25, r1
     e62:	11 f0       	breq	.+4      	; 0xe68 <TWI_SendStartCondition+0x4a>
	{
		Local_Error = StartConditionError;
     e64:	81 e0       	ldi	r24, 0x01	; 1
     e66:	89 83       	std	Y+1, r24	; 0x01
	{
		/*Do nothing*/
		/* start has been sent */
	}
	 //Clr_Bit(TWCR_REG,TWCR_REG_TWSTA);
	return Local_Error;
     e68:	89 81       	ldd	r24, Y+1	; 0x01
}
     e6a:	0f 90       	pop	r0
     e6c:	cf 91       	pop	r28
     e6e:	df 91       	pop	r29
     e70:	08 95       	ret

00000e72 <TWI_SendRepeatedStart>:

TWI_ErrorStatus TWI_SendRepeatedStart(void)
{
     e72:	df 93       	push	r29
     e74:	cf 93       	push	r28
     e76:	0f 92       	push	r0
     e78:	cd b7       	in	r28, 0x3d	; 61
     e7a:	de b7       	in	r29, 0x3e	; 62
	TWI_ErrorStatus Local_Error= NoError;
     e7c:	19 82       	std	Y+1, r1	; 0x01
	/*Send start condition*/
	 Set_Bit(TWCR_REG,TWCR_REG_TWSTA);
     e7e:	a6 e5       	ldi	r26, 0x56	; 86
     e80:	b0 e0       	ldi	r27, 0x00	; 0
     e82:	e6 e5       	ldi	r30, 0x56	; 86
     e84:	f0 e0       	ldi	r31, 0x00	; 0
     e86:	80 81       	ld	r24, Z
     e88:	80 62       	ori	r24, 0x20	; 32
     e8a:	8c 93       	st	X, r24
	/*Clear the interrupt flag to start the previous operation*/
	Set_Bit(TWCR_REG,TWCR_REG_TWINT);	  // cleared by setting the bit
     e8c:	a6 e5       	ldi	r26, 0x56	; 86
     e8e:	b0 e0       	ldi	r27, 0x00	; 0
     e90:	e6 e5       	ldi	r30, 0x56	; 86
     e92:	f0 e0       	ldi	r31, 0x00	; 0
     e94:	80 81       	ld	r24, Z
     e96:	80 68       	ori	r24, 0x80	; 128
     e98:	8c 93       	st	X, r24
	/*wait until the operation finishes and the flag is raised*/
	while(Get_Bit(TWCR_REG,TWCR_REG_TWINT)==0);
     e9a:	e6 e5       	ldi	r30, 0x56	; 86
     e9c:	f0 e0       	ldi	r31, 0x00	; 0
     e9e:	80 81       	ld	r24, Z
     ea0:	88 23       	and	r24, r24
     ea2:	dc f7       	brge	.-10     	; 0xe9a <TWI_SendRepeatedStart+0x28>
	/*Check the operation status*/
	if((TWSR_REG & 0xF8) != REP_START_ACK )
     ea4:	e1 e2       	ldi	r30, 0x21	; 33
     ea6:	f0 e0       	ldi	r31, 0x00	; 0
     ea8:	80 81       	ld	r24, Z
     eaa:	88 2f       	mov	r24, r24
     eac:	90 e0       	ldi	r25, 0x00	; 0
     eae:	88 7f       	andi	r24, 0xF8	; 248
     eb0:	90 70       	andi	r25, 0x00	; 0
     eb2:	80 31       	cpi	r24, 0x10	; 16
     eb4:	91 05       	cpc	r25, r1
     eb6:	11 f0       	breq	.+4      	; 0xebc <TWI_SendRepeatedStart+0x4a>
	{
		Local_Error = RepeatedStartError;
     eb8:	82 e0       	ldi	r24, 0x02	; 2
     eba:	89 83       	std	Y+1, r24	; 0x01
	else
	{
		/*Do nothing*/
	}

	return Local_Error;
     ebc:	89 81       	ldd	r24, Y+1	; 0x01
}
     ebe:	0f 90       	pop	r0
     ec0:	cf 91       	pop	r28
     ec2:	df 91       	pop	r29
     ec4:	08 95       	ret

00000ec6 <TWI_SendSlaveAddressWithWrite>:

TWI_ErrorStatus TWI_SendSlaveAddressWithWrite(uint8 Copy_u8SlaveAddress)
{
     ec6:	df 93       	push	r29
     ec8:	cf 93       	push	r28
     eca:	00 d0       	rcall	.+0      	; 0xecc <TWI_SendSlaveAddressWithWrite+0x6>
     ecc:	cd b7       	in	r28, 0x3d	; 61
     ece:	de b7       	in	r29, 0x3e	; 62
     ed0:	8a 83       	std	Y+2, r24	; 0x02
	TWI_ErrorStatus Local_Error= NoError;
     ed2:	19 82       	std	Y+1, r1	; 0x01
	/*send the 7bit slave address to the bus*/
	//TWDR_REG = Copy_u8SlaveAddress | 0x00;
	TWDR_REG = Copy_u8SlaveAddress <<1 ;
     ed4:	e3 e2       	ldi	r30, 0x23	; 35
     ed6:	f0 e0       	ldi	r31, 0x00	; 0
     ed8:	8a 81       	ldd	r24, Y+2	; 0x02
     eda:	88 0f       	add	r24, r24
     edc:	80 83       	st	Z, r24

	/*set the write request in the LSB in the data register*/
	  Clr_Bit(TWDR_REG,0);/* Master transmit ( slave address + Write request ) ACK */
     ede:	a3 e2       	ldi	r26, 0x23	; 35
     ee0:	b0 e0       	ldi	r27, 0x00	; 0
     ee2:	e3 e2       	ldi	r30, 0x23	; 35
     ee4:	f0 e0       	ldi	r31, 0x00	; 0
     ee6:	80 81       	ld	r24, Z
     ee8:	8e 7f       	andi	r24, 0xFE	; 254
     eea:	8c 93       	st	X, r24
	/*Clear the start condition bit*/
	  Clr_Bit(TWCR_REG,TWCR_REG_TWSTA);
     eec:	a6 e5       	ldi	r26, 0x56	; 86
     eee:	b0 e0       	ldi	r27, 0x00	; 0
     ef0:	e6 e5       	ldi	r30, 0x56	; 86
     ef2:	f0 e0       	ldi	r31, 0x00	; 0
     ef4:	80 81       	ld	r24, Z
     ef6:	8f 7d       	andi	r24, 0xDF	; 223
     ef8:	8c 93       	st	X, r24
	/*Clear the interrupt flag to start the previous operation*/
	  Set_Bit(TWCR_REG,TWCR_REG_TWINT);	  // cleared by setting the bit
     efa:	a6 e5       	ldi	r26, 0x56	; 86
     efc:	b0 e0       	ldi	r27, 0x00	; 0
     efe:	e6 e5       	ldi	r30, 0x56	; 86
     f00:	f0 e0       	ldi	r31, 0x00	; 0
     f02:	80 81       	ld	r24, Z
     f04:	80 68       	ori	r24, 0x80	; 128
     f06:	8c 93       	st	X, r24
	/*wait until the operation finishes and the flag is raised*/
	  while(Get_Bit(TWCR_REG,TWCR_REG_TWINT) ==0);
     f08:	e6 e5       	ldi	r30, 0x56	; 86
     f0a:	f0 e0       	ldi	r31, 0x00	; 0
     f0c:	80 81       	ld	r24, Z
     f0e:	88 23       	and	r24, r24
     f10:	dc f7       	brge	.-10     	; 0xf08 <TWI_SendSlaveAddressWithWrite+0x42>
	/*Check the operation status*/
		  

	if((TWSR_REG & 0xF8) != SLAVE_ADD_AND_WR_ACK )
     f12:	e1 e2       	ldi	r30, 0x21	; 33
     f14:	f0 e0       	ldi	r31, 0x00	; 0
     f16:	80 81       	ld	r24, Z
     f18:	88 2f       	mov	r24, r24
     f1a:	90 e0       	ldi	r25, 0x00	; 0
     f1c:	88 7f       	andi	r24, 0xF8	; 248
     f1e:	90 70       	andi	r25, 0x00	; 0
     f20:	88 31       	cpi	r24, 0x18	; 24
     f22:	91 05       	cpc	r25, r1
     f24:	11 f0       	breq	.+4      	; 0xf2a <TWI_SendSlaveAddressWithWrite+0x64>
	{
		Local_Error = SlaveAddressWithWriteError;
     f26:	83 e0       	ldi	r24, 0x03	; 3
     f28:	89 83       	std	Y+1, r24	; 0x01
	}
	else
	{
		/*Do nothing*/
	}
	return Local_Error;
     f2a:	89 81       	ldd	r24, Y+1	; 0x01
}
     f2c:	0f 90       	pop	r0
     f2e:	0f 90       	pop	r0
     f30:	cf 91       	pop	r28
     f32:	df 91       	pop	r29
     f34:	08 95       	ret

00000f36 <TWI_SendSlaveAddressWithRead>:

TWI_ErrorStatus TWI_SendSlaveAddressWithRead(uint8 Copy_u8SlaveAddress)
{
     f36:	df 93       	push	r29
     f38:	cf 93       	push	r28
     f3a:	00 d0       	rcall	.+0      	; 0xf3c <TWI_SendSlaveAddressWithRead+0x6>
     f3c:	cd b7       	in	r28, 0x3d	; 61
     f3e:	de b7       	in	r29, 0x3e	; 62
     f40:	8a 83       	std	Y+2, r24	; 0x02
	TWI_ErrorStatus Local_Error= NoError;
     f42:	19 82       	std	Y+1, r1	; 0x01
	/*send the 7bit slave address to the bus*/
	TWDR_REG = Copy_u8SlaveAddress <<1;
     f44:	e3 e2       	ldi	r30, 0x23	; 35
     f46:	f0 e0       	ldi	r31, 0x00	; 0
     f48:	8a 81       	ldd	r24, Y+2	; 0x02
     f4a:	88 0f       	add	r24, r24
     f4c:	80 83       	st	Z, r24

	/*set the write request in the LSB in the data register*/
	Set_Bit(TWDR_REG,0);/* Master transmit ( slave address + Write request ) ACK */
     f4e:	a3 e2       	ldi	r26, 0x23	; 35
     f50:	b0 e0       	ldi	r27, 0x00	; 0
     f52:	e3 e2       	ldi	r30, 0x23	; 35
     f54:	f0 e0       	ldi	r31, 0x00	; 0
     f56:	80 81       	ld	r24, Z
     f58:	81 60       	ori	r24, 0x01	; 1
     f5a:	8c 93       	st	X, r24
	/*Clear the start condition bit*/
	  Clr_Bit(TWCR_REG,TWCR_REG_TWSTA);
     f5c:	a6 e5       	ldi	r26, 0x56	; 86
     f5e:	b0 e0       	ldi	r27, 0x00	; 0
     f60:	e6 e5       	ldi	r30, 0x56	; 86
     f62:	f0 e0       	ldi	r31, 0x00	; 0
     f64:	80 81       	ld	r24, Z
     f66:	8f 7d       	andi	r24, 0xDF	; 223
     f68:	8c 93       	st	X, r24
	/*Clear the interrupt flag to start the previous operation*/
	  Set_Bit(TWCR_REG,TWCR_REG_TWINT);	  // cleared by setting the bit
     f6a:	a6 e5       	ldi	r26, 0x56	; 86
     f6c:	b0 e0       	ldi	r27, 0x00	; 0
     f6e:	e6 e5       	ldi	r30, 0x56	; 86
     f70:	f0 e0       	ldi	r31, 0x00	; 0
     f72:	80 81       	ld	r24, Z
     f74:	80 68       	ori	r24, 0x80	; 128
     f76:	8c 93       	st	X, r24
	/*wait until the operation finishes and the flag is raised*/
	  while(Get_Bit(TWCR_REG,TWCR_REG_TWINT)==0);
     f78:	e6 e5       	ldi	r30, 0x56	; 86
     f7a:	f0 e0       	ldi	r31, 0x00	; 0
     f7c:	80 81       	ld	r24, Z
     f7e:	88 23       	and	r24, r24
     f80:	dc f7       	brge	.-10     	; 0xf78 <TWI_SendSlaveAddressWithRead+0x42>
	/*Check the operation status*/
	if((TWSR_REG & 0xF8) != SLAVE_ADD_AND_RD_ACK )
     f82:	e1 e2       	ldi	r30, 0x21	; 33
     f84:	f0 e0       	ldi	r31, 0x00	; 0
     f86:	80 81       	ld	r24, Z
     f88:	88 2f       	mov	r24, r24
     f8a:	90 e0       	ldi	r25, 0x00	; 0
     f8c:	88 7f       	andi	r24, 0xF8	; 248
     f8e:	90 70       	andi	r25, 0x00	; 0
     f90:	80 34       	cpi	r24, 0x40	; 64
     f92:	91 05       	cpc	r25, r1
     f94:	11 f0       	breq	.+4      	; 0xf9a <TWI_SendSlaveAddressWithRead+0x64>
	{
		Local_Error = SlaveAddressWithReadError;
     f96:	84 e0       	ldi	r24, 0x04	; 4
     f98:	89 83       	std	Y+1, r24	; 0x01
	else
	{
		/*Do nothing*/
	}

	return Local_Error;
     f9a:	89 81       	ldd	r24, Y+1	; 0x01
}
     f9c:	0f 90       	pop	r0
     f9e:	0f 90       	pop	r0
     fa0:	cf 91       	pop	r28
     fa2:	df 91       	pop	r29
     fa4:	08 95       	ret

00000fa6 <TWI_MasterWriteDataByte>:

TWI_ErrorStatus TWI_MasterWriteDataByte(uint8 Copy_u8DataByte)
{
     fa6:	df 93       	push	r29
     fa8:	cf 93       	push	r28
     faa:	00 d0       	rcall	.+0      	; 0xfac <TWI_MasterWriteDataByte+0x6>
     fac:	cd b7       	in	r28, 0x3d	; 61
     fae:	de b7       	in	r29, 0x3e	; 62
     fb0:	8a 83       	std	Y+2, r24	; 0x02
	TWI_ErrorStatus Local_Error= NoError;
     fb2:	19 82       	std	Y+1, r1	; 0x01
	/*Write the data byte on the bus*/
	  TWDR_REG = Copy_u8DataByte;
     fb4:	e3 e2       	ldi	r30, 0x23	; 35
     fb6:	f0 e0       	ldi	r31, 0x00	; 0
     fb8:	8a 81       	ldd	r24, Y+2	; 0x02
     fba:	80 83       	st	Z, r24
	/*Clear the interrupt flag to start the previous operation*/
	  Set_Bit(TWCR_REG,TWCR_REG_TWINT);	  // cleared by setting the bit
     fbc:	a6 e5       	ldi	r26, 0x56	; 86
     fbe:	b0 e0       	ldi	r27, 0x00	; 0
     fc0:	e6 e5       	ldi	r30, 0x56	; 86
     fc2:	f0 e0       	ldi	r31, 0x00	; 0
     fc4:	80 81       	ld	r24, Z
     fc6:	80 68       	ori	r24, 0x80	; 128
     fc8:	8c 93       	st	X, r24
	/*wait until the operation finishes and the flag is raised*/
	  while(Get_Bit(TWCR_REG,TWCR_REG_TWINT)==0);
     fca:	e6 e5       	ldi	r30, 0x56	; 86
     fcc:	f0 e0       	ldi	r31, 0x00	; 0
     fce:	80 81       	ld	r24, Z
     fd0:	88 23       	and	r24, r24
     fd2:	dc f7       	brge	.-10     	; 0xfca <TWI_MasterWriteDataByte+0x24>
	  
	/*Check the operation status*/
	if((TWSR_REG & 0xF8) !=  MSTR_WR_BYTE_ACK)
     fd4:	e1 e2       	ldi	r30, 0x21	; 33
     fd6:	f0 e0       	ldi	r31, 0x00	; 0
     fd8:	80 81       	ld	r24, Z
     fda:	88 2f       	mov	r24, r24
     fdc:	90 e0       	ldi	r25, 0x00	; 0
     fde:	88 7f       	andi	r24, 0xF8	; 248
     fe0:	90 70       	andi	r25, 0x00	; 0
     fe2:	88 32       	cpi	r24, 0x28	; 40
     fe4:	91 05       	cpc	r25, r1
     fe6:	11 f0       	breq	.+4      	; 0xfec <TWI_MasterWriteDataByte+0x46>
	{
		Local_Error = MasterWriteByteError;
     fe8:	85 e0       	ldi	r24, 0x05	; 5
     fea:	89 83       	std	Y+1, r24	; 0x01
	else
	{
		/*Do nothing*/
	}

	return Local_Error;
     fec:	89 81       	ldd	r24, Y+1	; 0x01
}
     fee:	0f 90       	pop	r0
     ff0:	0f 90       	pop	r0
     ff2:	cf 91       	pop	r28
     ff4:	df 91       	pop	r29
     ff6:	08 95       	ret

00000ff8 <TWI_MasterReadDataByte>:

TWI_ErrorStatus TWI_MasterReadDataByte(uint8* Copy_pu8DataByte)
{
     ff8:	df 93       	push	r29
     ffa:	cf 93       	push	r28
     ffc:	00 d0       	rcall	.+0      	; 0xffe <TWI_MasterReadDataByte+0x6>
     ffe:	0f 92       	push	r0
    1000:	cd b7       	in	r28, 0x3d	; 61
    1002:	de b7       	in	r29, 0x3e	; 62
    1004:	9b 83       	std	Y+3, r25	; 0x03
    1006:	8a 83       	std	Y+2, r24	; 0x02
	TWI_ErrorStatus Local_Error= NoError;
    1008:	19 82       	std	Y+1, r1	; 0x01
	/*Clear the interrupt flag to allow the slave send the data*/
	  Set_Bit(TWCR_REG,TWCR_REG_TWINT);	  // cleared by setting the bit
    100a:	a6 e5       	ldi	r26, 0x56	; 86
    100c:	b0 e0       	ldi	r27, 0x00	; 0
    100e:	e6 e5       	ldi	r30, 0x56	; 86
    1010:	f0 e0       	ldi	r31, 0x00	; 0
    1012:	80 81       	ld	r24, Z
    1014:	80 68       	ori	r24, 0x80	; 128
    1016:	8c 93       	st	X, r24
	/*wait until the operation finishes and the flag is raised*/
	  while(Get_Bit(TWCR_REG,TWCR_REG_TWINT)==0);
    1018:	e6 e5       	ldi	r30, 0x56	; 86
    101a:	f0 e0       	ldi	r31, 0x00	; 0
    101c:	80 81       	ld	r24, Z
    101e:	88 23       	and	r24, r24
    1020:	dc f7       	brge	.-10     	; 0x1018 <TWI_MasterReadDataByte+0x20>
	/*Check the operation status*/
	if((TWSR_REG & 0xF8) !=  MSTR_RD_BYTE_WITH_ACK)
    1022:	e1 e2       	ldi	r30, 0x21	; 33
    1024:	f0 e0       	ldi	r31, 0x00	; 0
    1026:	80 81       	ld	r24, Z
    1028:	88 2f       	mov	r24, r24
    102a:	90 e0       	ldi	r25, 0x00	; 0
    102c:	88 7f       	andi	r24, 0xF8	; 248
    102e:	90 70       	andi	r25, 0x00	; 0
    1030:	80 35       	cpi	r24, 0x50	; 80
    1032:	91 05       	cpc	r25, r1
    1034:	19 f0       	breq	.+6      	; 0x103c <TWI_MasterReadDataByte+0x44>
	{
		Local_Error = MasterReadByteError;
    1036:	86 e0       	ldi	r24, 0x06	; 6
    1038:	89 83       	std	Y+1, r24	; 0x01
    103a:	06 c0       	rjmp	.+12     	; 0x1048 <TWI_MasterReadDataByte+0x50>
	}
	else
	{
		/*Read the received data*/
		*Copy_pu8DataByte = TWDR_REG;
    103c:	e3 e2       	ldi	r30, 0x23	; 35
    103e:	f0 e0       	ldi	r31, 0x00	; 0
    1040:	80 81       	ld	r24, Z
    1042:	ea 81       	ldd	r30, Y+2	; 0x02
    1044:	fb 81       	ldd	r31, Y+3	; 0x03
    1046:	80 83       	st	Z, r24
	}

	return Local_Error;
    1048:	89 81       	ldd	r24, Y+1	; 0x01
}
    104a:	0f 90       	pop	r0
    104c:	0f 90       	pop	r0
    104e:	0f 90       	pop	r0
    1050:	cf 91       	pop	r28
    1052:	df 91       	pop	r29
    1054:	08 95       	ret

00001056 <TWI_SlaveReadDataByte>:
TWI_ErrorStatus TWI_SlaveReadDataByte(uint8* Copy_pu8DataByte)
{
    1056:	df 93       	push	r29
    1058:	cf 93       	push	r28
    105a:	00 d0       	rcall	.+0      	; 0x105c <TWI_SlaveReadDataByte+0x6>
    105c:	0f 92       	push	r0
    105e:	cd b7       	in	r28, 0x3d	; 61
    1060:	de b7       	in	r29, 0x3e	; 62
    1062:	9b 83       	std	Y+3, r25	; 0x03
    1064:	8a 83       	std	Y+2, r24	; 0x02
	TWI_ErrorStatus Local_Error= NoError;
    1066:	19 82       	std	Y+1, r1	; 0x01
	/*Clear the interrupt flag to allow the slave send the data*/
	Set_Bit(TWCR_REG,TWCR_REG_TWINT);	  // cleared by setting the bit
    1068:	a6 e5       	ldi	r26, 0x56	; 86
    106a:	b0 e0       	ldi	r27, 0x00	; 0
    106c:	e6 e5       	ldi	r30, 0x56	; 86
    106e:	f0 e0       	ldi	r31, 0x00	; 0
    1070:	80 81       	ld	r24, Z
    1072:	80 68       	ori	r24, 0x80	; 128
    1074:	8c 93       	st	X, r24
	/*wait until the operation finishes and the flag is raised*/
	while(!Get_Bit(TWCR_REG,TWCR_REG_TWINT));
    1076:	e6 e5       	ldi	r30, 0x56	; 86
    1078:	f0 e0       	ldi	r31, 0x00	; 0
    107a:	80 81       	ld	r24, Z
    107c:	88 23       	and	r24, r24
    107e:	dc f7       	brge	.-10     	; 0x1076 <TWI_SlaveReadDataByte+0x20>
	/*Check the operation status*/
	if((TWSR_REG & 0xF8) !=  MSTR_RD_BYTE_WITH_ACK)
    1080:	e1 e2       	ldi	r30, 0x21	; 33
    1082:	f0 e0       	ldi	r31, 0x00	; 0
    1084:	80 81       	ld	r24, Z
    1086:	88 2f       	mov	r24, r24
    1088:	90 e0       	ldi	r25, 0x00	; 0
    108a:	88 7f       	andi	r24, 0xF8	; 248
    108c:	90 70       	andi	r25, 0x00	; 0
    108e:	80 35       	cpi	r24, 0x50	; 80
    1090:	91 05       	cpc	r25, r1
    1092:	19 f0       	breq	.+6      	; 0x109a <TWI_SlaveReadDataByte+0x44>
	{
		Local_Error = MasterReadByteError;
    1094:	86 e0       	ldi	r24, 0x06	; 6
    1096:	89 83       	std	Y+1, r24	; 0x01
    1098:	06 c0       	rjmp	.+12     	; 0x10a6 <TWI_SlaveReadDataByte+0x50>
	}
	else
	{
		/*Read the received data*/
		*Copy_pu8DataByte = TWDR_REG;
    109a:	e3 e2       	ldi	r30, 0x23	; 35
    109c:	f0 e0       	ldi	r31, 0x00	; 0
    109e:	80 81       	ld	r24, Z
    10a0:	ea 81       	ldd	r30, Y+2	; 0x02
    10a2:	fb 81       	ldd	r31, Y+3	; 0x03
    10a4:	80 83       	st	Z, r24
	}

	return Local_Error;
    10a6:	89 81       	ldd	r24, Y+1	; 0x01
}
    10a8:	0f 90       	pop	r0
    10aa:	0f 90       	pop	r0
    10ac:	0f 90       	pop	r0
    10ae:	cf 91       	pop	r28
    10b0:	df 91       	pop	r29
    10b2:	08 95       	ret

000010b4 <TWI_SendStopCondition>:
void TWI_SendStopCondition(void)
{	 
    10b4:	df 93       	push	r29
    10b6:	cf 93       	push	r28
    10b8:	cd b7       	in	r28, 0x3d	; 61
    10ba:	de b7       	in	r29, 0x3e	; 62
	/*Send a stop condition on the bus*/
	 Set_Bit(TWCR_REG,TWCR_REG_TWSTO);
    10bc:	a6 e5       	ldi	r26, 0x56	; 86
    10be:	b0 e0       	ldi	r27, 0x00	; 0
    10c0:	e6 e5       	ldi	r30, 0x56	; 86
    10c2:	f0 e0       	ldi	r31, 0x00	; 0
    10c4:	80 81       	ld	r24, Z
    10c6:	80 61       	ori	r24, 0x10	; 16
    10c8:	8c 93       	st	X, r24
	/*Clear the interrupt flag to start the previous operation*/
	  Set_Bit(TWCR_REG,TWCR_REG_TWINT);	  // cleared by setting the bit
    10ca:	a6 e5       	ldi	r26, 0x56	; 86
    10cc:	b0 e0       	ldi	r27, 0x00	; 0
    10ce:	e6 e5       	ldi	r30, 0x56	; 86
    10d0:	f0 e0       	ldi	r31, 0x00	; 0
    10d2:	80 81       	ld	r24, Z
    10d4:	80 68       	ori	r24, 0x80	; 128
    10d6:	8c 93       	st	X, r24
}
    10d8:	cf 91       	pop	r28
    10da:	df 91       	pop	r29
    10dc:	08 95       	ret

000010de <GIE_VoidEnable>:
#include "../../../MCAL/DIO/Header/Dio_Interface.h"
#include "../Header/GIE_Interface.h"
#include "../Header/GIE_Private.h"

void GIE_VoidEnable()
{
    10de:	df 93       	push	r29
    10e0:	cf 93       	push	r28
    10e2:	cd b7       	in	r28, 0x3d	; 61
    10e4:	de b7       	in	r29, 0x3e	; 62
	GIE_SREG |=  (1<<GIE_SREG_I) ;
    10e6:	af e5       	ldi	r26, 0x5F	; 95
    10e8:	b0 e0       	ldi	r27, 0x00	; 0
    10ea:	ef e5       	ldi	r30, 0x5F	; 95
    10ec:	f0 e0       	ldi	r31, 0x00	; 0
    10ee:	80 81       	ld	r24, Z
    10f0:	80 68       	ori	r24, 0x80	; 128
    10f2:	8c 93       	st	X, r24

}
    10f4:	cf 91       	pop	r28
    10f6:	df 91       	pop	r29
    10f8:	08 95       	ret

000010fa <GIE_VoidDisable>:
void GIE_VoidDisable()
{
    10fa:	df 93       	push	r29
    10fc:	cf 93       	push	r28
    10fe:	cd b7       	in	r28, 0x3d	; 61
    1100:	de b7       	in	r29, 0x3e	; 62
	GIE_SREG &=~ (1<<GIE_SREG_I) ;
    1102:	af e5       	ldi	r26, 0x5F	; 95
    1104:	b0 e0       	ldi	r27, 0x00	; 0
    1106:	ef e5       	ldi	r30, 0x5F	; 95
    1108:	f0 e0       	ldi	r31, 0x00	; 0
    110a:	80 81       	ld	r24, Z
    110c:	8f 77       	andi	r24, 0x7F	; 127
    110e:	8c 93       	st	X, r24
}
    1110:	cf 91       	pop	r28
    1112:	df 91       	pop	r29
    1114:	08 95       	ret

00001116 <EXT_INT_Void_INT0_Init>:
#include "../include/INTERRUPTS_interface.h"
#include "../../GIE/Header/GIE_Interface.h"
#include "../../../SERVICE/Bit_Math.h"

void EXT_INT_Void_INT0_Init(void)
{					  
    1116:	df 93       	push	r29
    1118:	cf 93       	push	r28
    111a:	cd b7       	in	r28, 0x3d	; 61
    111c:	de b7       	in	r29, 0x3e	; 62
	/*1* SELECTING SENSE CONTROL MODE***/
	#if   INT0_SENSE_MODE == LOW_LEVEL     
	    Clr_Bit(EXT_MCUCR_REG,MCUCR_ISC00);
    111e:	a5 e5       	ldi	r26, 0x55	; 85
    1120:	b0 e0       	ldi	r27, 0x00	; 0
    1122:	e5 e5       	ldi	r30, 0x55	; 85
    1124:	f0 e0       	ldi	r31, 0x00	; 0
    1126:	80 81       	ld	r24, Z
    1128:	8e 7f       	andi	r24, 0xFE	; 254
    112a:	8c 93       	st	X, r24
	    Clr_Bit(EXT_MCUCR_REG,MCUCR_ISC01);
    112c:	a5 e5       	ldi	r26, 0x55	; 85
    112e:	b0 e0       	ldi	r27, 0x00	; 0
    1130:	e5 e5       	ldi	r30, 0x55	; 85
    1132:	f0 e0       	ldi	r31, 0x00	; 0
    1134:	80 81       	ld	r24, Z
    1136:	8d 7f       	andi	r24, 0xFD	; 253
    1138:	8c 93       	st	X, r24
	#else
		#error "Error: WRONG INT0_SENSE_MODE Configuration option"
	#endif
	/*2*Check peripheral  interrupt enable initial state*/
	#if   EXT_INT0_STATE == EXT_ENABLED			// Enable external interrupt pin INT0
		Set_Bit(EXT_GICR_REG, GICR_INT0 );
    113a:	ab e5       	ldi	r26, 0x5B	; 91
    113c:	b0 e0       	ldi	r27, 0x00	; 0
    113e:	eb e5       	ldi	r30, 0x5B	; 91
    1140:	f0 e0       	ldi	r31, 0x00	; 0
    1142:	80 81       	ld	r24, Z
    1144:	80 64       	ori	r24, 0x40	; 64
    1146:	8c 93       	st	X, r24
	#elif EXT_INT0_STATE == EXT_DISABLED		// Disable external interrupt pin INT0
		Clr_Bit(EXT_GICR_REG, GICR_INT0 );
	#else
		#error "Error: WRONG EXT_INT0_STATE Configuration option"
	#endif
}
    1148:	cf 91       	pop	r28
    114a:	df 91       	pop	r29
    114c:	08 95       	ret

0000114e <EXT_INT_Void_INT1_Init>:

void EXT_INT_Void_INT1_Init(void)
{
    114e:	df 93       	push	r29
    1150:	cf 93       	push	r28
    1152:	cd b7       	in	r28, 0x3d	; 61
    1154:	de b7       	in	r29, 0x3e	; 62
	/*1* SELECTING SENSE CONTROL MODE***/
	#if   INT1_SENSE_MODE == LOW_LEVEL
	Clr_Bit(EXT_MCUCR_REG,MCUCR_ISC10);
    1156:	a5 e5       	ldi	r26, 0x55	; 85
    1158:	b0 e0       	ldi	r27, 0x00	; 0
    115a:	e5 e5       	ldi	r30, 0x55	; 85
    115c:	f0 e0       	ldi	r31, 0x00	; 0
    115e:	80 81       	ld	r24, Z
    1160:	8b 7f       	andi	r24, 0xFB	; 251
    1162:	8c 93       	st	X, r24
	Clr_Bit(EXT_MCUCR_REG,MCUCR_ISC11);
    1164:	a5 e5       	ldi	r26, 0x55	; 85
    1166:	b0 e0       	ldi	r27, 0x00	; 0
    1168:	e5 e5       	ldi	r30, 0x55	; 85
    116a:	f0 e0       	ldi	r31, 0x00	; 0
    116c:	80 81       	ld	r24, Z
    116e:	87 7f       	andi	r24, 0xF7	; 247
    1170:	8c 93       	st	X, r24
		#error "Error: WRONG INT1_SENSE_MODE Configuration option"
	#endif
	
	/*2*Check peripheral  interrupt enable initial state*/
	#if   EXT_INT1_STATE == EXT_ENABLED
	Set_Bit(EXT_GICR_REG, GICR_INT1 );		// Enable external interrupt pin INT1
    1172:	ab e5       	ldi	r26, 0x5B	; 91
    1174:	b0 e0       	ldi	r27, 0x00	; 0
    1176:	eb e5       	ldi	r30, 0x5B	; 91
    1178:	f0 e0       	ldi	r31, 0x00	; 0
    117a:	80 81       	ld	r24, Z
    117c:	80 68       	ori	r24, 0x80	; 128
    117e:	8c 93       	st	X, r24
	#elif EXT_INT1_STATE == EXT_DISABLED
	Clr_Bit(EXT_GICR_REG, GICR_INT1 );		// Disable external interrupt pin INT1
	#else
		#error "Error: WRONG EXT_INT1_STATE Configuration option"
	#endif
}
    1180:	cf 91       	pop	r28
    1182:	df 91       	pop	r29
    1184:	08 95       	ret

00001186 <EXT_INT_Void_INT2_Init>:

void EXT_INT_Void_INT2_Init(void)
{
    1186:	df 93       	push	r29
    1188:	cf 93       	push	r28
    118a:	cd b7       	in	r28, 0x3d	; 61
    118c:	de b7       	in	r29, 0x3e	; 62
	/*1* SELECTING SENSE CONTROL MODE***/
	#if INT2_SENSE_MODE   == FALING_EDGE
	Clr_Bit(EXT_MCUCR_REG,MCUCSR_ISC_2);
    118e:	a5 e5       	ldi	r26, 0x55	; 85
    1190:	b0 e0       	ldi	r27, 0x00	; 0
    1192:	e5 e5       	ldi	r30, 0x55	; 85
    1194:	f0 e0       	ldi	r31, 0x00	; 0
    1196:	80 81       	ld	r24, Z
    1198:	8f 7b       	andi	r24, 0xBF	; 191
    119a:	8c 93       	st	X, r24
		//#error "Error: WRONG INT2_SENSE_MODE Configuration option"
	#endif
	
	/*2*Check peripheral  interrupt enable initial state*/
	#if   EXT_INT2_STATE == EXT_ENABLED
	Set_Bit(EXT_GICR_REG, GICR_INT2 );		// Enable external interrupt pin INT2
    119c:	ab e5       	ldi	r26, 0x5B	; 91
    119e:	b0 e0       	ldi	r27, 0x00	; 0
    11a0:	eb e5       	ldi	r30, 0x5B	; 91
    11a2:	f0 e0       	ldi	r31, 0x00	; 0
    11a4:	80 81       	ld	r24, Z
    11a6:	80 62       	ori	r24, 0x20	; 32
    11a8:	8c 93       	st	X, r24
	Clr_Bit(EXT_GICR_REG, GICR_INT2 );		// Disable external interrupt pin INT2
	#else
		#error "Error: WRONG EXT_INT2_STATE Configuration option"
	#endif
	
}
    11aa:	cf 91       	pop	r28
    11ac:	df 91       	pop	r29
    11ae:	08 95       	ret

000011b0 <EEPROM_INIT>:
#include "../../../MCAL/DIO/Header/Dio_Interface.h"
#include "../../../SERVICE/Bit_Math.h"
#include "../../../SERVICE/Std_Types.h"

void EEPROM_INIT(void)
{
    11b0:	df 93       	push	r29
    11b2:	cf 93       	push	r28
    11b4:	cd b7       	in	r28, 0x3d	; 61
    11b6:	de b7       	in	r29, 0x3e	; 62
    #if ACTION_MODE   ==   POLLING
	Clr_Bit( EECR_REG , EECR_REG_EERIE ) ;
    11b8:	ac e3       	ldi	r26, 0x3C	; 60
    11ba:	b0 e0       	ldi	r27, 0x00	; 0
    11bc:	ec e3       	ldi	r30, 0x3C	; 60
    11be:	f0 e0       	ldi	r31, 0x00	; 0
    11c0:	80 81       	ld	r24, Z
    11c2:	87 7f       	andi	r24, 0xF7	; 247
    11c4:	8c 93       	st	X, r24

	#elif  CTION_MODE   ==   ISR
	Set_Bit( EECR_REG , EECR_REG_EERIE ) ;

	#endif
}
    11c6:	cf 91       	pop	r28
    11c8:	df 91       	pop	r29
    11ca:	08 95       	ret

000011cc <EEPROM_READ>:

uint8 EEPROM_READ(uint32 Addres)
{
    11cc:	df 93       	push	r29
    11ce:	cf 93       	push	r28
    11d0:	00 d0       	rcall	.+0      	; 0x11d2 <EEPROM_READ+0x6>
    11d2:	00 d0       	rcall	.+0      	; 0x11d4 <EEPROM_READ+0x8>
    11d4:	cd b7       	in	r28, 0x3d	; 61
    11d6:	de b7       	in	r29, 0x3e	; 62
    11d8:	69 83       	std	Y+1, r22	; 0x01
    11da:	7a 83       	std	Y+2, r23	; 0x02
    11dc:	8b 83       	std	Y+3, r24	; 0x03
    11de:	9c 83       	std	Y+4, r25	; 0x04
	while( Get_Bit(EECR_REG,EECR_REG_EEWE)  ==1);
    11e0:	ec e3       	ldi	r30, 0x3C	; 60
    11e2:	f0 e0       	ldi	r31, 0x00	; 0
    11e4:	80 81       	ld	r24, Z
    11e6:	86 95       	lsr	r24
    11e8:	88 2f       	mov	r24, r24
    11ea:	90 e0       	ldi	r25, 0x00	; 0
    11ec:	81 70       	andi	r24, 0x01	; 1
    11ee:	90 70       	andi	r25, 0x00	; 0
    11f0:	88 23       	and	r24, r24
    11f2:	b1 f7       	brne	.-20     	; 0x11e0 <EEPROM_READ+0x14>
	EEARL_LOW_HIGH = Addres  ; // ADDERS
    11f4:	ee e3       	ldi	r30, 0x3E	; 62
    11f6:	f0 e0       	ldi	r31, 0x00	; 0
    11f8:	89 81       	ldd	r24, Y+1	; 0x01
    11fa:	9a 81       	ldd	r25, Y+2	; 0x02
    11fc:	91 83       	std	Z+1, r25	; 0x01
    11fe:	80 83       	st	Z, r24

	Set_Bit( EECR_REG , EECR_REG_EERE ) ;// READ  ENABLE
    1200:	ac e3       	ldi	r26, 0x3C	; 60
    1202:	b0 e0       	ldi	r27, 0x00	; 0
    1204:	ec e3       	ldi	r30, 0x3C	; 60
    1206:	f0 e0       	ldi	r31, 0x00	; 0
    1208:	80 81       	ld	r24, Z
    120a:	81 60       	ori	r24, 0x01	; 1
    120c:	8c 93       	st	X, r24
	return EEDR_REG ;   // return data
    120e:	ed e3       	ldi	r30, 0x3D	; 61
    1210:	f0 e0       	ldi	r31, 0x00	; 0
    1212:	80 81       	ld	r24, Z
}
    1214:	0f 90       	pop	r0
    1216:	0f 90       	pop	r0
    1218:	0f 90       	pop	r0
    121a:	0f 90       	pop	r0
    121c:	cf 91       	pop	r28
    121e:	df 91       	pop	r29
    1220:	08 95       	ret

00001222 <EEPROM_WRITE>:

               // ADDRES 255 LOCATION
void EEPROM_WRITE(uint32 Addres, uint8 Data)
{
    1222:	df 93       	push	r29
    1224:	cf 93       	push	r28
    1226:	00 d0       	rcall	.+0      	; 0x1228 <EEPROM_WRITE+0x6>
    1228:	00 d0       	rcall	.+0      	; 0x122a <EEPROM_WRITE+0x8>
    122a:	0f 92       	push	r0
    122c:	cd b7       	in	r28, 0x3d	; 61
    122e:	de b7       	in	r29, 0x3e	; 62
    1230:	69 83       	std	Y+1, r22	; 0x01
    1232:	7a 83       	std	Y+2, r23	; 0x02
    1234:	8b 83       	std	Y+3, r24	; 0x03
    1236:	9c 83       	std	Y+4, r25	; 0x04
    1238:	4d 83       	std	Y+5, r20	; 0x05
	while(Get_Bit(EECR_REG,EECR_REG_EEWE)  ==1);
    123a:	ec e3       	ldi	r30, 0x3C	; 60
    123c:	f0 e0       	ldi	r31, 0x00	; 0
    123e:	80 81       	ld	r24, Z
    1240:	86 95       	lsr	r24
    1242:	88 2f       	mov	r24, r24
    1244:	90 e0       	ldi	r25, 0x00	; 0
    1246:	81 70       	andi	r24, 0x01	; 1
    1248:	90 70       	andi	r25, 0x00	; 0
    124a:	88 23       	and	r24, r24
    124c:	b1 f7       	brne	.-20     	; 0x123a <EEPROM_WRITE+0x18>
	EEARL_LOW_HIGH = Addres  ;
    124e:	ee e3       	ldi	r30, 0x3E	; 62
    1250:	f0 e0       	ldi	r31, 0x00	; 0
    1252:	89 81       	ldd	r24, Y+1	; 0x01
    1254:	9a 81       	ldd	r25, Y+2	; 0x02
    1256:	91 83       	std	Z+1, r25	; 0x01
    1258:	80 83       	st	Z, r24
	EEDR_REG       = Data    ;
    125a:	ed e3       	ldi	r30, 0x3D	; 61
    125c:	f0 e0       	ldi	r31, 0x00	; 0
    125e:	8d 81       	ldd	r24, Y+5	; 0x05
    1260:	80 83       	st	Z, r24

	Set_Bit( EECR_REG , EECR_REG_EEMWE ) ; //MASTER WRIT ENABLE
    1262:	ac e3       	ldi	r26, 0x3C	; 60
    1264:	b0 e0       	ldi	r27, 0x00	; 0
    1266:	ec e3       	ldi	r30, 0x3C	; 60
    1268:	f0 e0       	ldi	r31, 0x00	; 0
    126a:	80 81       	ld	r24, Z
    126c:	84 60       	ori	r24, 0x04	; 4
    126e:	8c 93       	st	X, r24
	Set_Bit( EECR_REG , EECR_REG_EEWE  ) ; // WRITE ENABLE
    1270:	ac e3       	ldi	r26, 0x3C	; 60
    1272:	b0 e0       	ldi	r27, 0x00	; 0
    1274:	ec e3       	ldi	r30, 0x3C	; 60
    1276:	f0 e0       	ldi	r31, 0x00	; 0
    1278:	80 81       	ld	r24, Z
    127a:	82 60       	ori	r24, 0x02	; 2
    127c:	8c 93       	st	X, r24

}
    127e:	0f 90       	pop	r0
    1280:	0f 90       	pop	r0
    1282:	0f 90       	pop	r0
    1284:	0f 90       	pop	r0
    1286:	0f 90       	pop	r0
    1288:	cf 91       	pop	r28
    128a:	df 91       	pop	r29
    128c:	08 95       	ret

0000128e <DIO_VoidSetPinDir>:
/******************************************************************************************************/
/*******************************This Function Shall set the direction pin******************************/
/******************************************************************************************************/

void DIO_VoidSetPinDir(uint8 DIO_uint8CopyPort ,uint8 DIO_uint8CopyPin_Id , uint8 DIO_uint8CopyPinDir)
{
    128e:	df 93       	push	r29
    1290:	cf 93       	push	r28
    1292:	00 d0       	rcall	.+0      	; 0x1294 <DIO_VoidSetPinDir+0x6>
    1294:	00 d0       	rcall	.+0      	; 0x1296 <DIO_VoidSetPinDir+0x8>
    1296:	0f 92       	push	r0
    1298:	cd b7       	in	r28, 0x3d	; 61
    129a:	de b7       	in	r29, 0x3e	; 62
    129c:	89 83       	std	Y+1, r24	; 0x01
    129e:	6a 83       	std	Y+2, r22	; 0x02
    12a0:	4b 83       	std	Y+3, r20	; 0x03
	switch(DIO_uint8CopyPort)
    12a2:	89 81       	ldd	r24, Y+1	; 0x01
    12a4:	28 2f       	mov	r18, r24
    12a6:	30 e0       	ldi	r19, 0x00	; 0
    12a8:	3d 83       	std	Y+5, r19	; 0x05
    12aa:	2c 83       	std	Y+4, r18	; 0x04
    12ac:	8c 81       	ldd	r24, Y+4	; 0x04
    12ae:	9d 81       	ldd	r25, Y+5	; 0x05
    12b0:	81 30       	cpi	r24, 0x01	; 1
    12b2:	91 05       	cpc	r25, r1
    12b4:	09 f4       	brne	.+2      	; 0x12b8 <DIO_VoidSetPinDir+0x2a>
    12b6:	47 c0       	rjmp	.+142    	; 0x1346 <DIO_VoidSetPinDir+0xb8>
    12b8:	2c 81       	ldd	r18, Y+4	; 0x04
    12ba:	3d 81       	ldd	r19, Y+5	; 0x05
    12bc:	22 30       	cpi	r18, 0x02	; 2
    12be:	31 05       	cpc	r19, r1
    12c0:	2c f4       	brge	.+10     	; 0x12cc <DIO_VoidSetPinDir+0x3e>
    12c2:	8c 81       	ldd	r24, Y+4	; 0x04
    12c4:	9d 81       	ldd	r25, Y+5	; 0x05
    12c6:	00 97       	sbiw	r24, 0x00	; 0
    12c8:	71 f0       	breq	.+28     	; 0x12e6 <DIO_VoidSetPinDir+0x58>
    12ca:	cb c0       	rjmp	.+406    	; 0x1462 <DIO_VoidSetPinDir+0x1d4>
    12cc:	2c 81       	ldd	r18, Y+4	; 0x04
    12ce:	3d 81       	ldd	r19, Y+5	; 0x05
    12d0:	22 30       	cpi	r18, 0x02	; 2
    12d2:	31 05       	cpc	r19, r1
    12d4:	09 f4       	brne	.+2      	; 0x12d8 <DIO_VoidSetPinDir+0x4a>
    12d6:	67 c0       	rjmp	.+206    	; 0x13a6 <DIO_VoidSetPinDir+0x118>
    12d8:	8c 81       	ldd	r24, Y+4	; 0x04
    12da:	9d 81       	ldd	r25, Y+5	; 0x05
    12dc:	83 30       	cpi	r24, 0x03	; 3
    12de:	91 05       	cpc	r25, r1
    12e0:	09 f4       	brne	.+2      	; 0x12e4 <DIO_VoidSetPinDir+0x56>
    12e2:	91 c0       	rjmp	.+290    	; 0x1406 <DIO_VoidSetPinDir+0x178>
    12e4:	be c0       	rjmp	.+380    	; 0x1462 <DIO_VoidSetPinDir+0x1d4>
	{
	case 0 :
		if(DIO_uint8CopyPinDir==OUTPUT)
    12e6:	8b 81       	ldd	r24, Y+3	; 0x03
    12e8:	81 30       	cpi	r24, 0x01	; 1
    12ea:	a1 f4       	brne	.+40     	; 0x1314 <DIO_VoidSetPinDir+0x86>
		{
			Set_Bit(DDRA_REG,DIO_uint8CopyPin_Id);
    12ec:	aa e3       	ldi	r26, 0x3A	; 58
    12ee:	b0 e0       	ldi	r27, 0x00	; 0
    12f0:	ea e3       	ldi	r30, 0x3A	; 58
    12f2:	f0 e0       	ldi	r31, 0x00	; 0
    12f4:	80 81       	ld	r24, Z
    12f6:	48 2f       	mov	r20, r24
    12f8:	8a 81       	ldd	r24, Y+2	; 0x02
    12fa:	28 2f       	mov	r18, r24
    12fc:	30 e0       	ldi	r19, 0x00	; 0
    12fe:	81 e0       	ldi	r24, 0x01	; 1
    1300:	90 e0       	ldi	r25, 0x00	; 0
    1302:	02 2e       	mov	r0, r18
    1304:	02 c0       	rjmp	.+4      	; 0x130a <DIO_VoidSetPinDir+0x7c>
    1306:	88 0f       	add	r24, r24
    1308:	99 1f       	adc	r25, r25
    130a:	0a 94       	dec	r0
    130c:	e2 f7       	brpl	.-8      	; 0x1306 <DIO_VoidSetPinDir+0x78>
    130e:	84 2b       	or	r24, r20
    1310:	8c 93       	st	X, r24
    1312:	a7 c0       	rjmp	.+334    	; 0x1462 <DIO_VoidSetPinDir+0x1d4>
		}
		else if(DIO_uint8CopyPinDir==INPUT)
    1314:	8b 81       	ldd	r24, Y+3	; 0x03
    1316:	88 23       	and	r24, r24
    1318:	09 f0       	breq	.+2      	; 0x131c <DIO_VoidSetPinDir+0x8e>
    131a:	a3 c0       	rjmp	.+326    	; 0x1462 <DIO_VoidSetPinDir+0x1d4>
		{
			Clr_Bit(DDRA_REG,DIO_uint8CopyPin_Id);
    131c:	aa e3       	ldi	r26, 0x3A	; 58
    131e:	b0 e0       	ldi	r27, 0x00	; 0
    1320:	ea e3       	ldi	r30, 0x3A	; 58
    1322:	f0 e0       	ldi	r31, 0x00	; 0
    1324:	80 81       	ld	r24, Z
    1326:	48 2f       	mov	r20, r24
    1328:	8a 81       	ldd	r24, Y+2	; 0x02
    132a:	28 2f       	mov	r18, r24
    132c:	30 e0       	ldi	r19, 0x00	; 0
    132e:	81 e0       	ldi	r24, 0x01	; 1
    1330:	90 e0       	ldi	r25, 0x00	; 0
    1332:	02 2e       	mov	r0, r18
    1334:	02 c0       	rjmp	.+4      	; 0x133a <DIO_VoidSetPinDir+0xac>
    1336:	88 0f       	add	r24, r24
    1338:	99 1f       	adc	r25, r25
    133a:	0a 94       	dec	r0
    133c:	e2 f7       	brpl	.-8      	; 0x1336 <DIO_VoidSetPinDir+0xa8>
    133e:	80 95       	com	r24
    1340:	84 23       	and	r24, r20
    1342:	8c 93       	st	X, r24
    1344:	8e c0       	rjmp	.+284    	; 0x1462 <DIO_VoidSetPinDir+0x1d4>
		}

		break;
	case 1 :
		if(DIO_uint8CopyPinDir==OUTPUT)
    1346:	8b 81       	ldd	r24, Y+3	; 0x03
    1348:	81 30       	cpi	r24, 0x01	; 1
    134a:	a1 f4       	brne	.+40     	; 0x1374 <DIO_VoidSetPinDir+0xe6>
		{
			Set_Bit(DDRB_REG,DIO_uint8CopyPin_Id);
    134c:	a7 e3       	ldi	r26, 0x37	; 55
    134e:	b0 e0       	ldi	r27, 0x00	; 0
    1350:	e7 e3       	ldi	r30, 0x37	; 55
    1352:	f0 e0       	ldi	r31, 0x00	; 0
    1354:	80 81       	ld	r24, Z
    1356:	48 2f       	mov	r20, r24
    1358:	8a 81       	ldd	r24, Y+2	; 0x02
    135a:	28 2f       	mov	r18, r24
    135c:	30 e0       	ldi	r19, 0x00	; 0
    135e:	81 e0       	ldi	r24, 0x01	; 1
    1360:	90 e0       	ldi	r25, 0x00	; 0
    1362:	02 2e       	mov	r0, r18
    1364:	02 c0       	rjmp	.+4      	; 0x136a <DIO_VoidSetPinDir+0xdc>
    1366:	88 0f       	add	r24, r24
    1368:	99 1f       	adc	r25, r25
    136a:	0a 94       	dec	r0
    136c:	e2 f7       	brpl	.-8      	; 0x1366 <DIO_VoidSetPinDir+0xd8>
    136e:	84 2b       	or	r24, r20
    1370:	8c 93       	st	X, r24
    1372:	77 c0       	rjmp	.+238    	; 0x1462 <DIO_VoidSetPinDir+0x1d4>
		}
		else if(DIO_uint8CopyPinDir==INPUT)
    1374:	8b 81       	ldd	r24, Y+3	; 0x03
    1376:	88 23       	and	r24, r24
    1378:	09 f0       	breq	.+2      	; 0x137c <DIO_VoidSetPinDir+0xee>
    137a:	73 c0       	rjmp	.+230    	; 0x1462 <DIO_VoidSetPinDir+0x1d4>
		{
			Clr_Bit(DDRB_REG,DIO_uint8CopyPin_Id);
    137c:	a7 e3       	ldi	r26, 0x37	; 55
    137e:	b0 e0       	ldi	r27, 0x00	; 0
    1380:	e7 e3       	ldi	r30, 0x37	; 55
    1382:	f0 e0       	ldi	r31, 0x00	; 0
    1384:	80 81       	ld	r24, Z
    1386:	48 2f       	mov	r20, r24
    1388:	8a 81       	ldd	r24, Y+2	; 0x02
    138a:	28 2f       	mov	r18, r24
    138c:	30 e0       	ldi	r19, 0x00	; 0
    138e:	81 e0       	ldi	r24, 0x01	; 1
    1390:	90 e0       	ldi	r25, 0x00	; 0
    1392:	02 2e       	mov	r0, r18
    1394:	02 c0       	rjmp	.+4      	; 0x139a <DIO_VoidSetPinDir+0x10c>
    1396:	88 0f       	add	r24, r24
    1398:	99 1f       	adc	r25, r25
    139a:	0a 94       	dec	r0
    139c:	e2 f7       	brpl	.-8      	; 0x1396 <DIO_VoidSetPinDir+0x108>
    139e:	80 95       	com	r24
    13a0:	84 23       	and	r24, r20
    13a2:	8c 93       	st	X, r24
    13a4:	5e c0       	rjmp	.+188    	; 0x1462 <DIO_VoidSetPinDir+0x1d4>
		}

		break;
	case 2 :
		if(DIO_uint8CopyPinDir==OUTPUT)
    13a6:	8b 81       	ldd	r24, Y+3	; 0x03
    13a8:	81 30       	cpi	r24, 0x01	; 1
    13aa:	a1 f4       	brne	.+40     	; 0x13d4 <DIO_VoidSetPinDir+0x146>
		{
			Set_Bit(DDRC_REG,DIO_uint8CopyPin_Id);
    13ac:	a4 e3       	ldi	r26, 0x34	; 52
    13ae:	b0 e0       	ldi	r27, 0x00	; 0
    13b0:	e4 e3       	ldi	r30, 0x34	; 52
    13b2:	f0 e0       	ldi	r31, 0x00	; 0
    13b4:	80 81       	ld	r24, Z
    13b6:	48 2f       	mov	r20, r24
    13b8:	8a 81       	ldd	r24, Y+2	; 0x02
    13ba:	28 2f       	mov	r18, r24
    13bc:	30 e0       	ldi	r19, 0x00	; 0
    13be:	81 e0       	ldi	r24, 0x01	; 1
    13c0:	90 e0       	ldi	r25, 0x00	; 0
    13c2:	02 2e       	mov	r0, r18
    13c4:	02 c0       	rjmp	.+4      	; 0x13ca <DIO_VoidSetPinDir+0x13c>
    13c6:	88 0f       	add	r24, r24
    13c8:	99 1f       	adc	r25, r25
    13ca:	0a 94       	dec	r0
    13cc:	e2 f7       	brpl	.-8      	; 0x13c6 <DIO_VoidSetPinDir+0x138>
    13ce:	84 2b       	or	r24, r20
    13d0:	8c 93       	st	X, r24
    13d2:	47 c0       	rjmp	.+142    	; 0x1462 <DIO_VoidSetPinDir+0x1d4>
		}
		else if(DIO_uint8CopyPinDir==INPUT)
    13d4:	8b 81       	ldd	r24, Y+3	; 0x03
    13d6:	88 23       	and	r24, r24
    13d8:	09 f0       	breq	.+2      	; 0x13dc <DIO_VoidSetPinDir+0x14e>
    13da:	43 c0       	rjmp	.+134    	; 0x1462 <DIO_VoidSetPinDir+0x1d4>
		{
			Clr_Bit(DDRC_REG,DIO_uint8CopyPin_Id);
    13dc:	a4 e3       	ldi	r26, 0x34	; 52
    13de:	b0 e0       	ldi	r27, 0x00	; 0
    13e0:	e4 e3       	ldi	r30, 0x34	; 52
    13e2:	f0 e0       	ldi	r31, 0x00	; 0
    13e4:	80 81       	ld	r24, Z
    13e6:	48 2f       	mov	r20, r24
    13e8:	8a 81       	ldd	r24, Y+2	; 0x02
    13ea:	28 2f       	mov	r18, r24
    13ec:	30 e0       	ldi	r19, 0x00	; 0
    13ee:	81 e0       	ldi	r24, 0x01	; 1
    13f0:	90 e0       	ldi	r25, 0x00	; 0
    13f2:	02 2e       	mov	r0, r18
    13f4:	02 c0       	rjmp	.+4      	; 0x13fa <DIO_VoidSetPinDir+0x16c>
    13f6:	88 0f       	add	r24, r24
    13f8:	99 1f       	adc	r25, r25
    13fa:	0a 94       	dec	r0
    13fc:	e2 f7       	brpl	.-8      	; 0x13f6 <DIO_VoidSetPinDir+0x168>
    13fe:	80 95       	com	r24
    1400:	84 23       	and	r24, r20
    1402:	8c 93       	st	X, r24
    1404:	2e c0       	rjmp	.+92     	; 0x1462 <DIO_VoidSetPinDir+0x1d4>
		}

		break;
	case 3 :
		if(DIO_uint8CopyPinDir==OUTPUT)
    1406:	8b 81       	ldd	r24, Y+3	; 0x03
    1408:	81 30       	cpi	r24, 0x01	; 1
    140a:	a1 f4       	brne	.+40     	; 0x1434 <DIO_VoidSetPinDir+0x1a6>
		{
			Set_Bit(DDRD_REG,DIO_uint8CopyPin_Id);
    140c:	a1 e3       	ldi	r26, 0x31	; 49
    140e:	b0 e0       	ldi	r27, 0x00	; 0
    1410:	e1 e3       	ldi	r30, 0x31	; 49
    1412:	f0 e0       	ldi	r31, 0x00	; 0
    1414:	80 81       	ld	r24, Z
    1416:	48 2f       	mov	r20, r24
    1418:	8a 81       	ldd	r24, Y+2	; 0x02
    141a:	28 2f       	mov	r18, r24
    141c:	30 e0       	ldi	r19, 0x00	; 0
    141e:	81 e0       	ldi	r24, 0x01	; 1
    1420:	90 e0       	ldi	r25, 0x00	; 0
    1422:	02 2e       	mov	r0, r18
    1424:	02 c0       	rjmp	.+4      	; 0x142a <DIO_VoidSetPinDir+0x19c>
    1426:	88 0f       	add	r24, r24
    1428:	99 1f       	adc	r25, r25
    142a:	0a 94       	dec	r0
    142c:	e2 f7       	brpl	.-8      	; 0x1426 <DIO_VoidSetPinDir+0x198>
    142e:	84 2b       	or	r24, r20
    1430:	8c 93       	st	X, r24
    1432:	17 c0       	rjmp	.+46     	; 0x1462 <DIO_VoidSetPinDir+0x1d4>
		}
		else if(DIO_uint8CopyPinDir==INPUT)
    1434:	8b 81       	ldd	r24, Y+3	; 0x03
    1436:	88 23       	and	r24, r24
    1438:	a1 f4       	brne	.+40     	; 0x1462 <DIO_VoidSetPinDir+0x1d4>
		{
			Clr_Bit(DDRD_REG,DIO_uint8CopyPin_Id);
    143a:	a1 e3       	ldi	r26, 0x31	; 49
    143c:	b0 e0       	ldi	r27, 0x00	; 0
    143e:	e1 e3       	ldi	r30, 0x31	; 49
    1440:	f0 e0       	ldi	r31, 0x00	; 0
    1442:	80 81       	ld	r24, Z
    1444:	48 2f       	mov	r20, r24
    1446:	8a 81       	ldd	r24, Y+2	; 0x02
    1448:	28 2f       	mov	r18, r24
    144a:	30 e0       	ldi	r19, 0x00	; 0
    144c:	81 e0       	ldi	r24, 0x01	; 1
    144e:	90 e0       	ldi	r25, 0x00	; 0
    1450:	02 2e       	mov	r0, r18
    1452:	02 c0       	rjmp	.+4      	; 0x1458 <DIO_VoidSetPinDir+0x1ca>
    1454:	88 0f       	add	r24, r24
    1456:	99 1f       	adc	r25, r25
    1458:	0a 94       	dec	r0
    145a:	e2 f7       	brpl	.-8      	; 0x1454 <DIO_VoidSetPinDir+0x1c6>
    145c:	80 95       	com	r24
    145e:	84 23       	and	r24, r20
    1460:	8c 93       	st	X, r24
		}

		break;
	}

}
    1462:	0f 90       	pop	r0
    1464:	0f 90       	pop	r0
    1466:	0f 90       	pop	r0
    1468:	0f 90       	pop	r0
    146a:	0f 90       	pop	r0
    146c:	cf 91       	pop	r28
    146e:	df 91       	pop	r29
    1470:	08 95       	ret

00001472 <DIO_VoidSetPinValue>:
/******************************************************************************************************/
/*******************************This Function Shall set the Value pin**********************************/
/******************************************************************************************************/

void DIO_VoidSetPinValue(uint8 DIO_uint8SetPort, uint8 DIO_uint8SetPin_Id,uint8 DIO_uint8SetPinValue)
{
    1472:	df 93       	push	r29
    1474:	cf 93       	push	r28
    1476:	00 d0       	rcall	.+0      	; 0x1478 <DIO_VoidSetPinValue+0x6>
    1478:	00 d0       	rcall	.+0      	; 0x147a <DIO_VoidSetPinValue+0x8>
    147a:	0f 92       	push	r0
    147c:	cd b7       	in	r28, 0x3d	; 61
    147e:	de b7       	in	r29, 0x3e	; 62
    1480:	89 83       	std	Y+1, r24	; 0x01
    1482:	6a 83       	std	Y+2, r22	; 0x02
    1484:	4b 83       	std	Y+3, r20	; 0x03
	switch(DIO_uint8SetPort)
    1486:	89 81       	ldd	r24, Y+1	; 0x01
    1488:	28 2f       	mov	r18, r24
    148a:	30 e0       	ldi	r19, 0x00	; 0
    148c:	3d 83       	std	Y+5, r19	; 0x05
    148e:	2c 83       	std	Y+4, r18	; 0x04
    1490:	8c 81       	ldd	r24, Y+4	; 0x04
    1492:	9d 81       	ldd	r25, Y+5	; 0x05
    1494:	81 30       	cpi	r24, 0x01	; 1
    1496:	91 05       	cpc	r25, r1
    1498:	09 f4       	brne	.+2      	; 0x149c <DIO_VoidSetPinValue+0x2a>
    149a:	47 c0       	rjmp	.+142    	; 0x152a <DIO_VoidSetPinValue+0xb8>
    149c:	2c 81       	ldd	r18, Y+4	; 0x04
    149e:	3d 81       	ldd	r19, Y+5	; 0x05
    14a0:	22 30       	cpi	r18, 0x02	; 2
    14a2:	31 05       	cpc	r19, r1
    14a4:	2c f4       	brge	.+10     	; 0x14b0 <DIO_VoidSetPinValue+0x3e>
    14a6:	8c 81       	ldd	r24, Y+4	; 0x04
    14a8:	9d 81       	ldd	r25, Y+5	; 0x05
    14aa:	00 97       	sbiw	r24, 0x00	; 0
    14ac:	71 f0       	breq	.+28     	; 0x14ca <DIO_VoidSetPinValue+0x58>
    14ae:	cb c0       	rjmp	.+406    	; 0x1646 <DIO_VoidSetPinValue+0x1d4>
    14b0:	2c 81       	ldd	r18, Y+4	; 0x04
    14b2:	3d 81       	ldd	r19, Y+5	; 0x05
    14b4:	22 30       	cpi	r18, 0x02	; 2
    14b6:	31 05       	cpc	r19, r1
    14b8:	09 f4       	brne	.+2      	; 0x14bc <DIO_VoidSetPinValue+0x4a>
    14ba:	67 c0       	rjmp	.+206    	; 0x158a <DIO_VoidSetPinValue+0x118>
    14bc:	8c 81       	ldd	r24, Y+4	; 0x04
    14be:	9d 81       	ldd	r25, Y+5	; 0x05
    14c0:	83 30       	cpi	r24, 0x03	; 3
    14c2:	91 05       	cpc	r25, r1
    14c4:	09 f4       	brne	.+2      	; 0x14c8 <DIO_VoidSetPinValue+0x56>
    14c6:	91 c0       	rjmp	.+290    	; 0x15ea <DIO_VoidSetPinValue+0x178>
    14c8:	be c0       	rjmp	.+380    	; 0x1646 <DIO_VoidSetPinValue+0x1d4>
	{
	case 0 :
		if(DIO_uint8SetPinValue==HIGH)
    14ca:	8b 81       	ldd	r24, Y+3	; 0x03
    14cc:	81 30       	cpi	r24, 0x01	; 1
    14ce:	a1 f4       	brne	.+40     	; 0x14f8 <DIO_VoidSetPinValue+0x86>
		{
			Set_Bit(PORTA_REG,DIO_uint8SetPin_Id);
    14d0:	ab e3       	ldi	r26, 0x3B	; 59
    14d2:	b0 e0       	ldi	r27, 0x00	; 0
    14d4:	eb e3       	ldi	r30, 0x3B	; 59
    14d6:	f0 e0       	ldi	r31, 0x00	; 0
    14d8:	80 81       	ld	r24, Z
    14da:	48 2f       	mov	r20, r24
    14dc:	8a 81       	ldd	r24, Y+2	; 0x02
    14de:	28 2f       	mov	r18, r24
    14e0:	30 e0       	ldi	r19, 0x00	; 0
    14e2:	81 e0       	ldi	r24, 0x01	; 1
    14e4:	90 e0       	ldi	r25, 0x00	; 0
    14e6:	02 2e       	mov	r0, r18
    14e8:	02 c0       	rjmp	.+4      	; 0x14ee <DIO_VoidSetPinValue+0x7c>
    14ea:	88 0f       	add	r24, r24
    14ec:	99 1f       	adc	r25, r25
    14ee:	0a 94       	dec	r0
    14f0:	e2 f7       	brpl	.-8      	; 0x14ea <DIO_VoidSetPinValue+0x78>
    14f2:	84 2b       	or	r24, r20
    14f4:	8c 93       	st	X, r24
    14f6:	a7 c0       	rjmp	.+334    	; 0x1646 <DIO_VoidSetPinValue+0x1d4>
		}
		else if(DIO_uint8SetPinValue==LOW)
    14f8:	8b 81       	ldd	r24, Y+3	; 0x03
    14fa:	88 23       	and	r24, r24
    14fc:	09 f0       	breq	.+2      	; 0x1500 <DIO_VoidSetPinValue+0x8e>
    14fe:	a3 c0       	rjmp	.+326    	; 0x1646 <DIO_VoidSetPinValue+0x1d4>
		{
			Clr_Bit(PORTA_REG,DIO_uint8SetPin_Id);
    1500:	ab e3       	ldi	r26, 0x3B	; 59
    1502:	b0 e0       	ldi	r27, 0x00	; 0
    1504:	eb e3       	ldi	r30, 0x3B	; 59
    1506:	f0 e0       	ldi	r31, 0x00	; 0
    1508:	80 81       	ld	r24, Z
    150a:	48 2f       	mov	r20, r24
    150c:	8a 81       	ldd	r24, Y+2	; 0x02
    150e:	28 2f       	mov	r18, r24
    1510:	30 e0       	ldi	r19, 0x00	; 0
    1512:	81 e0       	ldi	r24, 0x01	; 1
    1514:	90 e0       	ldi	r25, 0x00	; 0
    1516:	02 2e       	mov	r0, r18
    1518:	02 c0       	rjmp	.+4      	; 0x151e <DIO_VoidSetPinValue+0xac>
    151a:	88 0f       	add	r24, r24
    151c:	99 1f       	adc	r25, r25
    151e:	0a 94       	dec	r0
    1520:	e2 f7       	brpl	.-8      	; 0x151a <DIO_VoidSetPinValue+0xa8>
    1522:	80 95       	com	r24
    1524:	84 23       	and	r24, r20
    1526:	8c 93       	st	X, r24
    1528:	8e c0       	rjmp	.+284    	; 0x1646 <DIO_VoidSetPinValue+0x1d4>
		}

		break;
	case 1 :
		if(DIO_uint8SetPinValue==HIGH)
    152a:	8b 81       	ldd	r24, Y+3	; 0x03
    152c:	81 30       	cpi	r24, 0x01	; 1
    152e:	a1 f4       	brne	.+40     	; 0x1558 <DIO_VoidSetPinValue+0xe6>
		{
			Set_Bit(PORTB_REG,DIO_uint8SetPin_Id);
    1530:	a8 e3       	ldi	r26, 0x38	; 56
    1532:	b0 e0       	ldi	r27, 0x00	; 0
    1534:	e8 e3       	ldi	r30, 0x38	; 56
    1536:	f0 e0       	ldi	r31, 0x00	; 0
    1538:	80 81       	ld	r24, Z
    153a:	48 2f       	mov	r20, r24
    153c:	8a 81       	ldd	r24, Y+2	; 0x02
    153e:	28 2f       	mov	r18, r24
    1540:	30 e0       	ldi	r19, 0x00	; 0
    1542:	81 e0       	ldi	r24, 0x01	; 1
    1544:	90 e0       	ldi	r25, 0x00	; 0
    1546:	02 2e       	mov	r0, r18
    1548:	02 c0       	rjmp	.+4      	; 0x154e <DIO_VoidSetPinValue+0xdc>
    154a:	88 0f       	add	r24, r24
    154c:	99 1f       	adc	r25, r25
    154e:	0a 94       	dec	r0
    1550:	e2 f7       	brpl	.-8      	; 0x154a <DIO_VoidSetPinValue+0xd8>
    1552:	84 2b       	or	r24, r20
    1554:	8c 93       	st	X, r24
    1556:	77 c0       	rjmp	.+238    	; 0x1646 <DIO_VoidSetPinValue+0x1d4>
		}
		else if(DIO_uint8SetPinValue==LOW)
    1558:	8b 81       	ldd	r24, Y+3	; 0x03
    155a:	88 23       	and	r24, r24
    155c:	09 f0       	breq	.+2      	; 0x1560 <DIO_VoidSetPinValue+0xee>
    155e:	73 c0       	rjmp	.+230    	; 0x1646 <DIO_VoidSetPinValue+0x1d4>
		{
			Clr_Bit(PORTB_REG,DIO_uint8SetPin_Id);
    1560:	a8 e3       	ldi	r26, 0x38	; 56
    1562:	b0 e0       	ldi	r27, 0x00	; 0
    1564:	e8 e3       	ldi	r30, 0x38	; 56
    1566:	f0 e0       	ldi	r31, 0x00	; 0
    1568:	80 81       	ld	r24, Z
    156a:	48 2f       	mov	r20, r24
    156c:	8a 81       	ldd	r24, Y+2	; 0x02
    156e:	28 2f       	mov	r18, r24
    1570:	30 e0       	ldi	r19, 0x00	; 0
    1572:	81 e0       	ldi	r24, 0x01	; 1
    1574:	90 e0       	ldi	r25, 0x00	; 0
    1576:	02 2e       	mov	r0, r18
    1578:	02 c0       	rjmp	.+4      	; 0x157e <DIO_VoidSetPinValue+0x10c>
    157a:	88 0f       	add	r24, r24
    157c:	99 1f       	adc	r25, r25
    157e:	0a 94       	dec	r0
    1580:	e2 f7       	brpl	.-8      	; 0x157a <DIO_VoidSetPinValue+0x108>
    1582:	80 95       	com	r24
    1584:	84 23       	and	r24, r20
    1586:	8c 93       	st	X, r24
    1588:	5e c0       	rjmp	.+188    	; 0x1646 <DIO_VoidSetPinValue+0x1d4>
		}

		break;
	case 2 :
		if(DIO_uint8SetPinValue==HIGH)
    158a:	8b 81       	ldd	r24, Y+3	; 0x03
    158c:	81 30       	cpi	r24, 0x01	; 1
    158e:	a1 f4       	brne	.+40     	; 0x15b8 <DIO_VoidSetPinValue+0x146>
		{
			Set_Bit(PORTC_REG,DIO_uint8SetPin_Id);
    1590:	a5 e3       	ldi	r26, 0x35	; 53
    1592:	b0 e0       	ldi	r27, 0x00	; 0
    1594:	e5 e3       	ldi	r30, 0x35	; 53
    1596:	f0 e0       	ldi	r31, 0x00	; 0
    1598:	80 81       	ld	r24, Z
    159a:	48 2f       	mov	r20, r24
    159c:	8a 81       	ldd	r24, Y+2	; 0x02
    159e:	28 2f       	mov	r18, r24
    15a0:	30 e0       	ldi	r19, 0x00	; 0
    15a2:	81 e0       	ldi	r24, 0x01	; 1
    15a4:	90 e0       	ldi	r25, 0x00	; 0
    15a6:	02 2e       	mov	r0, r18
    15a8:	02 c0       	rjmp	.+4      	; 0x15ae <DIO_VoidSetPinValue+0x13c>
    15aa:	88 0f       	add	r24, r24
    15ac:	99 1f       	adc	r25, r25
    15ae:	0a 94       	dec	r0
    15b0:	e2 f7       	brpl	.-8      	; 0x15aa <DIO_VoidSetPinValue+0x138>
    15b2:	84 2b       	or	r24, r20
    15b4:	8c 93       	st	X, r24
    15b6:	47 c0       	rjmp	.+142    	; 0x1646 <DIO_VoidSetPinValue+0x1d4>
		}
		else if(DIO_uint8SetPinValue==LOW)
    15b8:	8b 81       	ldd	r24, Y+3	; 0x03
    15ba:	88 23       	and	r24, r24
    15bc:	09 f0       	breq	.+2      	; 0x15c0 <DIO_VoidSetPinValue+0x14e>
    15be:	43 c0       	rjmp	.+134    	; 0x1646 <DIO_VoidSetPinValue+0x1d4>
		{
			Clr_Bit(PORTC_REG,DIO_uint8SetPin_Id);
    15c0:	a5 e3       	ldi	r26, 0x35	; 53
    15c2:	b0 e0       	ldi	r27, 0x00	; 0
    15c4:	e5 e3       	ldi	r30, 0x35	; 53
    15c6:	f0 e0       	ldi	r31, 0x00	; 0
    15c8:	80 81       	ld	r24, Z
    15ca:	48 2f       	mov	r20, r24
    15cc:	8a 81       	ldd	r24, Y+2	; 0x02
    15ce:	28 2f       	mov	r18, r24
    15d0:	30 e0       	ldi	r19, 0x00	; 0
    15d2:	81 e0       	ldi	r24, 0x01	; 1
    15d4:	90 e0       	ldi	r25, 0x00	; 0
    15d6:	02 2e       	mov	r0, r18
    15d8:	02 c0       	rjmp	.+4      	; 0x15de <DIO_VoidSetPinValue+0x16c>
    15da:	88 0f       	add	r24, r24
    15dc:	99 1f       	adc	r25, r25
    15de:	0a 94       	dec	r0
    15e0:	e2 f7       	brpl	.-8      	; 0x15da <DIO_VoidSetPinValue+0x168>
    15e2:	80 95       	com	r24
    15e4:	84 23       	and	r24, r20
    15e6:	8c 93       	st	X, r24
    15e8:	2e c0       	rjmp	.+92     	; 0x1646 <DIO_VoidSetPinValue+0x1d4>
		}

		break;
	case 3 :
		if(DIO_uint8SetPinValue==HIGH)
    15ea:	8b 81       	ldd	r24, Y+3	; 0x03
    15ec:	81 30       	cpi	r24, 0x01	; 1
    15ee:	a1 f4       	brne	.+40     	; 0x1618 <DIO_VoidSetPinValue+0x1a6>
		{
			Set_Bit(PORTD_REG,DIO_uint8SetPin_Id);
    15f0:	a2 e3       	ldi	r26, 0x32	; 50
    15f2:	b0 e0       	ldi	r27, 0x00	; 0
    15f4:	e2 e3       	ldi	r30, 0x32	; 50
    15f6:	f0 e0       	ldi	r31, 0x00	; 0
    15f8:	80 81       	ld	r24, Z
    15fa:	48 2f       	mov	r20, r24
    15fc:	8a 81       	ldd	r24, Y+2	; 0x02
    15fe:	28 2f       	mov	r18, r24
    1600:	30 e0       	ldi	r19, 0x00	; 0
    1602:	81 e0       	ldi	r24, 0x01	; 1
    1604:	90 e0       	ldi	r25, 0x00	; 0
    1606:	02 2e       	mov	r0, r18
    1608:	02 c0       	rjmp	.+4      	; 0x160e <DIO_VoidSetPinValue+0x19c>
    160a:	88 0f       	add	r24, r24
    160c:	99 1f       	adc	r25, r25
    160e:	0a 94       	dec	r0
    1610:	e2 f7       	brpl	.-8      	; 0x160a <DIO_VoidSetPinValue+0x198>
    1612:	84 2b       	or	r24, r20
    1614:	8c 93       	st	X, r24
    1616:	17 c0       	rjmp	.+46     	; 0x1646 <DIO_VoidSetPinValue+0x1d4>
		}
		else if(DIO_uint8SetPinValue==LOW)
    1618:	8b 81       	ldd	r24, Y+3	; 0x03
    161a:	88 23       	and	r24, r24
    161c:	a1 f4       	brne	.+40     	; 0x1646 <DIO_VoidSetPinValue+0x1d4>
		{
			Clr_Bit(PORTD_REG,DIO_uint8SetPin_Id);
    161e:	a2 e3       	ldi	r26, 0x32	; 50
    1620:	b0 e0       	ldi	r27, 0x00	; 0
    1622:	e2 e3       	ldi	r30, 0x32	; 50
    1624:	f0 e0       	ldi	r31, 0x00	; 0
    1626:	80 81       	ld	r24, Z
    1628:	48 2f       	mov	r20, r24
    162a:	8a 81       	ldd	r24, Y+2	; 0x02
    162c:	28 2f       	mov	r18, r24
    162e:	30 e0       	ldi	r19, 0x00	; 0
    1630:	81 e0       	ldi	r24, 0x01	; 1
    1632:	90 e0       	ldi	r25, 0x00	; 0
    1634:	02 2e       	mov	r0, r18
    1636:	02 c0       	rjmp	.+4      	; 0x163c <DIO_VoidSetPinValue+0x1ca>
    1638:	88 0f       	add	r24, r24
    163a:	99 1f       	adc	r25, r25
    163c:	0a 94       	dec	r0
    163e:	e2 f7       	brpl	.-8      	; 0x1638 <DIO_VoidSetPinValue+0x1c6>
    1640:	80 95       	com	r24
    1642:	84 23       	and	r24, r20
    1644:	8c 93       	st	X, r24

		break;
	}


}
    1646:	0f 90       	pop	r0
    1648:	0f 90       	pop	r0
    164a:	0f 90       	pop	r0
    164c:	0f 90       	pop	r0
    164e:	0f 90       	pop	r0
    1650:	cf 91       	pop	r28
    1652:	df 91       	pop	r29
    1654:	08 95       	ret

00001656 <DIO_ReadPinValue>:
/******************************************************************************************************/
/*******************************This Function Shall Read the Value pin**********************************/
/******************************************************************************************************/

uint8 DIO_ReadPinValue(uint8 DIO_uint8ReadPort ,uint8 DIO_uint8ReadPin_Id )
{
    1656:	df 93       	push	r29
    1658:	cf 93       	push	r28
    165a:	00 d0       	rcall	.+0      	; 0x165c <DIO_ReadPinValue+0x6>
    165c:	00 d0       	rcall	.+0      	; 0x165e <DIO_ReadPinValue+0x8>
    165e:	00 d0       	rcall	.+0      	; 0x1660 <DIO_ReadPinValue+0xa>
    1660:	cd b7       	in	r28, 0x3d	; 61
    1662:	de b7       	in	r29, 0x3e	; 62
    1664:	89 83       	std	Y+1, r24	; 0x01
    1666:	6a 83       	std	Y+2, r22	; 0x02

	switch(DIO_uint8ReadPort)
    1668:	89 81       	ldd	r24, Y+1	; 0x01
    166a:	28 2f       	mov	r18, r24
    166c:	30 e0       	ldi	r19, 0x00	; 0
    166e:	3d 83       	std	Y+5, r19	; 0x05
    1670:	2c 83       	std	Y+4, r18	; 0x04
    1672:	4c 81       	ldd	r20, Y+4	; 0x04
    1674:	5d 81       	ldd	r21, Y+5	; 0x05
    1676:	41 30       	cpi	r20, 0x01	; 1
    1678:	51 05       	cpc	r21, r1
    167a:	49 f1       	breq	.+82     	; 0x16ce <DIO_ReadPinValue+0x78>
    167c:	8c 81       	ldd	r24, Y+4	; 0x04
    167e:	9d 81       	ldd	r25, Y+5	; 0x05
    1680:	82 30       	cpi	r24, 0x02	; 2
    1682:	91 05       	cpc	r25, r1
    1684:	34 f4       	brge	.+12     	; 0x1692 <DIO_ReadPinValue+0x3c>
    1686:	2c 81       	ldd	r18, Y+4	; 0x04
    1688:	3d 81       	ldd	r19, Y+5	; 0x05
    168a:	21 15       	cp	r18, r1
    168c:	31 05       	cpc	r19, r1
    168e:	61 f0       	breq	.+24     	; 0x16a8 <DIO_ReadPinValue+0x52>
    1690:	57 c0       	rjmp	.+174    	; 0x1740 <DIO_ReadPinValue+0xea>
    1692:	4c 81       	ldd	r20, Y+4	; 0x04
    1694:	5d 81       	ldd	r21, Y+5	; 0x05
    1696:	42 30       	cpi	r20, 0x02	; 2
    1698:	51 05       	cpc	r21, r1
    169a:	61 f1       	breq	.+88     	; 0x16f4 <DIO_ReadPinValue+0x9e>
    169c:	8c 81       	ldd	r24, Y+4	; 0x04
    169e:	9d 81       	ldd	r25, Y+5	; 0x05
    16a0:	83 30       	cpi	r24, 0x03	; 3
    16a2:	91 05       	cpc	r25, r1
    16a4:	d1 f1       	breq	.+116    	; 0x171a <DIO_ReadPinValue+0xc4>
    16a6:	4c c0       	rjmp	.+152    	; 0x1740 <DIO_ReadPinValue+0xea>
	{
	case 0 :
		return Get_Bit(PINA_REG,DIO_uint8ReadPin_Id);
    16a8:	e9 e3       	ldi	r30, 0x39	; 57
    16aa:	f0 e0       	ldi	r31, 0x00	; 0
    16ac:	80 81       	ld	r24, Z
    16ae:	28 2f       	mov	r18, r24
    16b0:	30 e0       	ldi	r19, 0x00	; 0
    16b2:	8a 81       	ldd	r24, Y+2	; 0x02
    16b4:	88 2f       	mov	r24, r24
    16b6:	90 e0       	ldi	r25, 0x00	; 0
    16b8:	a9 01       	movw	r20, r18
    16ba:	02 c0       	rjmp	.+4      	; 0x16c0 <DIO_ReadPinValue+0x6a>
    16bc:	55 95       	asr	r21
    16be:	47 95       	ror	r20
    16c0:	8a 95       	dec	r24
    16c2:	e2 f7       	brpl	.-8      	; 0x16bc <DIO_ReadPinValue+0x66>
    16c4:	ca 01       	movw	r24, r20
    16c6:	58 2f       	mov	r21, r24
    16c8:	51 70       	andi	r21, 0x01	; 1
    16ca:	5b 83       	std	Y+3, r21	; 0x03
    16cc:	3a c0       	rjmp	.+116    	; 0x1742 <DIO_ReadPinValue+0xec>

		break;
	case 1 :

		return Get_Bit(PINB_REG,DIO_uint8ReadPin_Id);
    16ce:	e6 e3       	ldi	r30, 0x36	; 54
    16d0:	f0 e0       	ldi	r31, 0x00	; 0
    16d2:	80 81       	ld	r24, Z
    16d4:	28 2f       	mov	r18, r24
    16d6:	30 e0       	ldi	r19, 0x00	; 0
    16d8:	8a 81       	ldd	r24, Y+2	; 0x02
    16da:	88 2f       	mov	r24, r24
    16dc:	90 e0       	ldi	r25, 0x00	; 0
    16de:	a9 01       	movw	r20, r18
    16e0:	02 c0       	rjmp	.+4      	; 0x16e6 <DIO_ReadPinValue+0x90>
    16e2:	55 95       	asr	r21
    16e4:	47 95       	ror	r20
    16e6:	8a 95       	dec	r24
    16e8:	e2 f7       	brpl	.-8      	; 0x16e2 <DIO_ReadPinValue+0x8c>
    16ea:	ca 01       	movw	r24, r20
    16ec:	58 2f       	mov	r21, r24
    16ee:	51 70       	andi	r21, 0x01	; 1
    16f0:	5b 83       	std	Y+3, r21	; 0x03
    16f2:	27 c0       	rjmp	.+78     	; 0x1742 <DIO_ReadPinValue+0xec>


		break;
	case 2 :
		return Get_Bit(PINC_REG,DIO_uint8ReadPin_Id);
    16f4:	e3 e3       	ldi	r30, 0x33	; 51
    16f6:	f0 e0       	ldi	r31, 0x00	; 0
    16f8:	80 81       	ld	r24, Z
    16fa:	28 2f       	mov	r18, r24
    16fc:	30 e0       	ldi	r19, 0x00	; 0
    16fe:	8a 81       	ldd	r24, Y+2	; 0x02
    1700:	88 2f       	mov	r24, r24
    1702:	90 e0       	ldi	r25, 0x00	; 0
    1704:	a9 01       	movw	r20, r18
    1706:	02 c0       	rjmp	.+4      	; 0x170c <DIO_ReadPinValue+0xb6>
    1708:	55 95       	asr	r21
    170a:	47 95       	ror	r20
    170c:	8a 95       	dec	r24
    170e:	e2 f7       	brpl	.-8      	; 0x1708 <DIO_ReadPinValue+0xb2>
    1710:	ca 01       	movw	r24, r20
    1712:	58 2f       	mov	r21, r24
    1714:	51 70       	andi	r21, 0x01	; 1
    1716:	5b 83       	std	Y+3, r21	; 0x03
    1718:	14 c0       	rjmp	.+40     	; 0x1742 <DIO_ReadPinValue+0xec>


		break;
	case 3 :
		return Get_Bit(PIND_REG,DIO_uint8ReadPin_Id);
    171a:	e0 e3       	ldi	r30, 0x30	; 48
    171c:	f0 e0       	ldi	r31, 0x00	; 0
    171e:	80 81       	ld	r24, Z
    1720:	28 2f       	mov	r18, r24
    1722:	30 e0       	ldi	r19, 0x00	; 0
    1724:	8a 81       	ldd	r24, Y+2	; 0x02
    1726:	88 2f       	mov	r24, r24
    1728:	90 e0       	ldi	r25, 0x00	; 0
    172a:	a9 01       	movw	r20, r18
    172c:	02 c0       	rjmp	.+4      	; 0x1732 <DIO_ReadPinValue+0xdc>
    172e:	55 95       	asr	r21
    1730:	47 95       	ror	r20
    1732:	8a 95       	dec	r24
    1734:	e2 f7       	brpl	.-8      	; 0x172e <DIO_ReadPinValue+0xd8>
    1736:	ca 01       	movw	r24, r20
    1738:	58 2f       	mov	r21, r24
    173a:	51 70       	andi	r21, 0x01	; 1
    173c:	5b 83       	std	Y+3, r21	; 0x03
    173e:	01 c0       	rjmp	.+2      	; 0x1742 <DIO_ReadPinValue+0xec>
    1740:	02 c0       	rjmp	.+4      	; 0x1746 <DIO_ReadPinValue+0xf0>

		break;
	}

}
    1742:	8b 81       	ldd	r24, Y+3	; 0x03
    1744:	8e 83       	std	Y+6, r24	; 0x06
    1746:	8e 81       	ldd	r24, Y+6	; 0x06
    1748:	26 96       	adiw	r28, 0x06	; 6
    174a:	0f b6       	in	r0, 0x3f	; 63
    174c:	f8 94       	cli
    174e:	de bf       	out	0x3e, r29	; 62
    1750:	0f be       	out	0x3f, r0	; 63
    1752:	cd bf       	out	0x3d, r28	; 61
    1754:	cf 91       	pop	r28
    1756:	df 91       	pop	r29
    1758:	08 95       	ret

0000175a <DIO_VoidSetAllPortDir>:



/*****This Function Shall set the direction Port ******/
void DIO_VoidSetAllPortDir(uint8 DIO_uint8CopyPort ,  uint8 DIO_uint8CopyPortDir)
{
    175a:	df 93       	push	r29
    175c:	cf 93       	push	r28
    175e:	00 d0       	rcall	.+0      	; 0x1760 <DIO_VoidSetAllPortDir+0x6>
    1760:	00 d0       	rcall	.+0      	; 0x1762 <DIO_VoidSetAllPortDir+0x8>
    1762:	cd b7       	in	r28, 0x3d	; 61
    1764:	de b7       	in	r29, 0x3e	; 62
    1766:	89 83       	std	Y+1, r24	; 0x01
    1768:	6a 83       	std	Y+2, r22	; 0x02
	switch(DIO_uint8CopyPort)
    176a:	89 81       	ldd	r24, Y+1	; 0x01
    176c:	28 2f       	mov	r18, r24
    176e:	30 e0       	ldi	r19, 0x00	; 0
    1770:	3c 83       	std	Y+4, r19	; 0x04
    1772:	2b 83       	std	Y+3, r18	; 0x03
    1774:	8b 81       	ldd	r24, Y+3	; 0x03
    1776:	9c 81       	ldd	r25, Y+4	; 0x04
    1778:	81 30       	cpi	r24, 0x01	; 1
    177a:	91 05       	cpc	r25, r1
    177c:	21 f1       	breq	.+72     	; 0x17c6 <DIO_VoidSetAllPortDir+0x6c>
    177e:	2b 81       	ldd	r18, Y+3	; 0x03
    1780:	3c 81       	ldd	r19, Y+4	; 0x04
    1782:	22 30       	cpi	r18, 0x02	; 2
    1784:	31 05       	cpc	r19, r1
    1786:	2c f4       	brge	.+10     	; 0x1792 <DIO_VoidSetAllPortDir+0x38>
    1788:	8b 81       	ldd	r24, Y+3	; 0x03
    178a:	9c 81       	ldd	r25, Y+4	; 0x04
    178c:	00 97       	sbiw	r24, 0x00	; 0
    178e:	61 f0       	breq	.+24     	; 0x17a8 <DIO_VoidSetAllPortDir+0x4e>
    1790:	46 c0       	rjmp	.+140    	; 0x181e <DIO_VoidSetAllPortDir+0xc4>
    1792:	2b 81       	ldd	r18, Y+3	; 0x03
    1794:	3c 81       	ldd	r19, Y+4	; 0x04
    1796:	22 30       	cpi	r18, 0x02	; 2
    1798:	31 05       	cpc	r19, r1
    179a:	21 f1       	breq	.+72     	; 0x17e4 <DIO_VoidSetAllPortDir+0x8a>
    179c:	8b 81       	ldd	r24, Y+3	; 0x03
    179e:	9c 81       	ldd	r25, Y+4	; 0x04
    17a0:	83 30       	cpi	r24, 0x03	; 3
    17a2:	91 05       	cpc	r25, r1
    17a4:	71 f1       	breq	.+92     	; 0x1802 <DIO_VoidSetAllPortDir+0xa8>
    17a6:	3b c0       	rjmp	.+118    	; 0x181e <DIO_VoidSetAllPortDir+0xc4>
	{
	case 0 :
		if(DIO_uint8CopyPortDir==OUTPUT)
    17a8:	8a 81       	ldd	r24, Y+2	; 0x02
    17aa:	81 30       	cpi	r24, 0x01	; 1
    17ac:	29 f4       	brne	.+10     	; 0x17b8 <DIO_VoidSetAllPortDir+0x5e>
		{
			DDRA_REG = 0xFF ;
    17ae:	ea e3       	ldi	r30, 0x3A	; 58
    17b0:	f0 e0       	ldi	r31, 0x00	; 0
    17b2:	8f ef       	ldi	r24, 0xFF	; 255
    17b4:	80 83       	st	Z, r24
    17b6:	33 c0       	rjmp	.+102    	; 0x181e <DIO_VoidSetAllPortDir+0xc4>
		}
		else if(DIO_uint8CopyPortDir==INPUT)
    17b8:	8a 81       	ldd	r24, Y+2	; 0x02
    17ba:	88 23       	and	r24, r24
    17bc:	81 f5       	brne	.+96     	; 0x181e <DIO_VoidSetAllPortDir+0xc4>
		{
			DDRA_REG = 0x00 ;
    17be:	ea e3       	ldi	r30, 0x3A	; 58
    17c0:	f0 e0       	ldi	r31, 0x00	; 0
    17c2:	10 82       	st	Z, r1
    17c4:	2c c0       	rjmp	.+88     	; 0x181e <DIO_VoidSetAllPortDir+0xc4>
		}

		break;
	case 1 :
		if(DIO_uint8CopyPortDir==OUTPUT)
    17c6:	8a 81       	ldd	r24, Y+2	; 0x02
    17c8:	81 30       	cpi	r24, 0x01	; 1
    17ca:	29 f4       	brne	.+10     	; 0x17d6 <DIO_VoidSetAllPortDir+0x7c>
		{
			DDRB_REG = 0XFF ;
    17cc:	e7 e3       	ldi	r30, 0x37	; 55
    17ce:	f0 e0       	ldi	r31, 0x00	; 0
    17d0:	8f ef       	ldi	r24, 0xFF	; 255
    17d2:	80 83       	st	Z, r24
    17d4:	24 c0       	rjmp	.+72     	; 0x181e <DIO_VoidSetAllPortDir+0xc4>
		}
		else if(DIO_uint8CopyPortDir==INPUT)
    17d6:	8a 81       	ldd	r24, Y+2	; 0x02
    17d8:	88 23       	and	r24, r24
    17da:	09 f5       	brne	.+66     	; 0x181e <DIO_VoidSetAllPortDir+0xc4>
		{
			DDRB_REG = 0X00 ;
    17dc:	e7 e3       	ldi	r30, 0x37	; 55
    17de:	f0 e0       	ldi	r31, 0x00	; 0
    17e0:	10 82       	st	Z, r1
    17e2:	1d c0       	rjmp	.+58     	; 0x181e <DIO_VoidSetAllPortDir+0xc4>
		}

		break;
	case 2 :
		if(DIO_uint8CopyPortDir==OUTPUT)
    17e4:	8a 81       	ldd	r24, Y+2	; 0x02
    17e6:	81 30       	cpi	r24, 0x01	; 1
    17e8:	29 f4       	brne	.+10     	; 0x17f4 <DIO_VoidSetAllPortDir+0x9a>
		{
			DDRC_REG = 0XFF ;
    17ea:	e4 e3       	ldi	r30, 0x34	; 52
    17ec:	f0 e0       	ldi	r31, 0x00	; 0
    17ee:	8f ef       	ldi	r24, 0xFF	; 255
    17f0:	80 83       	st	Z, r24
    17f2:	15 c0       	rjmp	.+42     	; 0x181e <DIO_VoidSetAllPortDir+0xc4>
		}
		else if(DIO_uint8CopyPortDir==INPUT)
    17f4:	8a 81       	ldd	r24, Y+2	; 0x02
    17f6:	88 23       	and	r24, r24
    17f8:	91 f4       	brne	.+36     	; 0x181e <DIO_VoidSetAllPortDir+0xc4>
		{
			DDRC_REG = 0X00 ;
    17fa:	e4 e3       	ldi	r30, 0x34	; 52
    17fc:	f0 e0       	ldi	r31, 0x00	; 0
    17fe:	10 82       	st	Z, r1
    1800:	0e c0       	rjmp	.+28     	; 0x181e <DIO_VoidSetAllPortDir+0xc4>
		}

		break;
	case 3 :
		if(DIO_uint8CopyPortDir==OUTPUT)
    1802:	8a 81       	ldd	r24, Y+2	; 0x02
    1804:	81 30       	cpi	r24, 0x01	; 1
    1806:	29 f4       	brne	.+10     	; 0x1812 <DIO_VoidSetAllPortDir+0xb8>
		{
			DDRD_REG = 0XFF ;
    1808:	e1 e3       	ldi	r30, 0x31	; 49
    180a:	f0 e0       	ldi	r31, 0x00	; 0
    180c:	8f ef       	ldi	r24, 0xFF	; 255
    180e:	80 83       	st	Z, r24
    1810:	06 c0       	rjmp	.+12     	; 0x181e <DIO_VoidSetAllPortDir+0xc4>
		}
		else if(DIO_uint8CopyPortDir==INPUT)
    1812:	8a 81       	ldd	r24, Y+2	; 0x02
    1814:	88 23       	and	r24, r24
    1816:	19 f4       	brne	.+6      	; 0x181e <DIO_VoidSetAllPortDir+0xc4>
		{
			DDRD_REG = 0X00 ;
    1818:	e1 e3       	ldi	r30, 0x31	; 49
    181a:	f0 e0       	ldi	r31, 0x00	; 0
    181c:	10 82       	st	Z, r1
		}

		break;
	}

}
    181e:	0f 90       	pop	r0
    1820:	0f 90       	pop	r0
    1822:	0f 90       	pop	r0
    1824:	0f 90       	pop	r0
    1826:	cf 91       	pop	r28
    1828:	df 91       	pop	r29
    182a:	08 95       	ret

0000182c <DIO_VoidSetAllPortValue>:

/*****This Function Shall set the Value Port ******/
void DIO_VoidSetAllPortValue(uint8 DIO_uint8SetPort , uint8 DIO_uint8SetPortValue)
{
    182c:	df 93       	push	r29
    182e:	cf 93       	push	r28
    1830:	00 d0       	rcall	.+0      	; 0x1832 <DIO_VoidSetAllPortValue+0x6>
    1832:	00 d0       	rcall	.+0      	; 0x1834 <DIO_VoidSetAllPortValue+0x8>
    1834:	cd b7       	in	r28, 0x3d	; 61
    1836:	de b7       	in	r29, 0x3e	; 62
    1838:	89 83       	std	Y+1, r24	; 0x01
    183a:	6a 83       	std	Y+2, r22	; 0x02
	switch(DIO_uint8SetPort)
    183c:	89 81       	ldd	r24, Y+1	; 0x01
    183e:	28 2f       	mov	r18, r24
    1840:	30 e0       	ldi	r19, 0x00	; 0
    1842:	3c 83       	std	Y+4, r19	; 0x04
    1844:	2b 83       	std	Y+3, r18	; 0x03
    1846:	8b 81       	ldd	r24, Y+3	; 0x03
    1848:	9c 81       	ldd	r25, Y+4	; 0x04
    184a:	81 30       	cpi	r24, 0x01	; 1
    184c:	91 05       	cpc	r25, r1
    184e:	21 f1       	breq	.+72     	; 0x1898 <DIO_VoidSetAllPortValue+0x6c>
    1850:	2b 81       	ldd	r18, Y+3	; 0x03
    1852:	3c 81       	ldd	r19, Y+4	; 0x04
    1854:	22 30       	cpi	r18, 0x02	; 2
    1856:	31 05       	cpc	r19, r1
    1858:	2c f4       	brge	.+10     	; 0x1864 <DIO_VoidSetAllPortValue+0x38>
    185a:	8b 81       	ldd	r24, Y+3	; 0x03
    185c:	9c 81       	ldd	r25, Y+4	; 0x04
    185e:	00 97       	sbiw	r24, 0x00	; 0
    1860:	61 f0       	breq	.+24     	; 0x187a <DIO_VoidSetAllPortValue+0x4e>
    1862:	46 c0       	rjmp	.+140    	; 0x18f0 <DIO_VoidSetAllPortValue+0xc4>
    1864:	2b 81       	ldd	r18, Y+3	; 0x03
    1866:	3c 81       	ldd	r19, Y+4	; 0x04
    1868:	22 30       	cpi	r18, 0x02	; 2
    186a:	31 05       	cpc	r19, r1
    186c:	21 f1       	breq	.+72     	; 0x18b6 <DIO_VoidSetAllPortValue+0x8a>
    186e:	8b 81       	ldd	r24, Y+3	; 0x03
    1870:	9c 81       	ldd	r25, Y+4	; 0x04
    1872:	83 30       	cpi	r24, 0x03	; 3
    1874:	91 05       	cpc	r25, r1
    1876:	71 f1       	breq	.+92     	; 0x18d4 <DIO_VoidSetAllPortValue+0xa8>
    1878:	3b c0       	rjmp	.+118    	; 0x18f0 <DIO_VoidSetAllPortValue+0xc4>
	{
	case 0 :
		if(DIO_uint8SetPortValue==HIGH)
    187a:	8a 81       	ldd	r24, Y+2	; 0x02
    187c:	81 30       	cpi	r24, 0x01	; 1
    187e:	29 f4       	brne	.+10     	; 0x188a <DIO_VoidSetAllPortValue+0x5e>
		{
			PORTA_REG = 0XFF ;
    1880:	eb e3       	ldi	r30, 0x3B	; 59
    1882:	f0 e0       	ldi	r31, 0x00	; 0
    1884:	8f ef       	ldi	r24, 0xFF	; 255
    1886:	80 83       	st	Z, r24
    1888:	33 c0       	rjmp	.+102    	; 0x18f0 <DIO_VoidSetAllPortValue+0xc4>
		}
		else if(DIO_uint8SetPortValue==LOW)
    188a:	8a 81       	ldd	r24, Y+2	; 0x02
    188c:	88 23       	and	r24, r24
    188e:	81 f5       	brne	.+96     	; 0x18f0 <DIO_VoidSetAllPortValue+0xc4>
		{
			PORTA_REG = 0X00 ;
    1890:	eb e3       	ldi	r30, 0x3B	; 59
    1892:	f0 e0       	ldi	r31, 0x00	; 0
    1894:	10 82       	st	Z, r1
    1896:	2c c0       	rjmp	.+88     	; 0x18f0 <DIO_VoidSetAllPortValue+0xc4>
		}

		break;
	case 1 :
		if(DIO_uint8SetPortValue==HIGH)
    1898:	8a 81       	ldd	r24, Y+2	; 0x02
    189a:	81 30       	cpi	r24, 0x01	; 1
    189c:	29 f4       	brne	.+10     	; 0x18a8 <DIO_VoidSetAllPortValue+0x7c>
		{
			PORTB_REG = 0XFF ;
    189e:	e8 e3       	ldi	r30, 0x38	; 56
    18a0:	f0 e0       	ldi	r31, 0x00	; 0
    18a2:	8f ef       	ldi	r24, 0xFF	; 255
    18a4:	80 83       	st	Z, r24
    18a6:	24 c0       	rjmp	.+72     	; 0x18f0 <DIO_VoidSetAllPortValue+0xc4>
		}
		else if(DIO_uint8SetPortValue==LOW)
    18a8:	8a 81       	ldd	r24, Y+2	; 0x02
    18aa:	88 23       	and	r24, r24
    18ac:	09 f5       	brne	.+66     	; 0x18f0 <DIO_VoidSetAllPortValue+0xc4>
		{
			PORTB_REG = 0X00 ;
    18ae:	e8 e3       	ldi	r30, 0x38	; 56
    18b0:	f0 e0       	ldi	r31, 0x00	; 0
    18b2:	10 82       	st	Z, r1
    18b4:	1d c0       	rjmp	.+58     	; 0x18f0 <DIO_VoidSetAllPortValue+0xc4>
		}

		break;
	case 2 :
		if(DIO_uint8SetPortValue==HIGH)
    18b6:	8a 81       	ldd	r24, Y+2	; 0x02
    18b8:	81 30       	cpi	r24, 0x01	; 1
    18ba:	29 f4       	brne	.+10     	; 0x18c6 <DIO_VoidSetAllPortValue+0x9a>
		{
			PORTC_REG = 0XFF ;
    18bc:	e5 e3       	ldi	r30, 0x35	; 53
    18be:	f0 e0       	ldi	r31, 0x00	; 0
    18c0:	8f ef       	ldi	r24, 0xFF	; 255
    18c2:	80 83       	st	Z, r24
    18c4:	15 c0       	rjmp	.+42     	; 0x18f0 <DIO_VoidSetAllPortValue+0xc4>
		}
		else if(DIO_uint8SetPortValue==LOW)
    18c6:	8a 81       	ldd	r24, Y+2	; 0x02
    18c8:	88 23       	and	r24, r24
    18ca:	91 f4       	brne	.+36     	; 0x18f0 <DIO_VoidSetAllPortValue+0xc4>
		{
			PORTC_REG = 0X00 ;
    18cc:	e5 e3       	ldi	r30, 0x35	; 53
    18ce:	f0 e0       	ldi	r31, 0x00	; 0
    18d0:	10 82       	st	Z, r1
    18d2:	0e c0       	rjmp	.+28     	; 0x18f0 <DIO_VoidSetAllPortValue+0xc4>
		}

		break;
	case 3 :
		if(DIO_uint8SetPortValue==HIGH)
    18d4:	8a 81       	ldd	r24, Y+2	; 0x02
    18d6:	81 30       	cpi	r24, 0x01	; 1
    18d8:	29 f4       	brne	.+10     	; 0x18e4 <DIO_VoidSetAllPortValue+0xb8>
		{
			PORTD_REG = 0XFF ;
    18da:	e2 e3       	ldi	r30, 0x32	; 50
    18dc:	f0 e0       	ldi	r31, 0x00	; 0
    18de:	8f ef       	ldi	r24, 0xFF	; 255
    18e0:	80 83       	st	Z, r24
    18e2:	06 c0       	rjmp	.+12     	; 0x18f0 <DIO_VoidSetAllPortValue+0xc4>
		}
		else if(DIO_uint8SetPortValue==LOW)
    18e4:	8a 81       	ldd	r24, Y+2	; 0x02
    18e6:	88 23       	and	r24, r24
    18e8:	19 f4       	brne	.+6      	; 0x18f0 <DIO_VoidSetAllPortValue+0xc4>
		{
			PORTD_REG = 0X00 ;
    18ea:	e2 e3       	ldi	r30, 0x32	; 50
    18ec:	f0 e0       	ldi	r31, 0x00	; 0
    18ee:	10 82       	st	Z, r1
		}

		break;
	}

}
    18f0:	0f 90       	pop	r0
    18f2:	0f 90       	pop	r0
    18f4:	0f 90       	pop	r0
    18f6:	0f 90       	pop	r0
    18f8:	cf 91       	pop	r28
    18fa:	df 91       	pop	r29
    18fc:	08 95       	ret

000018fe <DIO_ReadPortValue>:

/*****This Function Shall Read the Value Port ******/
uint8 DIO_ReadPortValue(uint8 DIO_uint8ReadPort)
{
    18fe:	df 93       	push	r29
    1900:	cf 93       	push	r28
    1902:	00 d0       	rcall	.+0      	; 0x1904 <DIO_ReadPortValue+0x6>
    1904:	00 d0       	rcall	.+0      	; 0x1906 <DIO_ReadPortValue+0x8>
    1906:	0f 92       	push	r0
    1908:	cd b7       	in	r28, 0x3d	; 61
    190a:	de b7       	in	r29, 0x3e	; 62
    190c:	89 83       	std	Y+1, r24	; 0x01
	switch(DIO_uint8ReadPort)
    190e:	89 81       	ldd	r24, Y+1	; 0x01
    1910:	28 2f       	mov	r18, r24
    1912:	30 e0       	ldi	r19, 0x00	; 0
    1914:	3c 83       	std	Y+4, r19	; 0x04
    1916:	2b 83       	std	Y+3, r18	; 0x03
    1918:	8b 81       	ldd	r24, Y+3	; 0x03
    191a:	9c 81       	ldd	r25, Y+4	; 0x04
    191c:	81 30       	cpi	r24, 0x01	; 1
    191e:	91 05       	cpc	r25, r1
    1920:	d1 f0       	breq	.+52     	; 0x1956 <DIO_ReadPortValue+0x58>
    1922:	2b 81       	ldd	r18, Y+3	; 0x03
    1924:	3c 81       	ldd	r19, Y+4	; 0x04
    1926:	22 30       	cpi	r18, 0x02	; 2
    1928:	31 05       	cpc	r19, r1
    192a:	2c f4       	brge	.+10     	; 0x1936 <DIO_ReadPortValue+0x38>
    192c:	8b 81       	ldd	r24, Y+3	; 0x03
    192e:	9c 81       	ldd	r25, Y+4	; 0x04
    1930:	00 97       	sbiw	r24, 0x00	; 0
    1932:	61 f0       	breq	.+24     	; 0x194c <DIO_ReadPortValue+0x4e>
    1934:	1f c0       	rjmp	.+62     	; 0x1974 <DIO_ReadPortValue+0x76>
    1936:	2b 81       	ldd	r18, Y+3	; 0x03
    1938:	3c 81       	ldd	r19, Y+4	; 0x04
    193a:	22 30       	cpi	r18, 0x02	; 2
    193c:	31 05       	cpc	r19, r1
    193e:	81 f0       	breq	.+32     	; 0x1960 <DIO_ReadPortValue+0x62>
    1940:	8b 81       	ldd	r24, Y+3	; 0x03
    1942:	9c 81       	ldd	r25, Y+4	; 0x04
    1944:	83 30       	cpi	r24, 0x03	; 3
    1946:	91 05       	cpc	r25, r1
    1948:	81 f0       	breq	.+32     	; 0x196a <DIO_ReadPortValue+0x6c>
    194a:	14 c0       	rjmp	.+40     	; 0x1974 <DIO_ReadPortValue+0x76>
	{
	case 0 :
		return PORTA_REG ;
    194c:	eb e3       	ldi	r30, 0x3B	; 59
    194e:	f0 e0       	ldi	r31, 0x00	; 0
    1950:	90 81       	ld	r25, Z
    1952:	9a 83       	std	Y+2, r25	; 0x02
    1954:	10 c0       	rjmp	.+32     	; 0x1976 <DIO_ReadPortValue+0x78>

		break;
	case 1 :

		return PORTB_REG ;
    1956:	e8 e3       	ldi	r30, 0x38	; 56
    1958:	f0 e0       	ldi	r31, 0x00	; 0
    195a:	20 81       	ld	r18, Z
    195c:	2a 83       	std	Y+2, r18	; 0x02
    195e:	0b c0       	rjmp	.+22     	; 0x1976 <DIO_ReadPortValue+0x78>


		break;
	case 2 :
		return PORTC_REG ;
    1960:	e5 e3       	ldi	r30, 0x35	; 53
    1962:	f0 e0       	ldi	r31, 0x00	; 0
    1964:	30 81       	ld	r19, Z
    1966:	3a 83       	std	Y+2, r19	; 0x02
    1968:	06 c0       	rjmp	.+12     	; 0x1976 <DIO_ReadPortValue+0x78>


		break;
	case 3 :
		return PORTD_REG ;
    196a:	e2 e3       	ldi	r30, 0x32	; 50
    196c:	f0 e0       	ldi	r31, 0x00	; 0
    196e:	80 81       	ld	r24, Z
    1970:	8a 83       	std	Y+2, r24	; 0x02
    1972:	01 c0       	rjmp	.+2      	; 0x1976 <DIO_ReadPortValue+0x78>
    1974:	02 c0       	rjmp	.+4      	; 0x197a <DIO_ReadPortValue+0x7c>

		break;
	}
}
    1976:	9a 81       	ldd	r25, Y+2	; 0x02
    1978:	9d 83       	std	Y+5, r25	; 0x05
    197a:	8d 81       	ldd	r24, Y+5	; 0x05
    197c:	0f 90       	pop	r0
    197e:	0f 90       	pop	r0
    1980:	0f 90       	pop	r0
    1982:	0f 90       	pop	r0
    1984:	0f 90       	pop	r0
    1986:	cf 91       	pop	r28
    1988:	df 91       	pop	r29
    198a:	08 95       	ret

0000198c <DIO_VoidControlPinPullUp>:



/*****This Function Shall Control Pin Pull Up the Value pin ******/
void DIO_VoidControlPinPullUp(uint8 DIO_uint8SetPort , uint8 DIO_uint8SetPin_Id , uint8 Dio_uint8PullUpState)
{
    198c:	df 93       	push	r29
    198e:	cf 93       	push	r28
    1990:	00 d0       	rcall	.+0      	; 0x1992 <DIO_VoidControlPinPullUp+0x6>
    1992:	00 d0       	rcall	.+0      	; 0x1994 <DIO_VoidControlPinPullUp+0x8>
    1994:	0f 92       	push	r0
    1996:	cd b7       	in	r28, 0x3d	; 61
    1998:	de b7       	in	r29, 0x3e	; 62
    199a:	89 83       	std	Y+1, r24	; 0x01
    199c:	6a 83       	std	Y+2, r22	; 0x02
    199e:	4b 83       	std	Y+3, r20	; 0x03
	switch(DIO_uint8SetPort)
    19a0:	89 81       	ldd	r24, Y+1	; 0x01
    19a2:	28 2f       	mov	r18, r24
    19a4:	30 e0       	ldi	r19, 0x00	; 0
    19a6:	3d 83       	std	Y+5, r19	; 0x05
    19a8:	2c 83       	std	Y+4, r18	; 0x04
    19aa:	8c 81       	ldd	r24, Y+4	; 0x04
    19ac:	9d 81       	ldd	r25, Y+5	; 0x05
    19ae:	81 30       	cpi	r24, 0x01	; 1
    19b0:	91 05       	cpc	r25, r1
    19b2:	09 f4       	brne	.+2      	; 0x19b6 <DIO_VoidControlPinPullUp+0x2a>
    19b4:	47 c0       	rjmp	.+142    	; 0x1a44 <DIO_VoidControlPinPullUp+0xb8>
    19b6:	2c 81       	ldd	r18, Y+4	; 0x04
    19b8:	3d 81       	ldd	r19, Y+5	; 0x05
    19ba:	22 30       	cpi	r18, 0x02	; 2
    19bc:	31 05       	cpc	r19, r1
    19be:	2c f4       	brge	.+10     	; 0x19ca <DIO_VoidControlPinPullUp+0x3e>
    19c0:	8c 81       	ldd	r24, Y+4	; 0x04
    19c2:	9d 81       	ldd	r25, Y+5	; 0x05
    19c4:	00 97       	sbiw	r24, 0x00	; 0
    19c6:	71 f0       	breq	.+28     	; 0x19e4 <DIO_VoidControlPinPullUp+0x58>
    19c8:	cb c0       	rjmp	.+406    	; 0x1b60 <DIO_VoidControlPinPullUp+0x1d4>
    19ca:	2c 81       	ldd	r18, Y+4	; 0x04
    19cc:	3d 81       	ldd	r19, Y+5	; 0x05
    19ce:	22 30       	cpi	r18, 0x02	; 2
    19d0:	31 05       	cpc	r19, r1
    19d2:	09 f4       	brne	.+2      	; 0x19d6 <DIO_VoidControlPinPullUp+0x4a>
    19d4:	67 c0       	rjmp	.+206    	; 0x1aa4 <DIO_VoidControlPinPullUp+0x118>
    19d6:	8c 81       	ldd	r24, Y+4	; 0x04
    19d8:	9d 81       	ldd	r25, Y+5	; 0x05
    19da:	83 30       	cpi	r24, 0x03	; 3
    19dc:	91 05       	cpc	r25, r1
    19de:	09 f4       	brne	.+2      	; 0x19e2 <DIO_VoidControlPinPullUp+0x56>
    19e0:	91 c0       	rjmp	.+290    	; 0x1b04 <DIO_VoidControlPinPullUp+0x178>
    19e2:	be c0       	rjmp	.+380    	; 0x1b60 <DIO_VoidControlPinPullUp+0x1d4>
	{
	case 0 :
		if(Dio_uint8PullUpState==ENABLE_PULLUP)
    19e4:	8b 81       	ldd	r24, Y+3	; 0x03
    19e6:	81 30       	cpi	r24, 0x01	; 1
    19e8:	a1 f4       	brne	.+40     	; 0x1a12 <DIO_VoidControlPinPullUp+0x86>
		{
			Set_Bit(PORTA_REG,DIO_uint8SetPin_Id);
    19ea:	ab e3       	ldi	r26, 0x3B	; 59
    19ec:	b0 e0       	ldi	r27, 0x00	; 0
    19ee:	eb e3       	ldi	r30, 0x3B	; 59
    19f0:	f0 e0       	ldi	r31, 0x00	; 0
    19f2:	80 81       	ld	r24, Z
    19f4:	48 2f       	mov	r20, r24
    19f6:	8a 81       	ldd	r24, Y+2	; 0x02
    19f8:	28 2f       	mov	r18, r24
    19fa:	30 e0       	ldi	r19, 0x00	; 0
    19fc:	81 e0       	ldi	r24, 0x01	; 1
    19fe:	90 e0       	ldi	r25, 0x00	; 0
    1a00:	02 2e       	mov	r0, r18
    1a02:	02 c0       	rjmp	.+4      	; 0x1a08 <DIO_VoidControlPinPullUp+0x7c>
    1a04:	88 0f       	add	r24, r24
    1a06:	99 1f       	adc	r25, r25
    1a08:	0a 94       	dec	r0
    1a0a:	e2 f7       	brpl	.-8      	; 0x1a04 <DIO_VoidControlPinPullUp+0x78>
    1a0c:	84 2b       	or	r24, r20
    1a0e:	8c 93       	st	X, r24
    1a10:	a7 c0       	rjmp	.+334    	; 0x1b60 <DIO_VoidControlPinPullUp+0x1d4>
		}
		else if(Dio_uint8PullUpState==DISABLE_PULLUP)
    1a12:	8b 81       	ldd	r24, Y+3	; 0x03
    1a14:	88 23       	and	r24, r24
    1a16:	09 f0       	breq	.+2      	; 0x1a1a <DIO_VoidControlPinPullUp+0x8e>
    1a18:	a3 c0       	rjmp	.+326    	; 0x1b60 <DIO_VoidControlPinPullUp+0x1d4>
		{
			Clr_Bit(PORTA_REG,DIO_uint8SetPin_Id);
    1a1a:	ab e3       	ldi	r26, 0x3B	; 59
    1a1c:	b0 e0       	ldi	r27, 0x00	; 0
    1a1e:	eb e3       	ldi	r30, 0x3B	; 59
    1a20:	f0 e0       	ldi	r31, 0x00	; 0
    1a22:	80 81       	ld	r24, Z
    1a24:	48 2f       	mov	r20, r24
    1a26:	8a 81       	ldd	r24, Y+2	; 0x02
    1a28:	28 2f       	mov	r18, r24
    1a2a:	30 e0       	ldi	r19, 0x00	; 0
    1a2c:	81 e0       	ldi	r24, 0x01	; 1
    1a2e:	90 e0       	ldi	r25, 0x00	; 0
    1a30:	02 2e       	mov	r0, r18
    1a32:	02 c0       	rjmp	.+4      	; 0x1a38 <DIO_VoidControlPinPullUp+0xac>
    1a34:	88 0f       	add	r24, r24
    1a36:	99 1f       	adc	r25, r25
    1a38:	0a 94       	dec	r0
    1a3a:	e2 f7       	brpl	.-8      	; 0x1a34 <DIO_VoidControlPinPullUp+0xa8>
    1a3c:	80 95       	com	r24
    1a3e:	84 23       	and	r24, r20
    1a40:	8c 93       	st	X, r24
    1a42:	8e c0       	rjmp	.+284    	; 0x1b60 <DIO_VoidControlPinPullUp+0x1d4>
		}

		break;
	case 1 :
		if(Dio_uint8PullUpState==ENABLE_PULLUP)
    1a44:	8b 81       	ldd	r24, Y+3	; 0x03
    1a46:	81 30       	cpi	r24, 0x01	; 1
    1a48:	a1 f4       	brne	.+40     	; 0x1a72 <DIO_VoidControlPinPullUp+0xe6>
		{
			Set_Bit(PORTB_REG,DIO_uint8SetPin_Id);
    1a4a:	a8 e3       	ldi	r26, 0x38	; 56
    1a4c:	b0 e0       	ldi	r27, 0x00	; 0
    1a4e:	e8 e3       	ldi	r30, 0x38	; 56
    1a50:	f0 e0       	ldi	r31, 0x00	; 0
    1a52:	80 81       	ld	r24, Z
    1a54:	48 2f       	mov	r20, r24
    1a56:	8a 81       	ldd	r24, Y+2	; 0x02
    1a58:	28 2f       	mov	r18, r24
    1a5a:	30 e0       	ldi	r19, 0x00	; 0
    1a5c:	81 e0       	ldi	r24, 0x01	; 1
    1a5e:	90 e0       	ldi	r25, 0x00	; 0
    1a60:	02 2e       	mov	r0, r18
    1a62:	02 c0       	rjmp	.+4      	; 0x1a68 <DIO_VoidControlPinPullUp+0xdc>
    1a64:	88 0f       	add	r24, r24
    1a66:	99 1f       	adc	r25, r25
    1a68:	0a 94       	dec	r0
    1a6a:	e2 f7       	brpl	.-8      	; 0x1a64 <DIO_VoidControlPinPullUp+0xd8>
    1a6c:	84 2b       	or	r24, r20
    1a6e:	8c 93       	st	X, r24
    1a70:	77 c0       	rjmp	.+238    	; 0x1b60 <DIO_VoidControlPinPullUp+0x1d4>
		}
		else if(Dio_uint8PullUpState==DISABLE_PULLUP)
    1a72:	8b 81       	ldd	r24, Y+3	; 0x03
    1a74:	88 23       	and	r24, r24
    1a76:	09 f0       	breq	.+2      	; 0x1a7a <DIO_VoidControlPinPullUp+0xee>
    1a78:	73 c0       	rjmp	.+230    	; 0x1b60 <DIO_VoidControlPinPullUp+0x1d4>
		{
			Clr_Bit(PORTB_REG,DIO_uint8SetPin_Id);
    1a7a:	a8 e3       	ldi	r26, 0x38	; 56
    1a7c:	b0 e0       	ldi	r27, 0x00	; 0
    1a7e:	e8 e3       	ldi	r30, 0x38	; 56
    1a80:	f0 e0       	ldi	r31, 0x00	; 0
    1a82:	80 81       	ld	r24, Z
    1a84:	48 2f       	mov	r20, r24
    1a86:	8a 81       	ldd	r24, Y+2	; 0x02
    1a88:	28 2f       	mov	r18, r24
    1a8a:	30 e0       	ldi	r19, 0x00	; 0
    1a8c:	81 e0       	ldi	r24, 0x01	; 1
    1a8e:	90 e0       	ldi	r25, 0x00	; 0
    1a90:	02 2e       	mov	r0, r18
    1a92:	02 c0       	rjmp	.+4      	; 0x1a98 <DIO_VoidControlPinPullUp+0x10c>
    1a94:	88 0f       	add	r24, r24
    1a96:	99 1f       	adc	r25, r25
    1a98:	0a 94       	dec	r0
    1a9a:	e2 f7       	brpl	.-8      	; 0x1a94 <DIO_VoidControlPinPullUp+0x108>
    1a9c:	80 95       	com	r24
    1a9e:	84 23       	and	r24, r20
    1aa0:	8c 93       	st	X, r24
    1aa2:	5e c0       	rjmp	.+188    	; 0x1b60 <DIO_VoidControlPinPullUp+0x1d4>
		}

		break;
	case 2 :
		if(Dio_uint8PullUpState==ENABLE_PULLUP)
    1aa4:	8b 81       	ldd	r24, Y+3	; 0x03
    1aa6:	81 30       	cpi	r24, 0x01	; 1
    1aa8:	a1 f4       	brne	.+40     	; 0x1ad2 <DIO_VoidControlPinPullUp+0x146>
		{
			Set_Bit(PORTC_REG,DIO_uint8SetPin_Id);
    1aaa:	a5 e3       	ldi	r26, 0x35	; 53
    1aac:	b0 e0       	ldi	r27, 0x00	; 0
    1aae:	e5 e3       	ldi	r30, 0x35	; 53
    1ab0:	f0 e0       	ldi	r31, 0x00	; 0
    1ab2:	80 81       	ld	r24, Z
    1ab4:	48 2f       	mov	r20, r24
    1ab6:	8a 81       	ldd	r24, Y+2	; 0x02
    1ab8:	28 2f       	mov	r18, r24
    1aba:	30 e0       	ldi	r19, 0x00	; 0
    1abc:	81 e0       	ldi	r24, 0x01	; 1
    1abe:	90 e0       	ldi	r25, 0x00	; 0
    1ac0:	02 2e       	mov	r0, r18
    1ac2:	02 c0       	rjmp	.+4      	; 0x1ac8 <DIO_VoidControlPinPullUp+0x13c>
    1ac4:	88 0f       	add	r24, r24
    1ac6:	99 1f       	adc	r25, r25
    1ac8:	0a 94       	dec	r0
    1aca:	e2 f7       	brpl	.-8      	; 0x1ac4 <DIO_VoidControlPinPullUp+0x138>
    1acc:	84 2b       	or	r24, r20
    1ace:	8c 93       	st	X, r24
    1ad0:	47 c0       	rjmp	.+142    	; 0x1b60 <DIO_VoidControlPinPullUp+0x1d4>
		}
		else if(Dio_uint8PullUpState==DISABLE_PULLUP)
    1ad2:	8b 81       	ldd	r24, Y+3	; 0x03
    1ad4:	88 23       	and	r24, r24
    1ad6:	09 f0       	breq	.+2      	; 0x1ada <DIO_VoidControlPinPullUp+0x14e>
    1ad8:	43 c0       	rjmp	.+134    	; 0x1b60 <DIO_VoidControlPinPullUp+0x1d4>
		{
			Clr_Bit(PORTC_REG,DIO_uint8SetPin_Id);
    1ada:	a5 e3       	ldi	r26, 0x35	; 53
    1adc:	b0 e0       	ldi	r27, 0x00	; 0
    1ade:	e5 e3       	ldi	r30, 0x35	; 53
    1ae0:	f0 e0       	ldi	r31, 0x00	; 0
    1ae2:	80 81       	ld	r24, Z
    1ae4:	48 2f       	mov	r20, r24
    1ae6:	8a 81       	ldd	r24, Y+2	; 0x02
    1ae8:	28 2f       	mov	r18, r24
    1aea:	30 e0       	ldi	r19, 0x00	; 0
    1aec:	81 e0       	ldi	r24, 0x01	; 1
    1aee:	90 e0       	ldi	r25, 0x00	; 0
    1af0:	02 2e       	mov	r0, r18
    1af2:	02 c0       	rjmp	.+4      	; 0x1af8 <DIO_VoidControlPinPullUp+0x16c>
    1af4:	88 0f       	add	r24, r24
    1af6:	99 1f       	adc	r25, r25
    1af8:	0a 94       	dec	r0
    1afa:	e2 f7       	brpl	.-8      	; 0x1af4 <DIO_VoidControlPinPullUp+0x168>
    1afc:	80 95       	com	r24
    1afe:	84 23       	and	r24, r20
    1b00:	8c 93       	st	X, r24
    1b02:	2e c0       	rjmp	.+92     	; 0x1b60 <DIO_VoidControlPinPullUp+0x1d4>
		}

		break;
	case 3 :
		if(Dio_uint8PullUpState==ENABLE_PULLUP)
    1b04:	8b 81       	ldd	r24, Y+3	; 0x03
    1b06:	81 30       	cpi	r24, 0x01	; 1
    1b08:	a1 f4       	brne	.+40     	; 0x1b32 <DIO_VoidControlPinPullUp+0x1a6>
		{
			Set_Bit(PORTD_REG,DIO_uint8SetPin_Id);
    1b0a:	a2 e3       	ldi	r26, 0x32	; 50
    1b0c:	b0 e0       	ldi	r27, 0x00	; 0
    1b0e:	e2 e3       	ldi	r30, 0x32	; 50
    1b10:	f0 e0       	ldi	r31, 0x00	; 0
    1b12:	80 81       	ld	r24, Z
    1b14:	48 2f       	mov	r20, r24
    1b16:	8a 81       	ldd	r24, Y+2	; 0x02
    1b18:	28 2f       	mov	r18, r24
    1b1a:	30 e0       	ldi	r19, 0x00	; 0
    1b1c:	81 e0       	ldi	r24, 0x01	; 1
    1b1e:	90 e0       	ldi	r25, 0x00	; 0
    1b20:	02 2e       	mov	r0, r18
    1b22:	02 c0       	rjmp	.+4      	; 0x1b28 <DIO_VoidControlPinPullUp+0x19c>
    1b24:	88 0f       	add	r24, r24
    1b26:	99 1f       	adc	r25, r25
    1b28:	0a 94       	dec	r0
    1b2a:	e2 f7       	brpl	.-8      	; 0x1b24 <DIO_VoidControlPinPullUp+0x198>
    1b2c:	84 2b       	or	r24, r20
    1b2e:	8c 93       	st	X, r24
    1b30:	17 c0       	rjmp	.+46     	; 0x1b60 <DIO_VoidControlPinPullUp+0x1d4>
		}
		else if(Dio_uint8PullUpState==DISABLE_PULLUP)
    1b32:	8b 81       	ldd	r24, Y+3	; 0x03
    1b34:	88 23       	and	r24, r24
    1b36:	a1 f4       	brne	.+40     	; 0x1b60 <DIO_VoidControlPinPullUp+0x1d4>
		{
			Clr_Bit(PORTD_REG,DIO_uint8SetPin_Id);
    1b38:	a2 e3       	ldi	r26, 0x32	; 50
    1b3a:	b0 e0       	ldi	r27, 0x00	; 0
    1b3c:	e2 e3       	ldi	r30, 0x32	; 50
    1b3e:	f0 e0       	ldi	r31, 0x00	; 0
    1b40:	80 81       	ld	r24, Z
    1b42:	48 2f       	mov	r20, r24
    1b44:	8a 81       	ldd	r24, Y+2	; 0x02
    1b46:	28 2f       	mov	r18, r24
    1b48:	30 e0       	ldi	r19, 0x00	; 0
    1b4a:	81 e0       	ldi	r24, 0x01	; 1
    1b4c:	90 e0       	ldi	r25, 0x00	; 0
    1b4e:	02 2e       	mov	r0, r18
    1b50:	02 c0       	rjmp	.+4      	; 0x1b56 <DIO_VoidControlPinPullUp+0x1ca>
    1b52:	88 0f       	add	r24, r24
    1b54:	99 1f       	adc	r25, r25
    1b56:	0a 94       	dec	r0
    1b58:	e2 f7       	brpl	.-8      	; 0x1b52 <DIO_VoidControlPinPullUp+0x1c6>
    1b5a:	80 95       	com	r24
    1b5c:	84 23       	and	r24, r20
    1b5e:	8c 93       	st	X, r24
		}

		break;
	}

}
    1b60:	0f 90       	pop	r0
    1b62:	0f 90       	pop	r0
    1b64:	0f 90       	pop	r0
    1b66:	0f 90       	pop	r0
    1b68:	0f 90       	pop	r0
    1b6a:	cf 91       	pop	r28
    1b6c:	df 91       	pop	r29
    1b6e:	08 95       	ret

00001b70 <DIO_VoidSetSpecialPortDir>:




void DIO_VoidSetSpecialPortDir(uint8 DIO_uint8CopyPort   ,  uint8 DIO_uint8CopyPortDir)
{
    1b70:	df 93       	push	r29
    1b72:	cf 93       	push	r28
    1b74:	00 d0       	rcall	.+0      	; 0x1b76 <DIO_VoidSetSpecialPortDir+0x6>
    1b76:	00 d0       	rcall	.+0      	; 0x1b78 <DIO_VoidSetSpecialPortDir+0x8>
    1b78:	cd b7       	in	r28, 0x3d	; 61
    1b7a:	de b7       	in	r29, 0x3e	; 62
    1b7c:	89 83       	std	Y+1, r24	; 0x01
    1b7e:	6a 83       	std	Y+2, r22	; 0x02
	switch(DIO_uint8CopyPort)
    1b80:	89 81       	ldd	r24, Y+1	; 0x01
    1b82:	28 2f       	mov	r18, r24
    1b84:	30 e0       	ldi	r19, 0x00	; 0
    1b86:	3c 83       	std	Y+4, r19	; 0x04
    1b88:	2b 83       	std	Y+3, r18	; 0x03
    1b8a:	8b 81       	ldd	r24, Y+3	; 0x03
    1b8c:	9c 81       	ldd	r25, Y+4	; 0x04
    1b8e:	81 30       	cpi	r24, 0x01	; 1
    1b90:	91 05       	cpc	r25, r1
    1b92:	d1 f0       	breq	.+52     	; 0x1bc8 <DIO_VoidSetSpecialPortDir+0x58>
    1b94:	2b 81       	ldd	r18, Y+3	; 0x03
    1b96:	3c 81       	ldd	r19, Y+4	; 0x04
    1b98:	22 30       	cpi	r18, 0x02	; 2
    1b9a:	31 05       	cpc	r19, r1
    1b9c:	2c f4       	brge	.+10     	; 0x1ba8 <DIO_VoidSetSpecialPortDir+0x38>
    1b9e:	8b 81       	ldd	r24, Y+3	; 0x03
    1ba0:	9c 81       	ldd	r25, Y+4	; 0x04
    1ba2:	00 97       	sbiw	r24, 0x00	; 0
    1ba4:	61 f0       	breq	.+24     	; 0x1bbe <DIO_VoidSetSpecialPortDir+0x4e>
    1ba6:	1e c0       	rjmp	.+60     	; 0x1be4 <DIO_VoidSetSpecialPortDir+0x74>
    1ba8:	2b 81       	ldd	r18, Y+3	; 0x03
    1baa:	3c 81       	ldd	r19, Y+4	; 0x04
    1bac:	22 30       	cpi	r18, 0x02	; 2
    1bae:	31 05       	cpc	r19, r1
    1bb0:	81 f0       	breq	.+32     	; 0x1bd2 <DIO_VoidSetSpecialPortDir+0x62>
    1bb2:	8b 81       	ldd	r24, Y+3	; 0x03
    1bb4:	9c 81       	ldd	r25, Y+4	; 0x04
    1bb6:	83 30       	cpi	r24, 0x03	; 3
    1bb8:	91 05       	cpc	r25, r1
    1bba:	81 f0       	breq	.+32     	; 0x1bdc <DIO_VoidSetSpecialPortDir+0x6c>
    1bbc:	13 c0       	rjmp	.+38     	; 0x1be4 <DIO_VoidSetSpecialPortDir+0x74>
	{
	case 0:   DDRA_REG=DIO_uint8CopyPortDir; break;
    1bbe:	ea e3       	ldi	r30, 0x3A	; 58
    1bc0:	f0 e0       	ldi	r31, 0x00	; 0
    1bc2:	8a 81       	ldd	r24, Y+2	; 0x02
    1bc4:	80 83       	st	Z, r24
    1bc6:	0e c0       	rjmp	.+28     	; 0x1be4 <DIO_VoidSetSpecialPortDir+0x74>
	case 1:   DDRB_REG=DIO_uint8CopyPortDir; break;
    1bc8:	e7 e3       	ldi	r30, 0x37	; 55
    1bca:	f0 e0       	ldi	r31, 0x00	; 0
    1bcc:	8a 81       	ldd	r24, Y+2	; 0x02
    1bce:	80 83       	st	Z, r24
    1bd0:	09 c0       	rjmp	.+18     	; 0x1be4 <DIO_VoidSetSpecialPortDir+0x74>
	case 2:   DDRC_REG=DIO_uint8CopyPortDir; break;
    1bd2:	e4 e3       	ldi	r30, 0x34	; 52
    1bd4:	f0 e0       	ldi	r31, 0x00	; 0
    1bd6:	8a 81       	ldd	r24, Y+2	; 0x02
    1bd8:	80 83       	st	Z, r24
    1bda:	04 c0       	rjmp	.+8      	; 0x1be4 <DIO_VoidSetSpecialPortDir+0x74>
	case 3:   DDRD_REG=DIO_uint8CopyPortDir; break;
    1bdc:	e1 e3       	ldi	r30, 0x31	; 49
    1bde:	f0 e0       	ldi	r31, 0x00	; 0
    1be0:	8a 81       	ldd	r24, Y+2	; 0x02
    1be2:	80 83       	st	Z, r24

	}

}
    1be4:	0f 90       	pop	r0
    1be6:	0f 90       	pop	r0
    1be8:	0f 90       	pop	r0
    1bea:	0f 90       	pop	r0
    1bec:	cf 91       	pop	r28
    1bee:	df 91       	pop	r29
    1bf0:	08 95       	ret

00001bf2 <DIO_VoidSetSpecialPortValue>:


void DIO_VoidSetSpecialPortValue(uint8 DIO_uint8SetPort , uint8 DIO_uint8SetPortValue)
{
    1bf2:	df 93       	push	r29
    1bf4:	cf 93       	push	r28
    1bf6:	00 d0       	rcall	.+0      	; 0x1bf8 <DIO_VoidSetSpecialPortValue+0x6>
    1bf8:	00 d0       	rcall	.+0      	; 0x1bfa <DIO_VoidSetSpecialPortValue+0x8>
    1bfa:	cd b7       	in	r28, 0x3d	; 61
    1bfc:	de b7       	in	r29, 0x3e	; 62
    1bfe:	89 83       	std	Y+1, r24	; 0x01
    1c00:	6a 83       	std	Y+2, r22	; 0x02

	switch(DIO_uint8SetPort)
    1c02:	89 81       	ldd	r24, Y+1	; 0x01
    1c04:	28 2f       	mov	r18, r24
    1c06:	30 e0       	ldi	r19, 0x00	; 0
    1c08:	3c 83       	std	Y+4, r19	; 0x04
    1c0a:	2b 83       	std	Y+3, r18	; 0x03
    1c0c:	8b 81       	ldd	r24, Y+3	; 0x03
    1c0e:	9c 81       	ldd	r25, Y+4	; 0x04
    1c10:	81 30       	cpi	r24, 0x01	; 1
    1c12:	91 05       	cpc	r25, r1
    1c14:	d1 f0       	breq	.+52     	; 0x1c4a <DIO_VoidSetSpecialPortValue+0x58>
    1c16:	2b 81       	ldd	r18, Y+3	; 0x03
    1c18:	3c 81       	ldd	r19, Y+4	; 0x04
    1c1a:	22 30       	cpi	r18, 0x02	; 2
    1c1c:	31 05       	cpc	r19, r1
    1c1e:	2c f4       	brge	.+10     	; 0x1c2a <DIO_VoidSetSpecialPortValue+0x38>
    1c20:	8b 81       	ldd	r24, Y+3	; 0x03
    1c22:	9c 81       	ldd	r25, Y+4	; 0x04
    1c24:	00 97       	sbiw	r24, 0x00	; 0
    1c26:	61 f0       	breq	.+24     	; 0x1c40 <DIO_VoidSetSpecialPortValue+0x4e>
    1c28:	1e c0       	rjmp	.+60     	; 0x1c66 <DIO_VoidSetSpecialPortValue+0x74>
    1c2a:	2b 81       	ldd	r18, Y+3	; 0x03
    1c2c:	3c 81       	ldd	r19, Y+4	; 0x04
    1c2e:	22 30       	cpi	r18, 0x02	; 2
    1c30:	31 05       	cpc	r19, r1
    1c32:	81 f0       	breq	.+32     	; 0x1c54 <DIO_VoidSetSpecialPortValue+0x62>
    1c34:	8b 81       	ldd	r24, Y+3	; 0x03
    1c36:	9c 81       	ldd	r25, Y+4	; 0x04
    1c38:	83 30       	cpi	r24, 0x03	; 3
    1c3a:	91 05       	cpc	r25, r1
    1c3c:	81 f0       	breq	.+32     	; 0x1c5e <DIO_VoidSetSpecialPortValue+0x6c>
    1c3e:	13 c0       	rjmp	.+38     	; 0x1c66 <DIO_VoidSetSpecialPortValue+0x74>
	{
	case 0:   PORTA_REG=DIO_uint8SetPortValue; break;
    1c40:	eb e3       	ldi	r30, 0x3B	; 59
    1c42:	f0 e0       	ldi	r31, 0x00	; 0
    1c44:	8a 81       	ldd	r24, Y+2	; 0x02
    1c46:	80 83       	st	Z, r24
    1c48:	0e c0       	rjmp	.+28     	; 0x1c66 <DIO_VoidSetSpecialPortValue+0x74>
	case 1:   PORTB_REG=DIO_uint8SetPortValue; break;
    1c4a:	e8 e3       	ldi	r30, 0x38	; 56
    1c4c:	f0 e0       	ldi	r31, 0x00	; 0
    1c4e:	8a 81       	ldd	r24, Y+2	; 0x02
    1c50:	80 83       	st	Z, r24
    1c52:	09 c0       	rjmp	.+18     	; 0x1c66 <DIO_VoidSetSpecialPortValue+0x74>
	case 2:   PORTC_REG=DIO_uint8SetPortValue; break;
    1c54:	e5 e3       	ldi	r30, 0x35	; 53
    1c56:	f0 e0       	ldi	r31, 0x00	; 0
    1c58:	8a 81       	ldd	r24, Y+2	; 0x02
    1c5a:	80 83       	st	Z, r24
    1c5c:	04 c0       	rjmp	.+8      	; 0x1c66 <DIO_VoidSetSpecialPortValue+0x74>
	case 3:   PORTD_REG=DIO_uint8SetPortValue; break;
    1c5e:	e2 e3       	ldi	r30, 0x32	; 50
    1c60:	f0 e0       	ldi	r31, 0x00	; 0
    1c62:	8a 81       	ldd	r24, Y+2	; 0x02
    1c64:	80 83       	st	Z, r24
	default:								   break;
	}


}
    1c66:	0f 90       	pop	r0
    1c68:	0f 90       	pop	r0
    1c6a:	0f 90       	pop	r0
    1c6c:	0f 90       	pop	r0
    1c6e:	cf 91       	pop	r28
    1c70:	df 91       	pop	r29
    1c72:	08 95       	ret

00001c74 <DIO_VoidSetToggelValue>:



void DIO_VoidSetToggelValue(uint8 DIO_uint8SetPort , uint8 DIO_uint8Setpin_Id)
{
    1c74:	df 93       	push	r29
    1c76:	cf 93       	push	r28
    1c78:	00 d0       	rcall	.+0      	; 0x1c7a <DIO_VoidSetToggelValue+0x6>
    1c7a:	00 d0       	rcall	.+0      	; 0x1c7c <DIO_VoidSetToggelValue+0x8>
    1c7c:	cd b7       	in	r28, 0x3d	; 61
    1c7e:	de b7       	in	r29, 0x3e	; 62
    1c80:	89 83       	std	Y+1, r24	; 0x01
    1c82:	6a 83       	std	Y+2, r22	; 0x02

	switch(DIO_uint8SetPort)
    1c84:	89 81       	ldd	r24, Y+1	; 0x01
    1c86:	28 2f       	mov	r18, r24
    1c88:	30 e0       	ldi	r19, 0x00	; 0
    1c8a:	3c 83       	std	Y+4, r19	; 0x04
    1c8c:	2b 83       	std	Y+3, r18	; 0x03
    1c8e:	8b 81       	ldd	r24, Y+3	; 0x03
    1c90:	9c 81       	ldd	r25, Y+4	; 0x04
    1c92:	81 30       	cpi	r24, 0x01	; 1
    1c94:	91 05       	cpc	r25, r1
    1c96:	49 f1       	breq	.+82     	; 0x1cea <DIO_VoidSetToggelValue+0x76>
    1c98:	2b 81       	ldd	r18, Y+3	; 0x03
    1c9a:	3c 81       	ldd	r19, Y+4	; 0x04
    1c9c:	22 30       	cpi	r18, 0x02	; 2
    1c9e:	31 05       	cpc	r19, r1
    1ca0:	2c f4       	brge	.+10     	; 0x1cac <DIO_VoidSetToggelValue+0x38>
    1ca2:	8b 81       	ldd	r24, Y+3	; 0x03
    1ca4:	9c 81       	ldd	r25, Y+4	; 0x04
    1ca6:	00 97       	sbiw	r24, 0x00	; 0
    1ca8:	61 f0       	breq	.+24     	; 0x1cc2 <DIO_VoidSetToggelValue+0x4e>
    1caa:	5a c0       	rjmp	.+180    	; 0x1d60 <DIO_VoidSetToggelValue+0xec>
    1cac:	2b 81       	ldd	r18, Y+3	; 0x03
    1cae:	3c 81       	ldd	r19, Y+4	; 0x04
    1cb0:	22 30       	cpi	r18, 0x02	; 2
    1cb2:	31 05       	cpc	r19, r1
    1cb4:	71 f1       	breq	.+92     	; 0x1d12 <DIO_VoidSetToggelValue+0x9e>
    1cb6:	8b 81       	ldd	r24, Y+3	; 0x03
    1cb8:	9c 81       	ldd	r25, Y+4	; 0x04
    1cba:	83 30       	cpi	r24, 0x03	; 3
    1cbc:	91 05       	cpc	r25, r1
    1cbe:	e9 f1       	breq	.+122    	; 0x1d3a <DIO_VoidSetToggelValue+0xc6>
    1cc0:	4f c0       	rjmp	.+158    	; 0x1d60 <DIO_VoidSetToggelValue+0xec>
	{
	case 0 :
		Toggle_Bit(PORTA_REG,DIO_uint8Setpin_Id);
    1cc2:	ab e3       	ldi	r26, 0x3B	; 59
    1cc4:	b0 e0       	ldi	r27, 0x00	; 0
    1cc6:	eb e3       	ldi	r30, 0x3B	; 59
    1cc8:	f0 e0       	ldi	r31, 0x00	; 0
    1cca:	80 81       	ld	r24, Z
    1ccc:	48 2f       	mov	r20, r24
    1cce:	8a 81       	ldd	r24, Y+2	; 0x02
    1cd0:	28 2f       	mov	r18, r24
    1cd2:	30 e0       	ldi	r19, 0x00	; 0
    1cd4:	81 e0       	ldi	r24, 0x01	; 1
    1cd6:	90 e0       	ldi	r25, 0x00	; 0
    1cd8:	02 2e       	mov	r0, r18
    1cda:	02 c0       	rjmp	.+4      	; 0x1ce0 <DIO_VoidSetToggelValue+0x6c>
    1cdc:	88 0f       	add	r24, r24
    1cde:	99 1f       	adc	r25, r25
    1ce0:	0a 94       	dec	r0
    1ce2:	e2 f7       	brpl	.-8      	; 0x1cdc <DIO_VoidSetToggelValue+0x68>
    1ce4:	84 27       	eor	r24, r20
    1ce6:	8c 93       	st	X, r24
    1ce8:	3b c0       	rjmp	.+118    	; 0x1d60 <DIO_VoidSetToggelValue+0xec>
		break;
	case 1 :
		Toggle_Bit(PORTB_REG,DIO_uint8Setpin_Id);
    1cea:	a8 e3       	ldi	r26, 0x38	; 56
    1cec:	b0 e0       	ldi	r27, 0x00	; 0
    1cee:	e8 e3       	ldi	r30, 0x38	; 56
    1cf0:	f0 e0       	ldi	r31, 0x00	; 0
    1cf2:	80 81       	ld	r24, Z
    1cf4:	48 2f       	mov	r20, r24
    1cf6:	8a 81       	ldd	r24, Y+2	; 0x02
    1cf8:	28 2f       	mov	r18, r24
    1cfa:	30 e0       	ldi	r19, 0x00	; 0
    1cfc:	81 e0       	ldi	r24, 0x01	; 1
    1cfe:	90 e0       	ldi	r25, 0x00	; 0
    1d00:	02 2e       	mov	r0, r18
    1d02:	02 c0       	rjmp	.+4      	; 0x1d08 <DIO_VoidSetToggelValue+0x94>
    1d04:	88 0f       	add	r24, r24
    1d06:	99 1f       	adc	r25, r25
    1d08:	0a 94       	dec	r0
    1d0a:	e2 f7       	brpl	.-8      	; 0x1d04 <DIO_VoidSetToggelValue+0x90>
    1d0c:	84 27       	eor	r24, r20
    1d0e:	8c 93       	st	X, r24
    1d10:	27 c0       	rjmp	.+78     	; 0x1d60 <DIO_VoidSetToggelValue+0xec>
		break;
	case 2 :
		Toggle_Bit(PORTC_REG,DIO_uint8Setpin_Id);
    1d12:	a5 e3       	ldi	r26, 0x35	; 53
    1d14:	b0 e0       	ldi	r27, 0x00	; 0
    1d16:	e5 e3       	ldi	r30, 0x35	; 53
    1d18:	f0 e0       	ldi	r31, 0x00	; 0
    1d1a:	80 81       	ld	r24, Z
    1d1c:	48 2f       	mov	r20, r24
    1d1e:	8a 81       	ldd	r24, Y+2	; 0x02
    1d20:	28 2f       	mov	r18, r24
    1d22:	30 e0       	ldi	r19, 0x00	; 0
    1d24:	81 e0       	ldi	r24, 0x01	; 1
    1d26:	90 e0       	ldi	r25, 0x00	; 0
    1d28:	02 2e       	mov	r0, r18
    1d2a:	02 c0       	rjmp	.+4      	; 0x1d30 <DIO_VoidSetToggelValue+0xbc>
    1d2c:	88 0f       	add	r24, r24
    1d2e:	99 1f       	adc	r25, r25
    1d30:	0a 94       	dec	r0
    1d32:	e2 f7       	brpl	.-8      	; 0x1d2c <DIO_VoidSetToggelValue+0xb8>
    1d34:	84 27       	eor	r24, r20
    1d36:	8c 93       	st	X, r24
    1d38:	13 c0       	rjmp	.+38     	; 0x1d60 <DIO_VoidSetToggelValue+0xec>

		break;
	case 3 :
		Toggle_Bit(PORTD_REG,DIO_uint8Setpin_Id);
    1d3a:	a2 e3       	ldi	r26, 0x32	; 50
    1d3c:	b0 e0       	ldi	r27, 0x00	; 0
    1d3e:	e2 e3       	ldi	r30, 0x32	; 50
    1d40:	f0 e0       	ldi	r31, 0x00	; 0
    1d42:	80 81       	ld	r24, Z
    1d44:	48 2f       	mov	r20, r24
    1d46:	8a 81       	ldd	r24, Y+2	; 0x02
    1d48:	28 2f       	mov	r18, r24
    1d4a:	30 e0       	ldi	r19, 0x00	; 0
    1d4c:	81 e0       	ldi	r24, 0x01	; 1
    1d4e:	90 e0       	ldi	r25, 0x00	; 0
    1d50:	02 2e       	mov	r0, r18
    1d52:	02 c0       	rjmp	.+4      	; 0x1d58 <DIO_VoidSetToggelValue+0xe4>
    1d54:	88 0f       	add	r24, r24
    1d56:	99 1f       	adc	r25, r25
    1d58:	0a 94       	dec	r0
    1d5a:	e2 f7       	brpl	.-8      	; 0x1d54 <DIO_VoidSetToggelValue+0xe0>
    1d5c:	84 27       	eor	r24, r20
    1d5e:	8c 93       	st	X, r24
		break;
	}


}
    1d60:	0f 90       	pop	r0
    1d62:	0f 90       	pop	r0
    1d64:	0f 90       	pop	r0
    1d66:	0f 90       	pop	r0
    1d68:	cf 91       	pop	r28
    1d6a:	df 91       	pop	r29
    1d6c:	08 95       	ret

00001d6e <DIO_ReadSegmentOfAddress>:


uint8 DIO_ReadSegmentOfAddress(uint8 Address ,uint8 Segment )
{
    1d6e:	df 93       	push	r29
    1d70:	cf 93       	push	r28
    1d72:	00 d0       	rcall	.+0      	; 0x1d74 <DIO_ReadSegmentOfAddress+0x6>
    1d74:	cd b7       	in	r28, 0x3d	; 61
    1d76:	de b7       	in	r29, 0x3e	; 62
    1d78:	89 83       	std	Y+1, r24	; 0x01
    1d7a:	6a 83       	std	Y+2, r22	; 0x02
	return Get_Bit(Address,Segment);
    1d7c:	89 81       	ldd	r24, Y+1	; 0x01
    1d7e:	28 2f       	mov	r18, r24
    1d80:	30 e0       	ldi	r19, 0x00	; 0
    1d82:	8a 81       	ldd	r24, Y+2	; 0x02
    1d84:	88 2f       	mov	r24, r24
    1d86:	90 e0       	ldi	r25, 0x00	; 0
    1d88:	a9 01       	movw	r20, r18
    1d8a:	02 c0       	rjmp	.+4      	; 0x1d90 <DIO_ReadSegmentOfAddress+0x22>
    1d8c:	55 95       	asr	r21
    1d8e:	47 95       	ror	r20
    1d90:	8a 95       	dec	r24
    1d92:	e2 f7       	brpl	.-8      	; 0x1d8c <DIO_ReadSegmentOfAddress+0x1e>
    1d94:	ca 01       	movw	r24, r20
    1d96:	81 70       	andi	r24, 0x01	; 1
}
    1d98:	0f 90       	pop	r0
    1d9a:	0f 90       	pop	r0
    1d9c:	cf 91       	pop	r28
    1d9e:	df 91       	pop	r29
    1da0:	08 95       	ret

00001da2 <ADC_init>:
/*******************************************************************************
 *                      Functions Definitions                                  *
 *******************************************************************************/

void ADC_init(void)
{
    1da2:	df 93       	push	r29
    1da4:	cf 93       	push	r28
    1da6:	cd b7       	in	r28, 0x3d	; 61
    1da8:	de b7       	in	r29, 0x3e	; 62
	/* ADMUX Register Bits Description:
	 * REFS1:0 = 00 to choose to connect external reference voltage by input this voltage through AREF pin
	 * ADLAR   = 0 right adjusted
	 * MUX4:0  = 00000 to choose channel 0 as initialization
	 */
	ADMUX = 0;
    1daa:	e7 e2       	ldi	r30, 0x27	; 39
    1dac:	f0 e0       	ldi	r31, 0x00	; 0
    1dae:	10 82       	st	Z, r1
	/* ADCSRA Register Bits Description:
	 * ADEN    = 1 Enable ADC
	 * ADIE    = 0 Disable ADC Interrupt
	 * ADPS2:0 = 011 to choose ADC_Clock=F_CPU/8=1Mhz/8=125Khz --> ADC must operate in range 50-200Khz
	 */
	ADCSRA |= (1<<ADEN) | (1<<ADPS1) | (1<<ADPS0);
    1db0:	a6 e2       	ldi	r26, 0x26	; 38
    1db2:	b0 e0       	ldi	r27, 0x00	; 0
    1db4:	e6 e2       	ldi	r30, 0x26	; 38
    1db6:	f0 e0       	ldi	r31, 0x00	; 0
    1db8:	80 81       	ld	r24, Z
    1dba:	83 68       	ori	r24, 0x83	; 131
    1dbc:	8c 93       	st	X, r24
}
    1dbe:	cf 91       	pop	r28
    1dc0:	df 91       	pop	r29
    1dc2:	08 95       	ret

00001dc4 <ADC_readChannel>:

uint16 ADC_readChannel(uint8 channel_num)
{
    1dc4:	df 93       	push	r29
    1dc6:	cf 93       	push	r28
    1dc8:	0f 92       	push	r0
    1dca:	cd b7       	in	r28, 0x3d	; 61
    1dcc:	de b7       	in	r29, 0x3e	; 62
    1dce:	89 83       	std	Y+1, r24	; 0x01
	channel_num &= 0x07; /* channel number must be from 0 --> 7 */
    1dd0:	89 81       	ldd	r24, Y+1	; 0x01
    1dd2:	87 70       	andi	r24, 0x07	; 7
    1dd4:	89 83       	std	Y+1, r24	; 0x01
	ADMUX &= 0xE0; /* clear first 5 bits in the ADMUX (channel number MUX4:0 bits) before set the required channel */
    1dd6:	a7 e2       	ldi	r26, 0x27	; 39
    1dd8:	b0 e0       	ldi	r27, 0x00	; 0
    1dda:	e7 e2       	ldi	r30, 0x27	; 39
    1ddc:	f0 e0       	ldi	r31, 0x00	; 0
    1dde:	80 81       	ld	r24, Z
    1de0:	80 7e       	andi	r24, 0xE0	; 224
    1de2:	8c 93       	st	X, r24
	ADMUX = ADMUX | channel_num; /* choose the correct channel by setting the channel number in MUX4:0 bits */
    1de4:	a7 e2       	ldi	r26, 0x27	; 39
    1de6:	b0 e0       	ldi	r27, 0x00	; 0
    1de8:	e7 e2       	ldi	r30, 0x27	; 39
    1dea:	f0 e0       	ldi	r31, 0x00	; 0
    1dec:	90 81       	ld	r25, Z
    1dee:	89 81       	ldd	r24, Y+1	; 0x01
    1df0:	89 2b       	or	r24, r25
    1df2:	8c 93       	st	X, r24
	Set_Bit(ADCSRA,ADSC); /* start conversion write '1' to ADSC */
    1df4:	a6 e2       	ldi	r26, 0x26	; 38
    1df6:	b0 e0       	ldi	r27, 0x00	; 0
    1df8:	e6 e2       	ldi	r30, 0x26	; 38
    1dfa:	f0 e0       	ldi	r31, 0x00	; 0
    1dfc:	80 81       	ld	r24, Z
    1dfe:	80 64       	ori	r24, 0x40	; 64
    1e00:	8c 93       	st	X, r24
	while(Get_Bit(ADCSRA,ADIF)==0); /* wait for conversion to complete ADIF becomes '1' */
    1e02:	e6 e2       	ldi	r30, 0x26	; 38
    1e04:	f0 e0       	ldi	r31, 0x00	; 0
    1e06:	80 81       	ld	r24, Z
    1e08:	82 95       	swap	r24
    1e0a:	8f 70       	andi	r24, 0x0F	; 15
    1e0c:	88 2f       	mov	r24, r24
    1e0e:	90 e0       	ldi	r25, 0x00	; 0
    1e10:	81 70       	andi	r24, 0x01	; 1
    1e12:	90 70       	andi	r25, 0x00	; 0
    1e14:	00 97       	sbiw	r24, 0x00	; 0
    1e16:	a9 f3       	breq	.-22     	; 0x1e02 <ADC_readChannel+0x3e>
	Set_Bit(ADCSRA,ADIF); /* clear ADIF by write '1' to it :) */
    1e18:	a6 e2       	ldi	r26, 0x26	; 38
    1e1a:	b0 e0       	ldi	r27, 0x00	; 0
    1e1c:	e6 e2       	ldi	r30, 0x26	; 38
    1e1e:	f0 e0       	ldi	r31, 0x00	; 0
    1e20:	80 81       	ld	r24, Z
    1e22:	80 61       	ori	r24, 0x10	; 16
    1e24:	8c 93       	st	X, r24
	return ADC; /* return the data register */
    1e26:	e4 e2       	ldi	r30, 0x24	; 36
    1e28:	f0 e0       	ldi	r31, 0x00	; 0
    1e2a:	80 81       	ld	r24, Z
    1e2c:	91 81       	ldd	r25, Z+1	; 0x01
}
    1e2e:	0f 90       	pop	r0
    1e30:	cf 91       	pop	r28
    1e32:	df 91       	pop	r29
    1e34:	08 95       	ret

00001e36 <TempSensor_Range>:




uint8 TempSensor_Range(uint16 ADC_Value)
{
    1e36:	df 93       	push	r29
    1e38:	cf 93       	push	r28
    1e3a:	00 d0       	rcall	.+0      	; 0x1e3c <TempSensor_Range+0x6>
    1e3c:	00 d0       	rcall	.+0      	; 0x1e3e <TempSensor_Range+0x8>
    1e3e:	cd b7       	in	r28, 0x3d	; 61
    1e40:	de b7       	in	r29, 0x3e	; 62
    1e42:	9c 83       	std	Y+4, r25	; 0x04
    1e44:	8b 83       	std	Y+3, r24	; 0x03
	uint16 Temperature       = (uint16)(((uint32)ADC_Value*256UL)/1024);;
    1e46:	8b 81       	ldd	r24, Y+3	; 0x03
    1e48:	9c 81       	ldd	r25, Y+4	; 0x04
    1e4a:	cc 01       	movw	r24, r24
    1e4c:	a0 e0       	ldi	r26, 0x00	; 0
    1e4e:	b0 e0       	ldi	r27, 0x00	; 0
    1e50:	ba 2f       	mov	r27, r26
    1e52:	a9 2f       	mov	r26, r25
    1e54:	98 2f       	mov	r25, r24
    1e56:	88 27       	eor	r24, r24
    1e58:	07 2e       	mov	r0, r23
    1e5a:	7a e0       	ldi	r23, 0x0A	; 10
    1e5c:	b6 95       	lsr	r27
    1e5e:	a7 95       	ror	r26
    1e60:	97 95       	ror	r25
    1e62:	87 95       	ror	r24
    1e64:	7a 95       	dec	r23
    1e66:	d1 f7       	brne	.-12     	; 0x1e5c <TempSensor_Range+0x26>
    1e68:	70 2d       	mov	r23, r0
    1e6a:	9a 83       	std	Y+2, r25	; 0x02
    1e6c:	89 83       	std	Y+1, r24	; 0x01

	   if(ADC_Value< (Temperature/2) )
    1e6e:	89 81       	ldd	r24, Y+1	; 0x01
    1e70:	9a 81       	ldd	r25, Y+2	; 0x02
    1e72:	9c 01       	movw	r18, r24
    1e74:	36 95       	lsr	r19
    1e76:	27 95       	ror	r18
    1e78:	8b 81       	ldd	r24, Y+3	; 0x03
    1e7a:	9c 81       	ldd	r25, Y+4	; 0x04
    1e7c:	82 17       	cp	r24, r18
    1e7e:	93 07       	cpc	r25, r19
    1e80:	18 f4       	brcc	.+6      	; 0x1e88 <TempSensor_Range+0x52>
		{
		Temperature = LOW;
    1e82:	1a 82       	std	Y+2, r1	; 0x02
    1e84:	19 82       	std	Y+1, r1	; 0x01
    1e86:	04 c0       	rjmp	.+8      	; 0x1e90 <TempSensor_Range+0x5a>
		}
		else
		{
			Temperature = HIGH;
    1e88:	81 e0       	ldi	r24, 0x01	; 1
    1e8a:	90 e0       	ldi	r25, 0x00	; 0
    1e8c:	9a 83       	std	Y+2, r25	; 0x02
    1e8e:	89 83       	std	Y+1, r24	; 0x01
		}

	return Temperature ;
    1e90:	89 81       	ldd	r24, Y+1	; 0x01
}
    1e92:	0f 90       	pop	r0
    1e94:	0f 90       	pop	r0
    1e96:	0f 90       	pop	r0
    1e98:	0f 90       	pop	r0
    1e9a:	cf 91       	pop	r28
    1e9c:	df 91       	pop	r29
    1e9e:	08 95       	ret

00001ea0 <SevenSeg_VoidSetOffOrON>:

/****************************************************************************************************************/
/*************************************SEVEN SEGMENT INIT*********************************************************/
/****************************************************************************************************************/
void SevenSeg_VoidSetOffOrON(uint8 SevenSeg_VoidSetState)
{
    1ea0:	df 93       	push	r29
    1ea2:	cf 93       	push	r28
    1ea4:	0f 92       	push	r0
    1ea6:	cd b7       	in	r28, 0x3d	; 61
    1ea8:	de b7       	in	r29, 0x3e	; 62
    1eaa:	89 83       	std	Y+1, r24	; 0x01
	DIO_VoidSetPinDir(ENABLE_PORT,ENABLE_ONES , OUTPUT);
    1eac:	83 e0       	ldi	r24, 0x03	; 3
    1eae:	60 e0       	ldi	r22, 0x00	; 0
    1eb0:	41 e0       	ldi	r20, 0x01	; 1
    1eb2:	0e 94 47 09 	call	0x128e	; 0x128e <DIO_VoidSetPinDir>
	DIO_VoidSetPinDir(ENABLE_PORT,ENABLE_TENS , OUTPUT);
    1eb6:	83 e0       	ldi	r24, 0x03	; 3
    1eb8:	61 e0       	ldi	r22, 0x01	; 1
    1eba:	41 e0       	ldi	r20, 0x01	; 1
    1ebc:	0e 94 47 09 	call	0x128e	; 0x128e <DIO_VoidSetPinDir>
	DDRC_REG = 0xFF;
    1ec0:	e4 e3       	ldi	r30, 0x34	; 52
    1ec2:	f0 e0       	ldi	r31, 0x00	; 0
    1ec4:	8f ef       	ldi	r24, 0xFF	; 255
    1ec6:	80 83       	st	Z, r24
	if (SevenSeg_VoidSetState == ON )
    1ec8:	89 81       	ldd	r24, Y+1	; 0x01
    1eca:	82 30       	cpi	r24, 0x02	; 2
    1ecc:	29 f4       	brne	.+10     	; 0x1ed8 <SevenSeg_VoidSetOffOrON+0x38>
		case 1:
			DIO_VoidSetAllPortDir(PORTB ,OUTPUT);
			break;

		case 2:
			DIO_VoidSetAllPortDir(PORTC ,OUTPUT);
    1ece:	82 e0       	ldi	r24, 0x02	; 2
    1ed0:	61 e0       	ldi	r22, 0x01	; 1
    1ed2:	0e 94 ad 0b 	call	0x175a	; 0x175a <DIO_VoidSetAllPortDir>
    1ed6:	07 c0       	rjmp	.+14     	; 0x1ee6 <SevenSeg_VoidSetOffOrON+0x46>
		default:

			break;
		}
	}
	else if (SevenSeg_VoidSetState == OFF)
    1ed8:	89 81       	ldd	r24, Y+1	; 0x01
    1eda:	81 30       	cpi	r24, 0x01	; 1
    1edc:	21 f4       	brne	.+8      	; 0x1ee6 <SevenSeg_VoidSetOffOrON+0x46>
		case 1:
			DIO_VoidSetAllPortDir(PORTB ,INPUT);
			break;

		case 2:
			DIO_VoidSetAllPortDir(PORTC ,INPUT);
    1ede:	82 e0       	ldi	r24, 0x02	; 2
    1ee0:	60 e0       	ldi	r22, 0x00	; 0
    1ee2:	0e 94 ad 0b 	call	0x175a	; 0x175a <DIO_VoidSetAllPortDir>

			break;
		}
	}

}
    1ee6:	0f 90       	pop	r0
    1ee8:	cf 91       	pop	r28
    1eea:	df 91       	pop	r29
    1eec:	08 95       	ret

00001eee <SevenSeg_VoidDisplyNumber>:


void SevenSeg_VoidDisplyNumber(uint8 SevenSeg_uint8SetNumber)
{
    1eee:	df 93       	push	r29
    1ef0:	cf 93       	push	r28
    1ef2:	0f 92       	push	r0
    1ef4:	cd b7       	in	r28, 0x3d	; 61
    1ef6:	de b7       	in	r29, 0x3e	; 62
    1ef8:	89 83       	std	Y+1, r24	; 0x01
	//DIO_VoidSetAllPortValue(Port_Used , array[SevenSeg_uint8SetNumber]) ;
	DIO_VoidSetSpecialPortValue(Port_Used,array[SevenSeg_uint8SetNumber]);
    1efa:	89 81       	ldd	r24, Y+1	; 0x01
    1efc:	88 2f       	mov	r24, r24
    1efe:	90 e0       	ldi	r25, 0x00	; 0
    1f00:	fc 01       	movw	r30, r24
    1f02:	e5 5f       	subi	r30, 0xF5	; 245
    1f04:	fe 4f       	sbci	r31, 0xFE	; 254
    1f06:	90 81       	ld	r25, Z
    1f08:	82 e0       	ldi	r24, 0x02	; 2
    1f0a:	69 2f       	mov	r22, r25
    1f0c:	0e 94 f9 0d 	call	0x1bf2	; 0x1bf2 <DIO_VoidSetSpecialPortValue>
	}

	 */


}
    1f10:	0f 90       	pop	r0
    1f12:	cf 91       	pop	r28
    1f14:	df 91       	pop	r29
    1f16:	08 95       	ret

00001f18 <Seven_Segment_Pin_0>:


void Seven_Segment_Pin_0(uint8 state)
{
    1f18:	df 93       	push	r29
    1f1a:	cf 93       	push	r28
    1f1c:	0f 92       	push	r0
    1f1e:	cd b7       	in	r28, 0x3d	; 61
    1f20:	de b7       	in	r29, 0x3e	; 62
    1f22:	89 83       	std	Y+1, r24	; 0x01
	if(state == OFF)
    1f24:	89 81       	ldd	r24, Y+1	; 0x01
    1f26:	81 30       	cpi	r24, 0x01	; 1
    1f28:	31 f4       	brne	.+12     	; 0x1f36 <Seven_Segment_Pin_0+0x1e>
	{
		//DIO_VoidSetPinDir(PORTD,PIN_0,INPUT);
		DIO_VoidSetPinValue(PORTD,PIN_0,LOW);
    1f2a:	83 e0       	ldi	r24, 0x03	; 3
    1f2c:	60 e0       	ldi	r22, 0x00	; 0
    1f2e:	40 e0       	ldi	r20, 0x00	; 0
    1f30:	0e 94 39 0a 	call	0x1472	; 0x1472 <DIO_VoidSetPinValue>
    1f34:	08 c0       	rjmp	.+16     	; 0x1f46 <Seven_Segment_Pin_0+0x2e>
	}
	else if(state == ON)
    1f36:	89 81       	ldd	r24, Y+1	; 0x01
    1f38:	82 30       	cpi	r24, 0x02	; 2
    1f3a:	29 f4       	brne	.+10     	; 0x1f46 <Seven_Segment_Pin_0+0x2e>
	{
		//DIO_VoidSetPinDir(PORTD,PIN_0,OUTPUT);
		DIO_VoidSetPinValue(PORTD,PIN_0,HIGH);
    1f3c:	83 e0       	ldi	r24, 0x03	; 3
    1f3e:	60 e0       	ldi	r22, 0x00	; 0
    1f40:	41 e0       	ldi	r20, 0x01	; 1
    1f42:	0e 94 39 0a 	call	0x1472	; 0x1472 <DIO_VoidSetPinValue>
	}
}
    1f46:	0f 90       	pop	r0
    1f48:	cf 91       	pop	r28
    1f4a:	df 91       	pop	r29
    1f4c:	08 95       	ret

00001f4e <Seven_Segment_Pin_1>:

void Seven_Segment_Pin_1(uint8 state)
{
    1f4e:	df 93       	push	r29
    1f50:	cf 93       	push	r28
    1f52:	0f 92       	push	r0
    1f54:	cd b7       	in	r28, 0x3d	; 61
    1f56:	de b7       	in	r29, 0x3e	; 62
    1f58:	89 83       	std	Y+1, r24	; 0x01

	if(state == OFF)
    1f5a:	89 81       	ldd	r24, Y+1	; 0x01
    1f5c:	81 30       	cpi	r24, 0x01	; 1
    1f5e:	31 f4       	brne	.+12     	; 0x1f6c <Seven_Segment_Pin_1+0x1e>
	{
		//DIO_VoidSetPinDir(PORTD,PIN_1,INPUT);
		DIO_VoidSetPinValue(PORTD,PIN_1,LOW);
    1f60:	83 e0       	ldi	r24, 0x03	; 3
    1f62:	61 e0       	ldi	r22, 0x01	; 1
    1f64:	40 e0       	ldi	r20, 0x00	; 0
    1f66:	0e 94 39 0a 	call	0x1472	; 0x1472 <DIO_VoidSetPinValue>
    1f6a:	08 c0       	rjmp	.+16     	; 0x1f7c <Seven_Segment_Pin_1+0x2e>
	}
	else if(state == ON)
    1f6c:	89 81       	ldd	r24, Y+1	; 0x01
    1f6e:	82 30       	cpi	r24, 0x02	; 2
    1f70:	29 f4       	brne	.+10     	; 0x1f7c <Seven_Segment_Pin_1+0x2e>
	{
		//DIO_VoidSetPinDir(PORTD,PIN_1,OUTPUT);
		DIO_VoidSetPinValue(PORTD,PIN_1,HIGH);
    1f72:	83 e0       	ldi	r24, 0x03	; 3
    1f74:	61 e0       	ldi	r22, 0x01	; 1
    1f76:	41 e0       	ldi	r20, 0x01	; 1
    1f78:	0e 94 39 0a 	call	0x1472	; 0x1472 <DIO_VoidSetPinValue>
	}

}
    1f7c:	0f 90       	pop	r0
    1f7e:	cf 91       	pop	r28
    1f80:	df 91       	pop	r29
    1f82:	08 95       	ret

00001f84 <Seven_Segment_Pin_00>:


void Seven_Segment_Pin_00(uint8 state)
{
    1f84:	df 93       	push	r29
    1f86:	cf 93       	push	r28
    1f88:	0f 92       	push	r0
    1f8a:	cd b7       	in	r28, 0x3d	; 61
    1f8c:	de b7       	in	r29, 0x3e	; 62
    1f8e:	89 83       	std	Y+1, r24	; 0x01

	if(state == ON)
    1f90:	89 81       	ldd	r24, Y+1	; 0x01
    1f92:	82 30       	cpi	r24, 0x02	; 2
    1f94:	31 f4       	brne	.+12     	; 0x1fa2 <Seven_Segment_Pin_00+0x1e>
	{
		DIO_VoidSetPinDir(PORTD,PIN_0,OUTPUT);
    1f96:	83 e0       	ldi	r24, 0x03	; 3
    1f98:	60 e0       	ldi	r22, 0x00	; 0
    1f9a:	41 e0       	ldi	r20, 0x01	; 1
    1f9c:	0e 94 47 09 	call	0x128e	; 0x128e <DIO_VoidSetPinDir>
    1fa0:	08 c0       	rjmp	.+16     	; 0x1fb2 <Seven_Segment_Pin_00+0x2e>
		//DIO_VoidSetPinValue(PORTD,PIN_0,HIGH);
	}
	else if(state == OFF)
    1fa2:	89 81       	ldd	r24, Y+1	; 0x01
    1fa4:	81 30       	cpi	r24, 0x01	; 1
    1fa6:	29 f4       	brne	.+10     	; 0x1fb2 <Seven_Segment_Pin_00+0x2e>
	{
		DIO_VoidSetPinDir(PORTD,PIN_0,INPUT);
    1fa8:	83 e0       	ldi	r24, 0x03	; 3
    1faa:	60 e0       	ldi	r22, 0x00	; 0
    1fac:	40 e0       	ldi	r20, 0x00	; 0
    1fae:	0e 94 47 09 	call	0x128e	; 0x128e <DIO_VoidSetPinDir>
		//DIO_VoidSetPinValue(PORTD,PIN_0,LOW);
	}


}
    1fb2:	0f 90       	pop	r0
    1fb4:	cf 91       	pop	r28
    1fb6:	df 91       	pop	r29
    1fb8:	08 95       	ret

00001fba <Seven_Segment_Pin_11>:

void Seven_Segment_Pin_11(uint8 state)
{
    1fba:	df 93       	push	r29
    1fbc:	cf 93       	push	r28
    1fbe:	0f 92       	push	r0
    1fc0:	cd b7       	in	r28, 0x3d	; 61
    1fc2:	de b7       	in	r29, 0x3e	; 62
    1fc4:	89 83       	std	Y+1, r24	; 0x01



	if(state == ON)
    1fc6:	89 81       	ldd	r24, Y+1	; 0x01
    1fc8:	82 30       	cpi	r24, 0x02	; 2
    1fca:	31 f4       	brne	.+12     	; 0x1fd8 <Seven_Segment_Pin_11+0x1e>
	{
		DIO_VoidSetPinDir(PORTD,PIN_1,OUTPUT);
    1fcc:	83 e0       	ldi	r24, 0x03	; 3
    1fce:	61 e0       	ldi	r22, 0x01	; 1
    1fd0:	41 e0       	ldi	r20, 0x01	; 1
    1fd2:	0e 94 47 09 	call	0x128e	; 0x128e <DIO_VoidSetPinDir>
    1fd6:	08 c0       	rjmp	.+16     	; 0x1fe8 <Seven_Segment_Pin_11+0x2e>
		//DIO_VoidSetPinValue(PORTD,PIN_1,HIGH);
	}
	else if(state == OFF)
    1fd8:	89 81       	ldd	r24, Y+1	; 0x01
    1fda:	81 30       	cpi	r24, 0x01	; 1
    1fdc:	29 f4       	brne	.+10     	; 0x1fe8 <Seven_Segment_Pin_11+0x2e>
	{
		DIO_VoidSetPinDir(PORTD,PIN_1,INPUT);
    1fde:	83 e0       	ldi	r24, 0x03	; 3
    1fe0:	61 e0       	ldi	r22, 0x01	; 1
    1fe2:	40 e0       	ldi	r20, 0x00	; 0
    1fe4:	0e 94 47 09 	call	0x128e	; 0x128e <DIO_VoidSetPinDir>
		//DIO_VoidSetPinValue(PORTD,PIN_1,LOW);
	}

}
    1fe8:	0f 90       	pop	r0
    1fea:	cf 91       	pop	r28
    1fec:	df 91       	pop	r29
    1fee:	08 95       	ret

00001ff0 <SevenSeg_VoidDisplyNumberByBCD>:




void SevenSeg_VoidDisplyNumberByBCD(uint8 SevenSeg_uint8SetNumber)
{
    1ff0:	df 93       	push	r29
    1ff2:	cf 93       	push	r28
    1ff4:	00 d0       	rcall	.+0      	; 0x1ff6 <SevenSeg_VoidDisplyNumberByBCD+0x6>
    1ff6:	0f 92       	push	r0
    1ff8:	cd b7       	in	r28, 0x3d	; 61
    1ffa:	de b7       	in	r29, 0x3e	; 62
    1ffc:	8b 83       	std	Y+3, r24	; 0x03


	uint8 Size = sizeof(array)/sizeof(array[0]);
    1ffe:	8a e0       	ldi	r24, 0x0A	; 10
    2000:	8a 83       	std	Y+2, r24	; 0x02

	for(uint8 i=0 ; i<Size ; i++)
    2002:	19 82       	std	Y+1, r1	; 0x01
    2004:	03 c0       	rjmp	.+6      	; 0x200c <SevenSeg_VoidDisplyNumberByBCD+0x1c>
    2006:	89 81       	ldd	r24, Y+1	; 0x01
    2008:	8f 5f       	subi	r24, 0xFF	; 255
    200a:	89 83       	std	Y+1, r24	; 0x01
    200c:	99 81       	ldd	r25, Y+1	; 0x01
    200e:	8a 81       	ldd	r24, Y+2	; 0x02
    2010:	98 17       	cp	r25, r24
    2012:	c8 f3       	brcs	.-14     	; 0x2006 <SevenSeg_VoidDisplyNumberByBCD+0x16>
		{
			//Port_Used_Reg = array[i] ;
		}
	}

}
    2014:	0f 90       	pop	r0
    2016:	0f 90       	pop	r0
    2018:	0f 90       	pop	r0
    201a:	cf 91       	pop	r28
    201c:	df 91       	pop	r29
    201e:	08 95       	ret

00002020 <print_seven_seg_2_digit>:


void print_seven_seg_2_digit(uint8 Number)
{
    2020:	df 93       	push	r29
    2022:	cf 93       	push	r28
    2024:	cd b7       	in	r28, 0x3d	; 61
    2026:	de b7       	in	r29, 0x3e	; 62
    2028:	6f 97       	sbiw	r28, 0x1f	; 31
    202a:	0f b6       	in	r0, 0x3f	; 63
    202c:	f8 94       	cli
    202e:	de bf       	out	0x3e, r29	; 62
    2030:	0f be       	out	0x3f, r0	; 63
    2032:	cd bf       	out	0x3d, r28	; 61
    2034:	8f 8f       	std	Y+31, r24	; 0x1f
	uint8 index1 = Number%10 ;
    2036:	8f 8d       	ldd	r24, Y+31	; 0x1f
    2038:	9a e0       	ldi	r25, 0x0A	; 10
    203a:	69 2f       	mov	r22, r25
    203c:	0e 94 db 22 	call	0x45b6	; 0x45b6 <__udivmodqi4>
    2040:	89 2f       	mov	r24, r25
    2042:	8e 8f       	std	Y+30, r24	; 0x1e
	DIO_VoidSetPinValue(PORTD,PIN_1,LOW);
    2044:	83 e0       	ldi	r24, 0x03	; 3
    2046:	61 e0       	ldi	r22, 0x01	; 1
    2048:	40 e0       	ldi	r20, 0x00	; 0
    204a:	0e 94 39 0a 	call	0x1472	; 0x1472 <DIO_VoidSetPinValue>
	DIO_VoidSetPinValue(PORTD,PIN_0,HIGH);
    204e:	83 e0       	ldi	r24, 0x03	; 3
    2050:	60 e0       	ldi	r22, 0x00	; 0
    2052:	41 e0       	ldi	r20, 0x01	; 1
    2054:	0e 94 39 0a 	call	0x1472	; 0x1472 <DIO_VoidSetPinValue>
	DIO_VoidSetSpecialPortValue(PORTC , array[index1]);
    2058:	8e 8d       	ldd	r24, Y+30	; 0x1e
    205a:	88 2f       	mov	r24, r24
    205c:	90 e0       	ldi	r25, 0x00	; 0
    205e:	fc 01       	movw	r30, r24
    2060:	e5 5f       	subi	r30, 0xF5	; 245
    2062:	fe 4f       	sbci	r31, 0xFE	; 254
    2064:	90 81       	ld	r25, Z
    2066:	82 e0       	ldi	r24, 0x02	; 2
    2068:	69 2f       	mov	r22, r25
    206a:	0e 94 f9 0d 	call	0x1bf2	; 0x1bf2 <DIO_VoidSetSpecialPortValue>
    206e:	80 e0       	ldi	r24, 0x00	; 0
    2070:	90 e0       	ldi	r25, 0x00	; 0
    2072:	a8 e4       	ldi	r26, 0x48	; 72
    2074:	b2 e4       	ldi	r27, 0x42	; 66
    2076:	89 8f       	std	Y+25, r24	; 0x19
    2078:	9a 8f       	std	Y+26, r25	; 0x1a
    207a:	ab 8f       	std	Y+27, r26	; 0x1b
    207c:	bc 8f       	std	Y+28, r27	; 0x1c
 */
void
_delay_ms(double __ms)
{
	uint16_t __ticks;
	double __tmp = ((F_CPU) / 4e3) * __ms;
    207e:	69 8d       	ldd	r22, Y+25	; 0x19
    2080:	7a 8d       	ldd	r23, Y+26	; 0x1a
    2082:	8b 8d       	ldd	r24, Y+27	; 0x1b
    2084:	9c 8d       	ldd	r25, Y+28	; 0x1c
    2086:	20 e0       	ldi	r18, 0x00	; 0
    2088:	30 e0       	ldi	r19, 0x00	; 0
    208a:	4a ef       	ldi	r20, 0xFA	; 250
    208c:	54 e4       	ldi	r21, 0x44	; 68
    208e:	0e 94 1f 02 	call	0x43e	; 0x43e <__mulsf3>
    2092:	dc 01       	movw	r26, r24
    2094:	cb 01       	movw	r24, r22
    2096:	8d 8b       	std	Y+21, r24	; 0x15
    2098:	9e 8b       	std	Y+22, r25	; 0x16
    209a:	af 8b       	std	Y+23, r26	; 0x17
    209c:	b8 8f       	std	Y+24, r27	; 0x18
	if (__tmp < 1.0)
    209e:	6d 89       	ldd	r22, Y+21	; 0x15
    20a0:	7e 89       	ldd	r23, Y+22	; 0x16
    20a2:	8f 89       	ldd	r24, Y+23	; 0x17
    20a4:	98 8d       	ldd	r25, Y+24	; 0x18
    20a6:	20 e0       	ldi	r18, 0x00	; 0
    20a8:	30 e0       	ldi	r19, 0x00	; 0
    20aa:	40 e8       	ldi	r20, 0x80	; 128
    20ac:	5f e3       	ldi	r21, 0x3F	; 63
    20ae:	0e 94 79 03 	call	0x6f2	; 0x6f2 <__ltsf2>
    20b2:	88 23       	and	r24, r24
    20b4:	2c f4       	brge	.+10     	; 0x20c0 <print_seven_seg_2_digit+0xa0>
		__ticks = 1;
    20b6:	81 e0       	ldi	r24, 0x01	; 1
    20b8:	90 e0       	ldi	r25, 0x00	; 0
    20ba:	9c 8b       	std	Y+20, r25	; 0x14
    20bc:	8b 8b       	std	Y+19, r24	; 0x13
    20be:	3f c0       	rjmp	.+126    	; 0x213e <print_seven_seg_2_digit+0x11e>
	else if (__tmp > 65535)
    20c0:	6d 89       	ldd	r22, Y+21	; 0x15
    20c2:	7e 89       	ldd	r23, Y+22	; 0x16
    20c4:	8f 89       	ldd	r24, Y+23	; 0x17
    20c6:	98 8d       	ldd	r25, Y+24	; 0x18
    20c8:	20 e0       	ldi	r18, 0x00	; 0
    20ca:	3f ef       	ldi	r19, 0xFF	; 255
    20cc:	4f e7       	ldi	r20, 0x7F	; 127
    20ce:	57 e4       	ldi	r21, 0x47	; 71
    20d0:	0e 94 19 03 	call	0x632	; 0x632 <__gtsf2>
    20d4:	18 16       	cp	r1, r24
    20d6:	4c f5       	brge	.+82     	; 0x212a <print_seven_seg_2_digit+0x10a>
	{
		//	__ticks = requested delay in 1/10 ms
		__ticks = (uint16_t) (__ms * 10.0);
    20d8:	69 8d       	ldd	r22, Y+25	; 0x19
    20da:	7a 8d       	ldd	r23, Y+26	; 0x1a
    20dc:	8b 8d       	ldd	r24, Y+27	; 0x1b
    20de:	9c 8d       	ldd	r25, Y+28	; 0x1c
    20e0:	20 e0       	ldi	r18, 0x00	; 0
    20e2:	30 e0       	ldi	r19, 0x00	; 0
    20e4:	40 e2       	ldi	r20, 0x20	; 32
    20e6:	51 e4       	ldi	r21, 0x41	; 65
    20e8:	0e 94 1f 02 	call	0x43e	; 0x43e <__mulsf3>
    20ec:	dc 01       	movw	r26, r24
    20ee:	cb 01       	movw	r24, r22
    20f0:	bc 01       	movw	r22, r24
    20f2:	cd 01       	movw	r24, r26
    20f4:	0e 94 49 00 	call	0x92	; 0x92 <__fixunssfsi>
    20f8:	dc 01       	movw	r26, r24
    20fa:	cb 01       	movw	r24, r22
    20fc:	9c 8b       	std	Y+20, r25	; 0x14
    20fe:	8b 8b       	std	Y+19, r24	; 0x13
    2100:	0f c0       	rjmp	.+30     	; 0x2120 <print_seven_seg_2_digit+0x100>
    2102:	88 ec       	ldi	r24, 0xC8	; 200
    2104:	90 e0       	ldi	r25, 0x00	; 0
    2106:	9a 8b       	std	Y+18, r25	; 0x12
    2108:	89 8b       	std	Y+17, r24	; 0x11
    milliseconds can be achieved.
 */
void
_delay_loop_2(uint16_t __count)
{
	__asm__ volatile (
    210a:	89 89       	ldd	r24, Y+17	; 0x11
    210c:	9a 89       	ldd	r25, Y+18	; 0x12
    210e:	01 97       	sbiw	r24, 0x01	; 1
    2110:	f1 f7       	brne	.-4      	; 0x210e <print_seven_seg_2_digit+0xee>
    2112:	9a 8b       	std	Y+18, r25	; 0x12
    2114:	89 8b       	std	Y+17, r24	; 0x11
		while(__ticks)
		{
			// wait 1/10 ms
			_delay_loop_2(((F_CPU) / 4e3) / 10);
			__ticks --;
    2116:	8b 89       	ldd	r24, Y+19	; 0x13
    2118:	9c 89       	ldd	r25, Y+20	; 0x14
    211a:	01 97       	sbiw	r24, 0x01	; 1
    211c:	9c 8b       	std	Y+20, r25	; 0x14
    211e:	8b 8b       	std	Y+19, r24	; 0x13
		__ticks = 1;
	else if (__tmp > 65535)
	{
		//	__ticks = requested delay in 1/10 ms
		__ticks = (uint16_t) (__ms * 10.0);
		while(__ticks)
    2120:	8b 89       	ldd	r24, Y+19	; 0x13
    2122:	9c 89       	ldd	r25, Y+20	; 0x14
    2124:	00 97       	sbiw	r24, 0x00	; 0
    2126:	69 f7       	brne	.-38     	; 0x2102 <print_seven_seg_2_digit+0xe2>
    2128:	14 c0       	rjmp	.+40     	; 0x2152 <print_seven_seg_2_digit+0x132>
			__ticks --;
		}
		return;
	}
	else
		__ticks = (uint16_t)__tmp;
    212a:	6d 89       	ldd	r22, Y+21	; 0x15
    212c:	7e 89       	ldd	r23, Y+22	; 0x16
    212e:	8f 89       	ldd	r24, Y+23	; 0x17
    2130:	98 8d       	ldd	r25, Y+24	; 0x18
    2132:	0e 94 49 00 	call	0x92	; 0x92 <__fixunssfsi>
    2136:	dc 01       	movw	r26, r24
    2138:	cb 01       	movw	r24, r22
    213a:	9c 8b       	std	Y+20, r25	; 0x14
    213c:	8b 8b       	std	Y+19, r24	; 0x13
    213e:	8b 89       	ldd	r24, Y+19	; 0x13
    2140:	9c 89       	ldd	r25, Y+20	; 0x14
    2142:	98 8b       	std	Y+16, r25	; 0x10
    2144:	8f 87       	std	Y+15, r24	; 0x0f
    2146:	8f 85       	ldd	r24, Y+15	; 0x0f
    2148:	98 89       	ldd	r25, Y+16	; 0x10
    214a:	01 97       	sbiw	r24, 0x01	; 1
    214c:	f1 f7       	brne	.-4      	; 0x214a <print_seven_seg_2_digit+0x12a>
    214e:	98 8b       	std	Y+16, r25	; 0x10
    2150:	8f 87       	std	Y+15, r24	; 0x0f
	_delay_ms(50);

	uint8 index2 = Number/10 ;
    2152:	8f 8d       	ldd	r24, Y+31	; 0x1f
    2154:	9a e0       	ldi	r25, 0x0A	; 10
    2156:	69 2f       	mov	r22, r25
    2158:	0e 94 db 22 	call	0x45b6	; 0x45b6 <__udivmodqi4>
    215c:	8d 8f       	std	Y+29, r24	; 0x1d
	DIO_VoidSetPinValue(PORTD,PIN_0,LOW);
    215e:	83 e0       	ldi	r24, 0x03	; 3
    2160:	60 e0       	ldi	r22, 0x00	; 0
    2162:	40 e0       	ldi	r20, 0x00	; 0
    2164:	0e 94 39 0a 	call	0x1472	; 0x1472 <DIO_VoidSetPinValue>
	DIO_VoidSetPinValue(PORTD,PIN_1,HIGH);
    2168:	83 e0       	ldi	r24, 0x03	; 3
    216a:	61 e0       	ldi	r22, 0x01	; 1
    216c:	41 e0       	ldi	r20, 0x01	; 1
    216e:	0e 94 39 0a 	call	0x1472	; 0x1472 <DIO_VoidSetPinValue>
	DIO_VoidSetSpecialPortValue(PORTC , array[index2]);
    2172:	8d 8d       	ldd	r24, Y+29	; 0x1d
    2174:	88 2f       	mov	r24, r24
    2176:	90 e0       	ldi	r25, 0x00	; 0
    2178:	fc 01       	movw	r30, r24
    217a:	e5 5f       	subi	r30, 0xF5	; 245
    217c:	fe 4f       	sbci	r31, 0xFE	; 254
    217e:	90 81       	ld	r25, Z
    2180:	82 e0       	ldi	r24, 0x02	; 2
    2182:	69 2f       	mov	r22, r25
    2184:	0e 94 f9 0d 	call	0x1bf2	; 0x1bf2 <DIO_VoidSetSpecialPortValue>
    2188:	80 e0       	ldi	r24, 0x00	; 0
    218a:	90 e0       	ldi	r25, 0x00	; 0
    218c:	a8 e4       	ldi	r26, 0x48	; 72
    218e:	b2 e4       	ldi	r27, 0x42	; 66
    2190:	8b 87       	std	Y+11, r24	; 0x0b
    2192:	9c 87       	std	Y+12, r25	; 0x0c
    2194:	ad 87       	std	Y+13, r26	; 0x0d
    2196:	be 87       	std	Y+14, r27	; 0x0e
 */
void
_delay_ms(double __ms)
{
	uint16_t __ticks;
	double __tmp = ((F_CPU) / 4e3) * __ms;
    2198:	6b 85       	ldd	r22, Y+11	; 0x0b
    219a:	7c 85       	ldd	r23, Y+12	; 0x0c
    219c:	8d 85       	ldd	r24, Y+13	; 0x0d
    219e:	9e 85       	ldd	r25, Y+14	; 0x0e
    21a0:	20 e0       	ldi	r18, 0x00	; 0
    21a2:	30 e0       	ldi	r19, 0x00	; 0
    21a4:	4a ef       	ldi	r20, 0xFA	; 250
    21a6:	54 e4       	ldi	r21, 0x44	; 68
    21a8:	0e 94 1f 02 	call	0x43e	; 0x43e <__mulsf3>
    21ac:	dc 01       	movw	r26, r24
    21ae:	cb 01       	movw	r24, r22
    21b0:	8f 83       	std	Y+7, r24	; 0x07
    21b2:	98 87       	std	Y+8, r25	; 0x08
    21b4:	a9 87       	std	Y+9, r26	; 0x09
    21b6:	ba 87       	std	Y+10, r27	; 0x0a
	if (__tmp < 1.0)
    21b8:	6f 81       	ldd	r22, Y+7	; 0x07
    21ba:	78 85       	ldd	r23, Y+8	; 0x08
    21bc:	89 85       	ldd	r24, Y+9	; 0x09
    21be:	9a 85       	ldd	r25, Y+10	; 0x0a
    21c0:	20 e0       	ldi	r18, 0x00	; 0
    21c2:	30 e0       	ldi	r19, 0x00	; 0
    21c4:	40 e8       	ldi	r20, 0x80	; 128
    21c6:	5f e3       	ldi	r21, 0x3F	; 63
    21c8:	0e 94 79 03 	call	0x6f2	; 0x6f2 <__ltsf2>
    21cc:	88 23       	and	r24, r24
    21ce:	2c f4       	brge	.+10     	; 0x21da <print_seven_seg_2_digit+0x1ba>
		__ticks = 1;
    21d0:	81 e0       	ldi	r24, 0x01	; 1
    21d2:	90 e0       	ldi	r25, 0x00	; 0
    21d4:	9e 83       	std	Y+6, r25	; 0x06
    21d6:	8d 83       	std	Y+5, r24	; 0x05
    21d8:	3f c0       	rjmp	.+126    	; 0x2258 <print_seven_seg_2_digit+0x238>
	else if (__tmp > 65535)
    21da:	6f 81       	ldd	r22, Y+7	; 0x07
    21dc:	78 85       	ldd	r23, Y+8	; 0x08
    21de:	89 85       	ldd	r24, Y+9	; 0x09
    21e0:	9a 85       	ldd	r25, Y+10	; 0x0a
    21e2:	20 e0       	ldi	r18, 0x00	; 0
    21e4:	3f ef       	ldi	r19, 0xFF	; 255
    21e6:	4f e7       	ldi	r20, 0x7F	; 127
    21e8:	57 e4       	ldi	r21, 0x47	; 71
    21ea:	0e 94 19 03 	call	0x632	; 0x632 <__gtsf2>
    21ee:	18 16       	cp	r1, r24
    21f0:	4c f5       	brge	.+82     	; 0x2244 <print_seven_seg_2_digit+0x224>
	{
		//	__ticks = requested delay in 1/10 ms
		__ticks = (uint16_t) (__ms * 10.0);
    21f2:	6b 85       	ldd	r22, Y+11	; 0x0b
    21f4:	7c 85       	ldd	r23, Y+12	; 0x0c
    21f6:	8d 85       	ldd	r24, Y+13	; 0x0d
    21f8:	9e 85       	ldd	r25, Y+14	; 0x0e
    21fa:	20 e0       	ldi	r18, 0x00	; 0
    21fc:	30 e0       	ldi	r19, 0x00	; 0
    21fe:	40 e2       	ldi	r20, 0x20	; 32
    2200:	51 e4       	ldi	r21, 0x41	; 65
    2202:	0e 94 1f 02 	call	0x43e	; 0x43e <__mulsf3>
    2206:	dc 01       	movw	r26, r24
    2208:	cb 01       	movw	r24, r22
    220a:	bc 01       	movw	r22, r24
    220c:	cd 01       	movw	r24, r26
    220e:	0e 94 49 00 	call	0x92	; 0x92 <__fixunssfsi>
    2212:	dc 01       	movw	r26, r24
    2214:	cb 01       	movw	r24, r22
    2216:	9e 83       	std	Y+6, r25	; 0x06
    2218:	8d 83       	std	Y+5, r24	; 0x05
    221a:	0f c0       	rjmp	.+30     	; 0x223a <print_seven_seg_2_digit+0x21a>
    221c:	88 ec       	ldi	r24, 0xC8	; 200
    221e:	90 e0       	ldi	r25, 0x00	; 0
    2220:	9c 83       	std	Y+4, r25	; 0x04
    2222:	8b 83       	std	Y+3, r24	; 0x03
    2224:	8b 81       	ldd	r24, Y+3	; 0x03
    2226:	9c 81       	ldd	r25, Y+4	; 0x04
    2228:	01 97       	sbiw	r24, 0x01	; 1
    222a:	f1 f7       	brne	.-4      	; 0x2228 <print_seven_seg_2_digit+0x208>
    222c:	9c 83       	std	Y+4, r25	; 0x04
    222e:	8b 83       	std	Y+3, r24	; 0x03
		while(__ticks)
		{
			// wait 1/10 ms
			_delay_loop_2(((F_CPU) / 4e3) / 10);
			__ticks --;
    2230:	8d 81       	ldd	r24, Y+5	; 0x05
    2232:	9e 81       	ldd	r25, Y+6	; 0x06
    2234:	01 97       	sbiw	r24, 0x01	; 1
    2236:	9e 83       	std	Y+6, r25	; 0x06
    2238:	8d 83       	std	Y+5, r24	; 0x05
		__ticks = 1;
	else if (__tmp > 65535)
	{
		//	__ticks = requested delay in 1/10 ms
		__ticks = (uint16_t) (__ms * 10.0);
		while(__ticks)
    223a:	8d 81       	ldd	r24, Y+5	; 0x05
    223c:	9e 81       	ldd	r25, Y+6	; 0x06
    223e:	00 97       	sbiw	r24, 0x00	; 0
    2240:	69 f7       	brne	.-38     	; 0x221c <print_seven_seg_2_digit+0x1fc>
    2242:	14 c0       	rjmp	.+40     	; 0x226c <print_seven_seg_2_digit+0x24c>
			__ticks --;
		}
		return;
	}
	else
		__ticks = (uint16_t)__tmp;
    2244:	6f 81       	ldd	r22, Y+7	; 0x07
    2246:	78 85       	ldd	r23, Y+8	; 0x08
    2248:	89 85       	ldd	r24, Y+9	; 0x09
    224a:	9a 85       	ldd	r25, Y+10	; 0x0a
    224c:	0e 94 49 00 	call	0x92	; 0x92 <__fixunssfsi>
    2250:	dc 01       	movw	r26, r24
    2252:	cb 01       	movw	r24, r22
    2254:	9e 83       	std	Y+6, r25	; 0x06
    2256:	8d 83       	std	Y+5, r24	; 0x05
    2258:	8d 81       	ldd	r24, Y+5	; 0x05
    225a:	9e 81       	ldd	r25, Y+6	; 0x06
    225c:	9a 83       	std	Y+2, r25	; 0x02
    225e:	89 83       	std	Y+1, r24	; 0x01
    2260:	89 81       	ldd	r24, Y+1	; 0x01
    2262:	9a 81       	ldd	r25, Y+2	; 0x02
    2264:	01 97       	sbiw	r24, 0x01	; 1
    2266:	f1 f7       	brne	.-4      	; 0x2264 <print_seven_seg_2_digit+0x244>
    2268:	9a 83       	std	Y+2, r25	; 0x02
    226a:	89 83       	std	Y+1, r24	; 0x01
	_delay_ms(50);


}
    226c:	6f 96       	adiw	r28, 0x1f	; 31
    226e:	0f b6       	in	r0, 0x3f	; 63
    2270:	f8 94       	cli
    2272:	de bf       	out	0x3e, r29	; 62
    2274:	0f be       	out	0x3f, r0	; 63
    2276:	cd bf       	out	0x3d, r28	; 61
    2278:	cf 91       	pop	r28
    227a:	df 91       	pop	r29
    227c:	08 95       	ret

0000227e <SpetialSeven7>:



void SpetialSeven7(uint8 number)
{
    227e:	df 93       	push	r29
    2280:	cf 93       	push	r28
    2282:	0f 92       	push	r0
    2284:	cd b7       	in	r28, 0x3d	; 61
    2286:	de b7       	in	r29, 0x3e	; 62
    2288:	89 83       	std	Y+1, r24	; 0x01

	DIO_VoidSetPinDir(ENABLE_PORT,ENABLE_ONES , OUTPUT);
    228a:	83 e0       	ldi	r24, 0x03	; 3
    228c:	60 e0       	ldi	r22, 0x00	; 0
    228e:	41 e0       	ldi	r20, 0x01	; 1
    2290:	0e 94 47 09 	call	0x128e	; 0x128e <DIO_VoidSetPinDir>


	if(number==0)
    2294:	89 81       	ldd	r24, Y+1	; 0x01
    2296:	88 23       	and	r24, r24
    2298:	09 f0       	breq	.+2      	; 0x229c <SpetialSeven7+0x1e>
    229a:	41 c0       	rjmp	.+130    	; 0x231e <SpetialSeven7+0xa0>
	{

		DIO_VoidSetPinDir(PORTD,PIN_0,OUTPUT);
    229c:	83 e0       	ldi	r24, 0x03	; 3
    229e:	60 e0       	ldi	r22, 0x00	; 0
    22a0:	41 e0       	ldi	r20, 0x01	; 1
    22a2:	0e 94 47 09 	call	0x128e	; 0x128e <DIO_VoidSetPinDir>
		DIO_VoidSetPinDir(PORTC,PIN_3,OUTPUT);
    22a6:	82 e0       	ldi	r24, 0x02	; 2
    22a8:	63 e0       	ldi	r22, 0x03	; 3
    22aa:	41 e0       	ldi	r20, 0x01	; 1
    22ac:	0e 94 47 09 	call	0x128e	; 0x128e <DIO_VoidSetPinDir>
		DIO_VoidSetPinDir(PORTC,PIN_4,OUTPUT);
    22b0:	82 e0       	ldi	r24, 0x02	; 2
    22b2:	64 e0       	ldi	r22, 0x04	; 4
    22b4:	41 e0       	ldi	r20, 0x01	; 1
    22b6:	0e 94 47 09 	call	0x128e	; 0x128e <DIO_VoidSetPinDir>
		DIO_VoidSetPinDir(PORTC,PIN_5,OUTPUT);
    22ba:	82 e0       	ldi	r24, 0x02	; 2
    22bc:	65 e0       	ldi	r22, 0x05	; 5
    22be:	41 e0       	ldi	r20, 0x01	; 1
    22c0:	0e 94 47 09 	call	0x128e	; 0x128e <DIO_VoidSetPinDir>
		DIO_VoidSetPinDir(PORTC,PIN_6,OUTPUT);
    22c4:	82 e0       	ldi	r24, 0x02	; 2
    22c6:	66 e0       	ldi	r22, 0x06	; 6
    22c8:	41 e0       	ldi	r20, 0x01	; 1
    22ca:	0e 94 47 09 	call	0x128e	; 0x128e <DIO_VoidSetPinDir>
		DIO_VoidSetPinDir(PORTC,PIN_7,OUTPUT);
    22ce:	82 e0       	ldi	r24, 0x02	; 2
    22d0:	67 e0       	ldi	r22, 0x07	; 7
    22d2:	41 e0       	ldi	r20, 0x01	; 1
    22d4:	0e 94 47 09 	call	0x128e	; 0x128e <DIO_VoidSetPinDir>


		DIO_VoidSetPinValue(PORTD,PIN_0,INPUT);
    22d8:	83 e0       	ldi	r24, 0x03	; 3
    22da:	60 e0       	ldi	r22, 0x00	; 0
    22dc:	40 e0       	ldi	r20, 0x00	; 0
    22de:	0e 94 39 0a 	call	0x1472	; 0x1472 <DIO_VoidSetPinValue>
		DIO_VoidSetPinValue(PORTC,PIN_3,INPUT);
    22e2:	82 e0       	ldi	r24, 0x02	; 2
    22e4:	63 e0       	ldi	r22, 0x03	; 3
    22e6:	40 e0       	ldi	r20, 0x00	; 0
    22e8:	0e 94 39 0a 	call	0x1472	; 0x1472 <DIO_VoidSetPinValue>
		DIO_VoidSetPinValue(PORTC,PIN_4,INPUT);
    22ec:	82 e0       	ldi	r24, 0x02	; 2
    22ee:	64 e0       	ldi	r22, 0x04	; 4
    22f0:	40 e0       	ldi	r20, 0x00	; 0
    22f2:	0e 94 39 0a 	call	0x1472	; 0x1472 <DIO_VoidSetPinValue>
		DIO_VoidSetPinValue(PORTC,PIN_2,OUTPUT);
    22f6:	82 e0       	ldi	r24, 0x02	; 2
    22f8:	62 e0       	ldi	r22, 0x02	; 2
    22fa:	41 e0       	ldi	r20, 0x01	; 1
    22fc:	0e 94 39 0a 	call	0x1472	; 0x1472 <DIO_VoidSetPinValue>
		DIO_VoidSetPinValue(PORTC,PIN_5,INPUT);
    2300:	82 e0       	ldi	r24, 0x02	; 2
    2302:	65 e0       	ldi	r22, 0x05	; 5
    2304:	40 e0       	ldi	r20, 0x00	; 0
    2306:	0e 94 39 0a 	call	0x1472	; 0x1472 <DIO_VoidSetPinValue>
		DIO_VoidSetPinValue(PORTC,PIN_6,INPUT);
    230a:	82 e0       	ldi	r24, 0x02	; 2
    230c:	66 e0       	ldi	r22, 0x06	; 6
    230e:	40 e0       	ldi	r20, 0x00	; 0
    2310:	0e 94 39 0a 	call	0x1472	; 0x1472 <DIO_VoidSetPinValue>
		DIO_VoidSetPinValue(PORTC,PIN_7,INPUT);
    2314:	82 e0       	ldi	r24, 0x02	; 2
    2316:	67 e0       	ldi	r22, 0x07	; 7
    2318:	40 e0       	ldi	r20, 0x00	; 0
    231a:	0e 94 39 0a 	call	0x1472	; 0x1472 <DIO_VoidSetPinValue>

	}
	if(number==1)
    231e:	89 81       	ldd	r24, Y+1	; 0x01
    2320:	81 30       	cpi	r24, 0x01	; 1
    2322:	71 f5       	brne	.+92     	; 0x2380 <SpetialSeven7+0x102>
	{

		DIO_VoidSetPinDir(PORTC,PIN_3,OUTPUT);
    2324:	82 e0       	ldi	r24, 0x02	; 2
    2326:	63 e0       	ldi	r22, 0x03	; 3
    2328:	41 e0       	ldi	r20, 0x01	; 1
    232a:	0e 94 47 09 	call	0x128e	; 0x128e <DIO_VoidSetPinDir>
		DIO_VoidSetPinDir(PORTC,PIN_4,OUTPUT);
    232e:	82 e0       	ldi	r24, 0x02	; 2
    2330:	64 e0       	ldi	r22, 0x04	; 4
    2332:	41 e0       	ldi	r20, 0x01	; 1
    2334:	0e 94 47 09 	call	0x128e	; 0x128e <DIO_VoidSetPinDir>

		DIO_VoidSetPinValue(PORTC,PIN_3,INPUT);
    2338:	82 e0       	ldi	r24, 0x02	; 2
    233a:	63 e0       	ldi	r22, 0x03	; 3
    233c:	40 e0       	ldi	r20, 0x00	; 0
    233e:	0e 94 39 0a 	call	0x1472	; 0x1472 <DIO_VoidSetPinValue>
		DIO_VoidSetPinValue(PORTC,PIN_4,INPUT);
    2342:	82 e0       	ldi	r24, 0x02	; 2
    2344:	64 e0       	ldi	r22, 0x04	; 4
    2346:	40 e0       	ldi	r20, 0x00	; 0
    2348:	0e 94 39 0a 	call	0x1472	; 0x1472 <DIO_VoidSetPinValue>

		DIO_VoidSetPinValue(PORTD,PIN_0,OUTPUT);
    234c:	83 e0       	ldi	r24, 0x03	; 3
    234e:	60 e0       	ldi	r22, 0x00	; 0
    2350:	41 e0       	ldi	r20, 0x01	; 1
    2352:	0e 94 39 0a 	call	0x1472	; 0x1472 <DIO_VoidSetPinValue>
		DIO_VoidSetPinValue(PORTC,PIN_2,OUTPUT);
    2356:	82 e0       	ldi	r24, 0x02	; 2
    2358:	62 e0       	ldi	r22, 0x02	; 2
    235a:	41 e0       	ldi	r20, 0x01	; 1
    235c:	0e 94 39 0a 	call	0x1472	; 0x1472 <DIO_VoidSetPinValue>
		DIO_VoidSetPinValue(PORTC,PIN_5,OUTPUT);
    2360:	82 e0       	ldi	r24, 0x02	; 2
    2362:	65 e0       	ldi	r22, 0x05	; 5
    2364:	41 e0       	ldi	r20, 0x01	; 1
    2366:	0e 94 39 0a 	call	0x1472	; 0x1472 <DIO_VoidSetPinValue>
		DIO_VoidSetPinValue(PORTC,PIN_6,OUTPUT);
    236a:	82 e0       	ldi	r24, 0x02	; 2
    236c:	66 e0       	ldi	r22, 0x06	; 6
    236e:	41 e0       	ldi	r20, 0x01	; 1
    2370:	0e 94 39 0a 	call	0x1472	; 0x1472 <DIO_VoidSetPinValue>
		DIO_VoidSetPinValue(PORTC,PIN_7,OUTPUT);
    2374:	82 e0       	ldi	r24, 0x02	; 2
    2376:	67 e0       	ldi	r22, 0x07	; 7
    2378:	41 e0       	ldi	r20, 0x01	; 1
    237a:	0e 94 39 0a 	call	0x1472	; 0x1472 <DIO_VoidSetPinValue>
    237e:	7f c0       	rjmp	.+254    	; 0x247e <SpetialSeven7+0x200>

	}
	else if (number==2)
    2380:	89 81       	ldd	r24, Y+1	; 0x01
    2382:	82 30       	cpi	r24, 0x02	; 2
    2384:	e9 f5       	brne	.+122    	; 0x2400 <SpetialSeven7+0x182>
	{
		DIO_VoidSetPinDir(PORTC,PIN_2,OUTPUT);
    2386:	82 e0       	ldi	r24, 0x02	; 2
    2388:	62 e0       	ldi	r22, 0x02	; 2
    238a:	41 e0       	ldi	r20, 0x01	; 1
    238c:	0e 94 47 09 	call	0x128e	; 0x128e <DIO_VoidSetPinDir>
		DIO_VoidSetPinDir(PORTC,PIN_4,OUTPUT);
    2390:	82 e0       	ldi	r24, 0x02	; 2
    2392:	64 e0       	ldi	r22, 0x04	; 4
    2394:	41 e0       	ldi	r20, 0x01	; 1
    2396:	0e 94 47 09 	call	0x128e	; 0x128e <DIO_VoidSetPinDir>
		DIO_VoidSetPinDir(PORTC,PIN_5,OUTPUT);
    239a:	82 e0       	ldi	r24, 0x02	; 2
    239c:	65 e0       	ldi	r22, 0x05	; 5
    239e:	41 e0       	ldi	r20, 0x01	; 1
    23a0:	0e 94 47 09 	call	0x128e	; 0x128e <DIO_VoidSetPinDir>
		DIO_VoidSetPinDir(PORTC,PIN_6,OUTPUT);
    23a4:	82 e0       	ldi	r24, 0x02	; 2
    23a6:	66 e0       	ldi	r22, 0x06	; 6
    23a8:	41 e0       	ldi	r20, 0x01	; 1
    23aa:	0e 94 47 09 	call	0x128e	; 0x128e <DIO_VoidSetPinDir>
		DIO_VoidSetPinDir(PORTC,PIN_7,OUTPUT);
    23ae:	82 e0       	ldi	r24, 0x02	; 2
    23b0:	67 e0       	ldi	r22, 0x07	; 7
    23b2:	41 e0       	ldi	r20, 0x01	; 1
    23b4:	0e 94 47 09 	call	0x128e	; 0x128e <DIO_VoidSetPinDir>

		DIO_VoidSetPinValue(PORTD,PIN_0,OUTPUT);
    23b8:	83 e0       	ldi	r24, 0x03	; 3
    23ba:	60 e0       	ldi	r22, 0x00	; 0
    23bc:	41 e0       	ldi	r20, 0x01	; 1
    23be:	0e 94 39 0a 	call	0x1472	; 0x1472 <DIO_VoidSetPinValue>
		DIO_VoidSetPinValue(PORTC,PIN_3,OUTPUT);
    23c2:	82 e0       	ldi	r24, 0x02	; 2
    23c4:	63 e0       	ldi	r22, 0x03	; 3
    23c6:	41 e0       	ldi	r20, 0x01	; 1
    23c8:	0e 94 39 0a 	call	0x1472	; 0x1472 <DIO_VoidSetPinValue>

		DIO_VoidSetPinValue(PORTC,PIN_2,INPUT);
    23cc:	82 e0       	ldi	r24, 0x02	; 2
    23ce:	62 e0       	ldi	r22, 0x02	; 2
    23d0:	40 e0       	ldi	r20, 0x00	; 0
    23d2:	0e 94 39 0a 	call	0x1472	; 0x1472 <DIO_VoidSetPinValue>
		DIO_VoidSetPinValue(PORTC,PIN_4,INPUT);
    23d6:	82 e0       	ldi	r24, 0x02	; 2
    23d8:	64 e0       	ldi	r22, 0x04	; 4
    23da:	40 e0       	ldi	r20, 0x00	; 0
    23dc:	0e 94 39 0a 	call	0x1472	; 0x1472 <DIO_VoidSetPinValue>
		DIO_VoidSetPinValue(PORTC,PIN_5,INPUT);
    23e0:	82 e0       	ldi	r24, 0x02	; 2
    23e2:	65 e0       	ldi	r22, 0x05	; 5
    23e4:	40 e0       	ldi	r20, 0x00	; 0
    23e6:	0e 94 39 0a 	call	0x1472	; 0x1472 <DIO_VoidSetPinValue>
		DIO_VoidSetPinValue(PORTC,PIN_6,INPUT);
    23ea:	82 e0       	ldi	r24, 0x02	; 2
    23ec:	66 e0       	ldi	r22, 0x06	; 6
    23ee:	40 e0       	ldi	r20, 0x00	; 0
    23f0:	0e 94 39 0a 	call	0x1472	; 0x1472 <DIO_VoidSetPinValue>
		DIO_VoidSetPinValue(PORTC,PIN_7,INPUT);
    23f4:	82 e0       	ldi	r24, 0x02	; 2
    23f6:	67 e0       	ldi	r22, 0x07	; 7
    23f8:	40 e0       	ldi	r20, 0x00	; 0
    23fa:	0e 94 39 0a 	call	0x1472	; 0x1472 <DIO_VoidSetPinValue>
    23fe:	3f c0       	rjmp	.+126    	; 0x247e <SpetialSeven7+0x200>
	}
	else if (number==3)
    2400:	89 81       	ldd	r24, Y+1	; 0x01
    2402:	83 30       	cpi	r24, 0x03	; 3
    2404:	e1 f5       	brne	.+120    	; 0x247e <SpetialSeven7+0x200>
	{
		DIO_VoidSetPinDir(PORTC,PIN_2,OUTPUT);
    2406:	82 e0       	ldi	r24, 0x02	; 2
    2408:	62 e0       	ldi	r22, 0x02	; 2
    240a:	41 e0       	ldi	r20, 0x01	; 1
    240c:	0e 94 47 09 	call	0x128e	; 0x128e <DIO_VoidSetPinDir>
		DIO_VoidSetPinDir(PORTC,PIN_3,OUTPUT);
    2410:	82 e0       	ldi	r24, 0x02	; 2
    2412:	63 e0       	ldi	r22, 0x03	; 3
    2414:	41 e0       	ldi	r20, 0x01	; 1
    2416:	0e 94 47 09 	call	0x128e	; 0x128e <DIO_VoidSetPinDir>
		DIO_VoidSetPinDir(PORTC,PIN_4,OUTPUT);
    241a:	82 e0       	ldi	r24, 0x02	; 2
    241c:	64 e0       	ldi	r22, 0x04	; 4
    241e:	41 e0       	ldi	r20, 0x01	; 1
    2420:	0e 94 47 09 	call	0x128e	; 0x128e <DIO_VoidSetPinDir>
		DIO_VoidSetPinDir(PORTC,PIN_5,OUTPUT);
    2424:	82 e0       	ldi	r24, 0x02	; 2
    2426:	65 e0       	ldi	r22, 0x05	; 5
    2428:	41 e0       	ldi	r20, 0x01	; 1
    242a:	0e 94 47 09 	call	0x128e	; 0x128e <DIO_VoidSetPinDir>
		DIO_VoidSetPinDir(PORTC,PIN_7,OUTPUT);
    242e:	82 e0       	ldi	r24, 0x02	; 2
    2430:	67 e0       	ldi	r22, 0x07	; 7
    2432:	41 e0       	ldi	r20, 0x01	; 1
    2434:	0e 94 47 09 	call	0x128e	; 0x128e <DIO_VoidSetPinDir>


		DIO_VoidSetPinValue(PORTC,PIN_2,INPUT);
    2438:	82 e0       	ldi	r24, 0x02	; 2
    243a:	62 e0       	ldi	r22, 0x02	; 2
    243c:	40 e0       	ldi	r20, 0x00	; 0
    243e:	0e 94 39 0a 	call	0x1472	; 0x1472 <DIO_VoidSetPinValue>
		DIO_VoidSetPinValue(PORTC,PIN_3,INPUT);
    2442:	82 e0       	ldi	r24, 0x02	; 2
    2444:	63 e0       	ldi	r22, 0x03	; 3
    2446:	40 e0       	ldi	r20, 0x00	; 0
    2448:	0e 94 39 0a 	call	0x1472	; 0x1472 <DIO_VoidSetPinValue>
		DIO_VoidSetPinValue(PORTC,PIN_4,INPUT);
    244c:	82 e0       	ldi	r24, 0x02	; 2
    244e:	64 e0       	ldi	r22, 0x04	; 4
    2450:	40 e0       	ldi	r20, 0x00	; 0
    2452:	0e 94 39 0a 	call	0x1472	; 0x1472 <DIO_VoidSetPinValue>
		DIO_VoidSetPinValue(PORTC,PIN_5,INPUT);
    2456:	82 e0       	ldi	r24, 0x02	; 2
    2458:	65 e0       	ldi	r22, 0x05	; 5
    245a:	40 e0       	ldi	r20, 0x00	; 0
    245c:	0e 94 39 0a 	call	0x1472	; 0x1472 <DIO_VoidSetPinValue>

		DIO_VoidSetPinValue(PORTD,PIN_0,OUTPUT);
    2460:	83 e0       	ldi	r24, 0x03	; 3
    2462:	60 e0       	ldi	r22, 0x00	; 0
    2464:	41 e0       	ldi	r20, 0x01	; 1
    2466:	0e 94 39 0a 	call	0x1472	; 0x1472 <DIO_VoidSetPinValue>
		DIO_VoidSetPinValue(PORTC,PIN_6,OUTPUT);
    246a:	82 e0       	ldi	r24, 0x02	; 2
    246c:	66 e0       	ldi	r22, 0x06	; 6
    246e:	41 e0       	ldi	r20, 0x01	; 1
    2470:	0e 94 39 0a 	call	0x1472	; 0x1472 <DIO_VoidSetPinValue>

		DIO_VoidSetPinValue(PORTC,PIN_7,INPUT);
    2474:	82 e0       	ldi	r24, 0x02	; 2
    2476:	67 e0       	ldi	r22, 0x07	; 7
    2478:	40 e0       	ldi	r20, 0x00	; 0
    247a:	0e 94 39 0a 	call	0x1472	; 0x1472 <DIO_VoidSetPinValue>
	}
}
    247e:	0f 90       	pop	r0
    2480:	cf 91       	pop	r28
    2482:	df 91       	pop	r29
    2484:	08 95       	ret

00002486 <Servo_Init>:
#include "../../MCAL/DIO/Header/Dio_Config.h"

#include "../../MCAL/TIMER1/Header/Timer1_Interface.h"

void Servo_Init(void)
{
    2486:	df 93       	push	r29
    2488:	cf 93       	push	r28
    248a:	cd b7       	in	r28, 0x3d	; 61
    248c:	de b7       	in	r29, 0x3e	; 62
	DDRD_REG |= (1<<PIN_5);	/* Make OC1A pin as output */
    248e:	a1 e3       	ldi	r26, 0x31	; 49
    2490:	b0 e0       	ldi	r27, 0x00	; 0
    2492:	e1 e3       	ldi	r30, 0x31	; 49
    2494:	f0 e0       	ldi	r31, 0x00	; 0
    2496:	80 81       	ld	r24, Z
    2498:	80 62       	ori	r24, 0x20	; 32
    249a:	8c 93       	st	X, r24
}
    249c:	cf 91       	pop	r28
    249e:	df 91       	pop	r29
    24a0:	08 95       	ret

000024a2 <Sevro_Degre>:
void Sevro_Degre(uint8 Position)
{
    24a2:	df 93       	push	r29
    24a4:	cf 93       	push	r28
    24a6:	0f 92       	push	r0
    24a8:	cd b7       	in	r28, 0x3d	; 61
    24aa:	de b7       	in	r29, 0x3e	; 62
    24ac:	89 83       	std	Y+1, r24	; 0x01
	if(Position==0)
    24ae:	89 81       	ldd	r24, Y+1	; 0x01
    24b0:	88 23       	and	r24, r24
    24b2:	29 f4       	brne	.+10     	; 0x24be <Sevro_Degre+0x1c>
	{
		Timer1_Fast_PWM_Init(124);	/* Set Servo shaft at 0 position by 1 ms pulse */
    24b4:	8c e7       	ldi	r24, 0x7C	; 124
    24b6:	90 e0       	ldi	r25, 0x00	; 0
    24b8:	0e 94 9f 06 	call	0xd3e	; 0xd3e <Timer1_Fast_PWM_Init>
    24bc:	0f c0       	rjmp	.+30     	; 0x24dc <Sevro_Degre+0x3a>
	}
	else if(Position==90)
    24be:	89 81       	ldd	r24, Y+1	; 0x01
    24c0:	8a 35       	cpi	r24, 0x5A	; 90
    24c2:	29 f4       	brne	.+10     	; 0x24ce <Sevro_Degre+0x2c>
	{
		Timer1_Fast_PWM_Init(187);	/* Set Servo shaft at 90 position by 1.5 ms pulse */
    24c4:	8b eb       	ldi	r24, 0xBB	; 187
    24c6:	90 e0       	ldi	r25, 0x00	; 0
    24c8:	0e 94 9f 06 	call	0xd3e	; 0xd3e <Timer1_Fast_PWM_Init>
    24cc:	07 c0       	rjmp	.+14     	; 0x24dc <Sevro_Degre+0x3a>
	}
	else if(Position==180)
    24ce:	89 81       	ldd	r24, Y+1	; 0x01
    24d0:	84 3b       	cpi	r24, 0xB4	; 180
    24d2:	21 f4       	brne	.+8      	; 0x24dc <Sevro_Degre+0x3a>
	{
		Timer1_Fast_PWM_Init(250);	/* Set Servo shaft at 180 position by 2 ms pulse */
    24d4:	8a ef       	ldi	r24, 0xFA	; 250
    24d6:	90 e0       	ldi	r25, 0x00	; 0
    24d8:	0e 94 9f 06 	call	0xd3e	; 0xd3e <Timer1_Fast_PWM_Init>
	}
}
    24dc:	0f 90       	pop	r0
    24de:	cf 91       	pop	r28
    24e0:	df 91       	pop	r29
    24e2:	08 95       	ret

000024e4 <LED_VoidInit>:



/*******************SET DIERCTION OF PIN SHELL PORT , AND VALUE***************/
void LED_VoidInit(void)
{
    24e4:	df 93       	push	r29
    24e6:	cf 93       	push	r28
    24e8:	cd b7       	in	r28, 0x3d	; 61
    24ea:	de b7       	in	r29, 0x3e	; 62
	//DIO_VoidSetSpecialPortDir(LED_PORT,LED_Value);
	DIO_VoidSetPinDir(PORTA,PIN_2,OUTPUT);
    24ec:	80 e0       	ldi	r24, 0x00	; 0
    24ee:	62 e0       	ldi	r22, 0x02	; 2
    24f0:	41 e0       	ldi	r20, 0x01	; 1
    24f2:	0e 94 47 09 	call	0x128e	; 0x128e <DIO_VoidSetPinDir>
	DIO_VoidSetPinDir(PORTA,PIN_3,OUTPUT);
    24f6:	80 e0       	ldi	r24, 0x00	; 0
    24f8:	63 e0       	ldi	r22, 0x03	; 3
    24fa:	41 e0       	ldi	r20, 0x01	; 1
    24fc:	0e 94 47 09 	call	0x128e	; 0x128e <DIO_VoidSetPinDir>

}
    2500:	cf 91       	pop	r28
    2502:	df 91       	pop	r29
    2504:	08 95       	ret

00002506 <LED_VoidOnLed>:

/******************SET PIN VALUE HIGH TAKE LED COLLER**************************/
void LED_VoidOnLed(uint8 LED_VoidOnLed_Coller)
{
    2506:	df 93       	push	r29
    2508:	cf 93       	push	r28
    250a:	0f 92       	push	r0
    250c:	cd b7       	in	r28, 0x3d	; 61
    250e:	de b7       	in	r29, 0x3e	; 62
    2510:	89 83       	std	Y+1, r24	; 0x01
	DIO_VoidSetPinValue(LED_PORT,LED_VoidOnLed_Coller,HIGH) ;
    2512:	80 e0       	ldi	r24, 0x00	; 0
    2514:	69 81       	ldd	r22, Y+1	; 0x01
    2516:	41 e0       	ldi	r20, 0x01	; 1
    2518:	0e 94 39 0a 	call	0x1472	; 0x1472 <DIO_VoidSetPinValue>
}
    251c:	0f 90       	pop	r0
    251e:	cf 91       	pop	r28
    2520:	df 91       	pop	r29
    2522:	08 95       	ret

00002524 <LED_VoidOffLed>:



/*****************SET PIN VALUE LOW TAKE LED COLLER**************************/
void LED_VoidOffLed(uint8 LED_VoidOffLed_Coller)
{
    2524:	df 93       	push	r29
    2526:	cf 93       	push	r28
    2528:	0f 92       	push	r0
    252a:	cd b7       	in	r28, 0x3d	; 61
    252c:	de b7       	in	r29, 0x3e	; 62
    252e:	89 83       	std	Y+1, r24	; 0x01
	DIO_VoidSetPinValue(LED_PORT,LED_VoidOffLed_Coller,LOW) ;
    2530:	80 e0       	ldi	r24, 0x00	; 0
    2532:	69 81       	ldd	r22, Y+1	; 0x01
    2534:	40 e0       	ldi	r20, 0x00	; 0
    2536:	0e 94 39 0a 	call	0x1472	; 0x1472 <DIO_VoidSetPinValue>
}
    253a:	0f 90       	pop	r0
    253c:	cf 91       	pop	r28
    253e:	df 91       	pop	r29
    2540:	08 95       	ret

00002542 <LED_VoidToggelLed>:


/*****************SET PIN VALUE ToggeL TAKE LED COLLER**************************/
void LED_VoidToggelLed(uint8 LED_VoidToggeLed_Coller)
{
    2542:	df 93       	push	r29
    2544:	cf 93       	push	r28
    2546:	0f 92       	push	r0
    2548:	cd b7       	in	r28, 0x3d	; 61
    254a:	de b7       	in	r29, 0x3e	; 62
    254c:	89 83       	std	Y+1, r24	; 0x01
	DIO_VoidSetToggelValue(LED_PORT ,LED_VoidToggeLed_Coller);
    254e:	80 e0       	ldi	r24, 0x00	; 0
    2550:	69 81       	ldd	r22, Y+1	; 0x01
    2552:	0e 94 3a 0e 	call	0x1c74	; 0x1c74 <DIO_VoidSetToggelValue>
}
    2556:	0f 90       	pop	r0
    2558:	cf 91       	pop	r28
    255a:	df 91       	pop	r29
    255c:	08 95       	ret

0000255e <LED_VoidFlashLed>:


/*****************SET PIN VALUE Flash TAKE LED COLLER**************************/
void LED_VoidFlashLed(uint8 LED_VoidFlashLed_Coller)
{
    255e:	df 93       	push	r29
    2560:	cf 93       	push	r28
    2562:	cd b7       	in	r28, 0x3d	; 61
    2564:	de b7       	in	r29, 0x3e	; 62
    2566:	6d 97       	sbiw	r28, 0x1d	; 29
    2568:	0f b6       	in	r0, 0x3f	; 63
    256a:	f8 94       	cli
    256c:	de bf       	out	0x3e, r29	; 62
    256e:	0f be       	out	0x3f, r0	; 63
    2570:	cd bf       	out	0x3d, r28	; 61
    2572:	8d 8f       	std	Y+29, r24	; 0x1d
	DIO_VoidSetPinValue(LED_PORT,LED_VoidFlashLed_Coller,HIGH) ;
    2574:	80 e0       	ldi	r24, 0x00	; 0
    2576:	6d 8d       	ldd	r22, Y+29	; 0x1d
    2578:	41 e0       	ldi	r20, 0x01	; 1
    257a:	0e 94 39 0a 	call	0x1472	; 0x1472 <DIO_VoidSetPinValue>
    257e:	80 e0       	ldi	r24, 0x00	; 0
    2580:	90 e0       	ldi	r25, 0x00	; 0
    2582:	aa ef       	ldi	r26, 0xFA	; 250
    2584:	b3 e4       	ldi	r27, 0x43	; 67
    2586:	89 8f       	std	Y+25, r24	; 0x19
    2588:	9a 8f       	std	Y+26, r25	; 0x1a
    258a:	ab 8f       	std	Y+27, r26	; 0x1b
    258c:	bc 8f       	std	Y+28, r27	; 0x1c
 */
void
_delay_ms(double __ms)
{
	uint16_t __ticks;
	double __tmp = ((F_CPU) / 4e3) * __ms;
    258e:	69 8d       	ldd	r22, Y+25	; 0x19
    2590:	7a 8d       	ldd	r23, Y+26	; 0x1a
    2592:	8b 8d       	ldd	r24, Y+27	; 0x1b
    2594:	9c 8d       	ldd	r25, Y+28	; 0x1c
    2596:	20 e0       	ldi	r18, 0x00	; 0
    2598:	30 e0       	ldi	r19, 0x00	; 0
    259a:	4a ef       	ldi	r20, 0xFA	; 250
    259c:	54 e4       	ldi	r21, 0x44	; 68
    259e:	0e 94 1f 02 	call	0x43e	; 0x43e <__mulsf3>
    25a2:	dc 01       	movw	r26, r24
    25a4:	cb 01       	movw	r24, r22
    25a6:	8d 8b       	std	Y+21, r24	; 0x15
    25a8:	9e 8b       	std	Y+22, r25	; 0x16
    25aa:	af 8b       	std	Y+23, r26	; 0x17
    25ac:	b8 8f       	std	Y+24, r27	; 0x18
	if (__tmp < 1.0)
    25ae:	6d 89       	ldd	r22, Y+21	; 0x15
    25b0:	7e 89       	ldd	r23, Y+22	; 0x16
    25b2:	8f 89       	ldd	r24, Y+23	; 0x17
    25b4:	98 8d       	ldd	r25, Y+24	; 0x18
    25b6:	20 e0       	ldi	r18, 0x00	; 0
    25b8:	30 e0       	ldi	r19, 0x00	; 0
    25ba:	40 e8       	ldi	r20, 0x80	; 128
    25bc:	5f e3       	ldi	r21, 0x3F	; 63
    25be:	0e 94 79 03 	call	0x6f2	; 0x6f2 <__ltsf2>
    25c2:	88 23       	and	r24, r24
    25c4:	2c f4       	brge	.+10     	; 0x25d0 <LED_VoidFlashLed+0x72>
		__ticks = 1;
    25c6:	81 e0       	ldi	r24, 0x01	; 1
    25c8:	90 e0       	ldi	r25, 0x00	; 0
    25ca:	9c 8b       	std	Y+20, r25	; 0x14
    25cc:	8b 8b       	std	Y+19, r24	; 0x13
    25ce:	3f c0       	rjmp	.+126    	; 0x264e <LED_VoidFlashLed+0xf0>
	else if (__tmp > 65535)
    25d0:	6d 89       	ldd	r22, Y+21	; 0x15
    25d2:	7e 89       	ldd	r23, Y+22	; 0x16
    25d4:	8f 89       	ldd	r24, Y+23	; 0x17
    25d6:	98 8d       	ldd	r25, Y+24	; 0x18
    25d8:	20 e0       	ldi	r18, 0x00	; 0
    25da:	3f ef       	ldi	r19, 0xFF	; 255
    25dc:	4f e7       	ldi	r20, 0x7F	; 127
    25de:	57 e4       	ldi	r21, 0x47	; 71
    25e0:	0e 94 19 03 	call	0x632	; 0x632 <__gtsf2>
    25e4:	18 16       	cp	r1, r24
    25e6:	4c f5       	brge	.+82     	; 0x263a <LED_VoidFlashLed+0xdc>
	{
		//	__ticks = requested delay in 1/10 ms
		__ticks = (uint16_t) (__ms * 10.0);
    25e8:	69 8d       	ldd	r22, Y+25	; 0x19
    25ea:	7a 8d       	ldd	r23, Y+26	; 0x1a
    25ec:	8b 8d       	ldd	r24, Y+27	; 0x1b
    25ee:	9c 8d       	ldd	r25, Y+28	; 0x1c
    25f0:	20 e0       	ldi	r18, 0x00	; 0
    25f2:	30 e0       	ldi	r19, 0x00	; 0
    25f4:	40 e2       	ldi	r20, 0x20	; 32
    25f6:	51 e4       	ldi	r21, 0x41	; 65
    25f8:	0e 94 1f 02 	call	0x43e	; 0x43e <__mulsf3>
    25fc:	dc 01       	movw	r26, r24
    25fe:	cb 01       	movw	r24, r22
    2600:	bc 01       	movw	r22, r24
    2602:	cd 01       	movw	r24, r26
    2604:	0e 94 49 00 	call	0x92	; 0x92 <__fixunssfsi>
    2608:	dc 01       	movw	r26, r24
    260a:	cb 01       	movw	r24, r22
    260c:	9c 8b       	std	Y+20, r25	; 0x14
    260e:	8b 8b       	std	Y+19, r24	; 0x13
    2610:	0f c0       	rjmp	.+30     	; 0x2630 <LED_VoidFlashLed+0xd2>
    2612:	88 ec       	ldi	r24, 0xC8	; 200
    2614:	90 e0       	ldi	r25, 0x00	; 0
    2616:	9a 8b       	std	Y+18, r25	; 0x12
    2618:	89 8b       	std	Y+17, r24	; 0x11
    261a:	89 89       	ldd	r24, Y+17	; 0x11
    261c:	9a 89       	ldd	r25, Y+18	; 0x12
    261e:	01 97       	sbiw	r24, 0x01	; 1
    2620:	f1 f7       	brne	.-4      	; 0x261e <LED_VoidFlashLed+0xc0>
    2622:	9a 8b       	std	Y+18, r25	; 0x12
    2624:	89 8b       	std	Y+17, r24	; 0x11
		while(__ticks)
		{
			// wait 1/10 ms
			_delay_loop_2(((F_CPU) / 4e3) / 10);
			__ticks --;
    2626:	8b 89       	ldd	r24, Y+19	; 0x13
    2628:	9c 89       	ldd	r25, Y+20	; 0x14
    262a:	01 97       	sbiw	r24, 0x01	; 1
    262c:	9c 8b       	std	Y+20, r25	; 0x14
    262e:	8b 8b       	std	Y+19, r24	; 0x13
		__ticks = 1;
	else if (__tmp > 65535)
	{
		//	__ticks = requested delay in 1/10 ms
		__ticks = (uint16_t) (__ms * 10.0);
		while(__ticks)
    2630:	8b 89       	ldd	r24, Y+19	; 0x13
    2632:	9c 89       	ldd	r25, Y+20	; 0x14
    2634:	00 97       	sbiw	r24, 0x00	; 0
    2636:	69 f7       	brne	.-38     	; 0x2612 <LED_VoidFlashLed+0xb4>
    2638:	14 c0       	rjmp	.+40     	; 0x2662 <LED_VoidFlashLed+0x104>
			__ticks --;
		}
		return;
	}
	else
		__ticks = (uint16_t)__tmp;
    263a:	6d 89       	ldd	r22, Y+21	; 0x15
    263c:	7e 89       	ldd	r23, Y+22	; 0x16
    263e:	8f 89       	ldd	r24, Y+23	; 0x17
    2640:	98 8d       	ldd	r25, Y+24	; 0x18
    2642:	0e 94 49 00 	call	0x92	; 0x92 <__fixunssfsi>
    2646:	dc 01       	movw	r26, r24
    2648:	cb 01       	movw	r24, r22
    264a:	9c 8b       	std	Y+20, r25	; 0x14
    264c:	8b 8b       	std	Y+19, r24	; 0x13
    264e:	8b 89       	ldd	r24, Y+19	; 0x13
    2650:	9c 89       	ldd	r25, Y+20	; 0x14
    2652:	98 8b       	std	Y+16, r25	; 0x10
    2654:	8f 87       	std	Y+15, r24	; 0x0f
    2656:	8f 85       	ldd	r24, Y+15	; 0x0f
    2658:	98 89       	ldd	r25, Y+16	; 0x10
    265a:	01 97       	sbiw	r24, 0x01	; 1
    265c:	f1 f7       	brne	.-4      	; 0x265a <LED_VoidFlashLed+0xfc>
    265e:	98 8b       	std	Y+16, r25	; 0x10
    2660:	8f 87       	std	Y+15, r24	; 0x0f
	_delay_ms (500);
	DIO_VoidSetPinValue(LED_PORT,LED_VoidFlashLed_Coller,LOW) ;
    2662:	80 e0       	ldi	r24, 0x00	; 0
    2664:	6d 8d       	ldd	r22, Y+29	; 0x1d
    2666:	40 e0       	ldi	r20, 0x00	; 0
    2668:	0e 94 39 0a 	call	0x1472	; 0x1472 <DIO_VoidSetPinValue>
    266c:	80 e0       	ldi	r24, 0x00	; 0
    266e:	90 e0       	ldi	r25, 0x00	; 0
    2670:	aa ef       	ldi	r26, 0xFA	; 250
    2672:	b3 e4       	ldi	r27, 0x43	; 67
    2674:	8b 87       	std	Y+11, r24	; 0x0b
    2676:	9c 87       	std	Y+12, r25	; 0x0c
    2678:	ad 87       	std	Y+13, r26	; 0x0d
    267a:	be 87       	std	Y+14, r27	; 0x0e
 */
void
_delay_ms(double __ms)
{
	uint16_t __ticks;
	double __tmp = ((F_CPU) / 4e3) * __ms;
    267c:	6b 85       	ldd	r22, Y+11	; 0x0b
    267e:	7c 85       	ldd	r23, Y+12	; 0x0c
    2680:	8d 85       	ldd	r24, Y+13	; 0x0d
    2682:	9e 85       	ldd	r25, Y+14	; 0x0e
    2684:	20 e0       	ldi	r18, 0x00	; 0
    2686:	30 e0       	ldi	r19, 0x00	; 0
    2688:	4a ef       	ldi	r20, 0xFA	; 250
    268a:	54 e4       	ldi	r21, 0x44	; 68
    268c:	0e 94 1f 02 	call	0x43e	; 0x43e <__mulsf3>
    2690:	dc 01       	movw	r26, r24
    2692:	cb 01       	movw	r24, r22
    2694:	8f 83       	std	Y+7, r24	; 0x07
    2696:	98 87       	std	Y+8, r25	; 0x08
    2698:	a9 87       	std	Y+9, r26	; 0x09
    269a:	ba 87       	std	Y+10, r27	; 0x0a
	if (__tmp < 1.0)
    269c:	6f 81       	ldd	r22, Y+7	; 0x07
    269e:	78 85       	ldd	r23, Y+8	; 0x08
    26a0:	89 85       	ldd	r24, Y+9	; 0x09
    26a2:	9a 85       	ldd	r25, Y+10	; 0x0a
    26a4:	20 e0       	ldi	r18, 0x00	; 0
    26a6:	30 e0       	ldi	r19, 0x00	; 0
    26a8:	40 e8       	ldi	r20, 0x80	; 128
    26aa:	5f e3       	ldi	r21, 0x3F	; 63
    26ac:	0e 94 79 03 	call	0x6f2	; 0x6f2 <__ltsf2>
    26b0:	88 23       	and	r24, r24
    26b2:	2c f4       	brge	.+10     	; 0x26be <LED_VoidFlashLed+0x160>
		__ticks = 1;
    26b4:	81 e0       	ldi	r24, 0x01	; 1
    26b6:	90 e0       	ldi	r25, 0x00	; 0
    26b8:	9e 83       	std	Y+6, r25	; 0x06
    26ba:	8d 83       	std	Y+5, r24	; 0x05
    26bc:	3f c0       	rjmp	.+126    	; 0x273c <LED_VoidFlashLed+0x1de>
	else if (__tmp > 65535)
    26be:	6f 81       	ldd	r22, Y+7	; 0x07
    26c0:	78 85       	ldd	r23, Y+8	; 0x08
    26c2:	89 85       	ldd	r24, Y+9	; 0x09
    26c4:	9a 85       	ldd	r25, Y+10	; 0x0a
    26c6:	20 e0       	ldi	r18, 0x00	; 0
    26c8:	3f ef       	ldi	r19, 0xFF	; 255
    26ca:	4f e7       	ldi	r20, 0x7F	; 127
    26cc:	57 e4       	ldi	r21, 0x47	; 71
    26ce:	0e 94 19 03 	call	0x632	; 0x632 <__gtsf2>
    26d2:	18 16       	cp	r1, r24
    26d4:	4c f5       	brge	.+82     	; 0x2728 <LED_VoidFlashLed+0x1ca>
	{
		//	__ticks = requested delay in 1/10 ms
		__ticks = (uint16_t) (__ms * 10.0);
    26d6:	6b 85       	ldd	r22, Y+11	; 0x0b
    26d8:	7c 85       	ldd	r23, Y+12	; 0x0c
    26da:	8d 85       	ldd	r24, Y+13	; 0x0d
    26dc:	9e 85       	ldd	r25, Y+14	; 0x0e
    26de:	20 e0       	ldi	r18, 0x00	; 0
    26e0:	30 e0       	ldi	r19, 0x00	; 0
    26e2:	40 e2       	ldi	r20, 0x20	; 32
    26e4:	51 e4       	ldi	r21, 0x41	; 65
    26e6:	0e 94 1f 02 	call	0x43e	; 0x43e <__mulsf3>
    26ea:	dc 01       	movw	r26, r24
    26ec:	cb 01       	movw	r24, r22
    26ee:	bc 01       	movw	r22, r24
    26f0:	cd 01       	movw	r24, r26
    26f2:	0e 94 49 00 	call	0x92	; 0x92 <__fixunssfsi>
    26f6:	dc 01       	movw	r26, r24
    26f8:	cb 01       	movw	r24, r22
    26fa:	9e 83       	std	Y+6, r25	; 0x06
    26fc:	8d 83       	std	Y+5, r24	; 0x05
    26fe:	0f c0       	rjmp	.+30     	; 0x271e <LED_VoidFlashLed+0x1c0>
    2700:	88 ec       	ldi	r24, 0xC8	; 200
    2702:	90 e0       	ldi	r25, 0x00	; 0
    2704:	9c 83       	std	Y+4, r25	; 0x04
    2706:	8b 83       	std	Y+3, r24	; 0x03
    2708:	8b 81       	ldd	r24, Y+3	; 0x03
    270a:	9c 81       	ldd	r25, Y+4	; 0x04
    270c:	01 97       	sbiw	r24, 0x01	; 1
    270e:	f1 f7       	brne	.-4      	; 0x270c <LED_VoidFlashLed+0x1ae>
    2710:	9c 83       	std	Y+4, r25	; 0x04
    2712:	8b 83       	std	Y+3, r24	; 0x03
		while(__ticks)
		{
			// wait 1/10 ms
			_delay_loop_2(((F_CPU) / 4e3) / 10);
			__ticks --;
    2714:	8d 81       	ldd	r24, Y+5	; 0x05
    2716:	9e 81       	ldd	r25, Y+6	; 0x06
    2718:	01 97       	sbiw	r24, 0x01	; 1
    271a:	9e 83       	std	Y+6, r25	; 0x06
    271c:	8d 83       	std	Y+5, r24	; 0x05
		__ticks = 1;
	else if (__tmp > 65535)
	{
		//	__ticks = requested delay in 1/10 ms
		__ticks = (uint16_t) (__ms * 10.0);
		while(__ticks)
    271e:	8d 81       	ldd	r24, Y+5	; 0x05
    2720:	9e 81       	ldd	r25, Y+6	; 0x06
    2722:	00 97       	sbiw	r24, 0x00	; 0
    2724:	69 f7       	brne	.-38     	; 0x2700 <LED_VoidFlashLed+0x1a2>
    2726:	14 c0       	rjmp	.+40     	; 0x2750 <LED_VoidFlashLed+0x1f2>
			__ticks --;
		}
		return;
	}
	else
		__ticks = (uint16_t)__tmp;
    2728:	6f 81       	ldd	r22, Y+7	; 0x07
    272a:	78 85       	ldd	r23, Y+8	; 0x08
    272c:	89 85       	ldd	r24, Y+9	; 0x09
    272e:	9a 85       	ldd	r25, Y+10	; 0x0a
    2730:	0e 94 49 00 	call	0x92	; 0x92 <__fixunssfsi>
    2734:	dc 01       	movw	r26, r24
    2736:	cb 01       	movw	r24, r22
    2738:	9e 83       	std	Y+6, r25	; 0x06
    273a:	8d 83       	std	Y+5, r24	; 0x05
    273c:	8d 81       	ldd	r24, Y+5	; 0x05
    273e:	9e 81       	ldd	r25, Y+6	; 0x06
    2740:	9a 83       	std	Y+2, r25	; 0x02
    2742:	89 83       	std	Y+1, r24	; 0x01
    2744:	89 81       	ldd	r24, Y+1	; 0x01
    2746:	9a 81       	ldd	r25, Y+2	; 0x02
    2748:	01 97       	sbiw	r24, 0x01	; 1
    274a:	f1 f7       	brne	.-4      	; 0x2748 <LED_VoidFlashLed+0x1ea>
    274c:	9a 83       	std	Y+2, r25	; 0x02
    274e:	89 83       	std	Y+1, r24	; 0x01
	_delay_ms (500);
}
    2750:	6d 96       	adiw	r28, 0x1d	; 29
    2752:	0f b6       	in	r0, 0x3f	; 63
    2754:	f8 94       	cli
    2756:	de bf       	out	0x3e, r29	; 62
    2758:	0f be       	out	0x3f, r0	; 63
    275a:	cd bf       	out	0x3d, r28	; 61
    275c:	cf 91       	pop	r28
    275e:	df 91       	pop	r29
    2760:	08 95       	ret

00002762 <LDR_Range>:

#include "LDR.h"


uint16 LDR_Range(uint16 ADC_Value)
{
    2762:	df 93       	push	r29
    2764:	cf 93       	push	r28
    2766:	00 d0       	rcall	.+0      	; 0x2768 <LDR_Range+0x6>
    2768:	00 d0       	rcall	.+0      	; 0x276a <LDR_Range+0x8>
    276a:	cd b7       	in	r28, 0x3d	; 61
    276c:	de b7       	in	r29, 0x3e	; 62
    276e:	9c 83       	std	Y+4, r25	; 0x04
    2770:	8b 83       	std	Y+3, r24	; 0x03
	uint16 ReturnValue ;
	if(ADC_Value< (325) )
    2772:	8b 81       	ldd	r24, Y+3	; 0x03
    2774:	9c 81       	ldd	r25, Y+4	; 0x04
    2776:	21 e0       	ldi	r18, 0x01	; 1
    2778:	85 34       	cpi	r24, 0x45	; 69
    277a:	92 07       	cpc	r25, r18
    277c:	18 f4       	brcc	.+6      	; 0x2784 <LDR_Range+0x22>
	{
		ReturnValue = LOW;
    277e:	1a 82       	std	Y+2, r1	; 0x02
    2780:	19 82       	std	Y+1, r1	; 0x01
    2782:	15 c0       	rjmp	.+42     	; 0x27ae <LDR_Range+0x4c>
	}
	else if(ADC_Value>(325) && (ADC_Value< (650) ))
    2784:	8b 81       	ldd	r24, Y+3	; 0x03
    2786:	9c 81       	ldd	r25, Y+4	; 0x04
    2788:	21 e0       	ldi	r18, 0x01	; 1
    278a:	86 34       	cpi	r24, 0x46	; 70
    278c:	92 07       	cpc	r25, r18
    278e:	58 f0       	brcs	.+22     	; 0x27a6 <LDR_Range+0x44>
    2790:	8b 81       	ldd	r24, Y+3	; 0x03
    2792:	9c 81       	ldd	r25, Y+4	; 0x04
    2794:	22 e0       	ldi	r18, 0x02	; 2
    2796:	8a 38       	cpi	r24, 0x8A	; 138
    2798:	92 07       	cpc	r25, r18
    279a:	28 f4       	brcc	.+10     	; 0x27a6 <LDR_Range+0x44>
	{
		ReturnValue = HIGH;
    279c:	81 e0       	ldi	r24, 0x01	; 1
    279e:	90 e0       	ldi	r25, 0x00	; 0
    27a0:	9a 83       	std	Y+2, r25	; 0x02
    27a2:	89 83       	std	Y+1, r24	; 0x01
    27a4:	04 c0       	rjmp	.+8      	; 0x27ae <LDR_Range+0x4c>
	}
	else
	{
		ReturnValue = HIGHHIGH;
    27a6:	82 e0       	ldi	r24, 0x02	; 2
    27a8:	90 e0       	ldi	r25, 0x00	; 0
    27aa:	9a 83       	std	Y+2, r25	; 0x02
    27ac:	89 83       	std	Y+1, r24	; 0x01
	}

	return ReturnValue ;
    27ae:	89 81       	ldd	r24, Y+1	; 0x01
    27b0:	9a 81       	ldd	r25, Y+2	; 0x02
}
    27b2:	0f 90       	pop	r0
    27b4:	0f 90       	pop	r0
    27b6:	0f 90       	pop	r0
    27b8:	0f 90       	pop	r0
    27ba:	cf 91       	pop	r28
    27bc:	df 91       	pop	r29
    27be:	08 95       	ret

000027c0 <LCD_Init>:

/************************************************************************************/
/************************LCD INITALICATION DDIRECTION OF PIN*************************/
/************************************************************************************/
void LCD_Init(void)
{
    27c0:	df 93       	push	r29
    27c2:	cf 93       	push	r28
    27c4:	cd b7       	in	r28, 0x3d	; 61
    27c6:	de b7       	in	r29, 0x3e	; 62
    27c8:	2e 97       	sbiw	r28, 0x0e	; 14
    27ca:	0f b6       	in	r0, 0x3f	; 63
    27cc:	f8 94       	cli
    27ce:	de bf       	out	0x3e, r29	; 62
    27d0:	0f be       	out	0x3f, r0	; 63
    27d2:	cd bf       	out	0x3d, r28	; 61

#endif


#elif(LCD_TYPE == FOUR_BIT)
	DIO_VoidSetSpecialPortDir(PORT_USED1,PIN_USED_IN_PORT1);
    27d4:	80 e0       	ldi	r24, 0x00	; 0
    27d6:	60 ef       	ldi	r22, 0xF0	; 240
    27d8:	0e 94 b8 0d 	call	0x1b70	; 0x1b70 <DIO_VoidSetSpecialPortDir>
	DIO_VoidSetSpecialPortDir(PORT_USED2,PIN_USED_IN_PORT2);
    27dc:	83 e0       	ldi	r24, 0x03	; 3
    27de:	6a e1       	ldi	r22, 0x1A	; 26
    27e0:	0e 94 b8 0d 	call	0x1b70	; 0x1b70 <DIO_VoidSetSpecialPortDir>
	LCD_Commands(0x3);
    27e4:	83 e0       	ldi	r24, 0x03	; 3
    27e6:	0e 94 a7 14 	call	0x294e	; 0x294e <LCD_Commands>
	LCD_Commands(0x2);
    27ea:	82 e0       	ldi	r24, 0x02	; 2
    27ec:	0e 94 a7 14 	call	0x294e	; 0x294e <LCD_Commands>
	LCD_Commands(DISPLY_OFF_CURSOR_OFF);
    27f0:	88 e0       	ldi	r24, 0x08	; 8
    27f2:	0e 94 a7 14 	call	0x294e	; 0x294e <LCD_Commands>
	LCD_Commands(LINE_2_4BIT);
    27f6:	88 e2       	ldi	r24, 0x28	; 40
    27f8:	0e 94 a7 14 	call	0x294e	; 0x294e <LCD_Commands>
	LCD_Commands(CLEAR);
    27fc:	81 e0       	ldi	r24, 0x01	; 1
    27fe:	0e 94 a7 14 	call	0x294e	; 0x294e <LCD_Commands>
	LCD_Commands(CURSOR_OFF);
    2802:	8c e0       	ldi	r24, 0x0C	; 12
    2804:	0e 94 a7 14 	call	0x294e	; 0x294e <LCD_Commands>
    2808:	80 e0       	ldi	r24, 0x00	; 0
    280a:	90 e0       	ldi	r25, 0x00	; 0
    280c:	a0 ea       	ldi	r26, 0xA0	; 160
    280e:	b1 e4       	ldi	r27, 0x41	; 65
    2810:	8b 87       	std	Y+11, r24	; 0x0b
    2812:	9c 87       	std	Y+12, r25	; 0x0c
    2814:	ad 87       	std	Y+13, r26	; 0x0d
    2816:	be 87       	std	Y+14, r27	; 0x0e
 */
void
_delay_ms(double __ms)
{
	uint16_t __ticks;
	double __tmp = ((F_CPU) / 4e3) * __ms;
    2818:	6b 85       	ldd	r22, Y+11	; 0x0b
    281a:	7c 85       	ldd	r23, Y+12	; 0x0c
    281c:	8d 85       	ldd	r24, Y+13	; 0x0d
    281e:	9e 85       	ldd	r25, Y+14	; 0x0e
    2820:	20 e0       	ldi	r18, 0x00	; 0
    2822:	30 e0       	ldi	r19, 0x00	; 0
    2824:	4a ef       	ldi	r20, 0xFA	; 250
    2826:	54 e4       	ldi	r21, 0x44	; 68
    2828:	0e 94 1f 02 	call	0x43e	; 0x43e <__mulsf3>
    282c:	dc 01       	movw	r26, r24
    282e:	cb 01       	movw	r24, r22
    2830:	8f 83       	std	Y+7, r24	; 0x07
    2832:	98 87       	std	Y+8, r25	; 0x08
    2834:	a9 87       	std	Y+9, r26	; 0x09
    2836:	ba 87       	std	Y+10, r27	; 0x0a
	if (__tmp < 1.0)
    2838:	6f 81       	ldd	r22, Y+7	; 0x07
    283a:	78 85       	ldd	r23, Y+8	; 0x08
    283c:	89 85       	ldd	r24, Y+9	; 0x09
    283e:	9a 85       	ldd	r25, Y+10	; 0x0a
    2840:	20 e0       	ldi	r18, 0x00	; 0
    2842:	30 e0       	ldi	r19, 0x00	; 0
    2844:	40 e8       	ldi	r20, 0x80	; 128
    2846:	5f e3       	ldi	r21, 0x3F	; 63
    2848:	0e 94 79 03 	call	0x6f2	; 0x6f2 <__ltsf2>
    284c:	88 23       	and	r24, r24
    284e:	2c f4       	brge	.+10     	; 0x285a <LCD_Init+0x9a>
		__ticks = 1;
    2850:	81 e0       	ldi	r24, 0x01	; 1
    2852:	90 e0       	ldi	r25, 0x00	; 0
    2854:	9e 83       	std	Y+6, r25	; 0x06
    2856:	8d 83       	std	Y+5, r24	; 0x05
    2858:	3f c0       	rjmp	.+126    	; 0x28d8 <LCD_Init+0x118>
	else if (__tmp > 65535)
    285a:	6f 81       	ldd	r22, Y+7	; 0x07
    285c:	78 85       	ldd	r23, Y+8	; 0x08
    285e:	89 85       	ldd	r24, Y+9	; 0x09
    2860:	9a 85       	ldd	r25, Y+10	; 0x0a
    2862:	20 e0       	ldi	r18, 0x00	; 0
    2864:	3f ef       	ldi	r19, 0xFF	; 255
    2866:	4f e7       	ldi	r20, 0x7F	; 127
    2868:	57 e4       	ldi	r21, 0x47	; 71
    286a:	0e 94 19 03 	call	0x632	; 0x632 <__gtsf2>
    286e:	18 16       	cp	r1, r24
    2870:	4c f5       	brge	.+82     	; 0x28c4 <LCD_Init+0x104>
	{
		//	__ticks = requested delay in 1/10 ms
		__ticks = (uint16_t) (__ms * 10.0);
    2872:	6b 85       	ldd	r22, Y+11	; 0x0b
    2874:	7c 85       	ldd	r23, Y+12	; 0x0c
    2876:	8d 85       	ldd	r24, Y+13	; 0x0d
    2878:	9e 85       	ldd	r25, Y+14	; 0x0e
    287a:	20 e0       	ldi	r18, 0x00	; 0
    287c:	30 e0       	ldi	r19, 0x00	; 0
    287e:	40 e2       	ldi	r20, 0x20	; 32
    2880:	51 e4       	ldi	r21, 0x41	; 65
    2882:	0e 94 1f 02 	call	0x43e	; 0x43e <__mulsf3>
    2886:	dc 01       	movw	r26, r24
    2888:	cb 01       	movw	r24, r22
    288a:	bc 01       	movw	r22, r24
    288c:	cd 01       	movw	r24, r26
    288e:	0e 94 49 00 	call	0x92	; 0x92 <__fixunssfsi>
    2892:	dc 01       	movw	r26, r24
    2894:	cb 01       	movw	r24, r22
    2896:	9e 83       	std	Y+6, r25	; 0x06
    2898:	8d 83       	std	Y+5, r24	; 0x05
    289a:	0f c0       	rjmp	.+30     	; 0x28ba <LCD_Init+0xfa>
    289c:	88 ec       	ldi	r24, 0xC8	; 200
    289e:	90 e0       	ldi	r25, 0x00	; 0
    28a0:	9c 83       	std	Y+4, r25	; 0x04
    28a2:	8b 83       	std	Y+3, r24	; 0x03
    28a4:	8b 81       	ldd	r24, Y+3	; 0x03
    28a6:	9c 81       	ldd	r25, Y+4	; 0x04
    28a8:	01 97       	sbiw	r24, 0x01	; 1
    28aa:	f1 f7       	brne	.-4      	; 0x28a8 <LCD_Init+0xe8>
    28ac:	9c 83       	std	Y+4, r25	; 0x04
    28ae:	8b 83       	std	Y+3, r24	; 0x03
		while(__ticks)
		{
			// wait 1/10 ms
			_delay_loop_2(((F_CPU) / 4e3) / 10);
			__ticks --;
    28b0:	8d 81       	ldd	r24, Y+5	; 0x05
    28b2:	9e 81       	ldd	r25, Y+6	; 0x06
    28b4:	01 97       	sbiw	r24, 0x01	; 1
    28b6:	9e 83       	std	Y+6, r25	; 0x06
    28b8:	8d 83       	std	Y+5, r24	; 0x05
		__ticks = 1;
	else if (__tmp > 65535)
	{
		//	__ticks = requested delay in 1/10 ms
		__ticks = (uint16_t) (__ms * 10.0);
		while(__ticks)
    28ba:	8d 81       	ldd	r24, Y+5	; 0x05
    28bc:	9e 81       	ldd	r25, Y+6	; 0x06
    28be:	00 97       	sbiw	r24, 0x00	; 0
    28c0:	69 f7       	brne	.-38     	; 0x289c <LCD_Init+0xdc>
    28c2:	14 c0       	rjmp	.+40     	; 0x28ec <LCD_Init+0x12c>
			__ticks --;
		}
		return;
	}
	else
		__ticks = (uint16_t)__tmp;
    28c4:	6f 81       	ldd	r22, Y+7	; 0x07
    28c6:	78 85       	ldd	r23, Y+8	; 0x08
    28c8:	89 85       	ldd	r24, Y+9	; 0x09
    28ca:	9a 85       	ldd	r25, Y+10	; 0x0a
    28cc:	0e 94 49 00 	call	0x92	; 0x92 <__fixunssfsi>
    28d0:	dc 01       	movw	r26, r24
    28d2:	cb 01       	movw	r24, r22
    28d4:	9e 83       	std	Y+6, r25	; 0x06
    28d6:	8d 83       	std	Y+5, r24	; 0x05
    28d8:	8d 81       	ldd	r24, Y+5	; 0x05
    28da:	9e 81       	ldd	r25, Y+6	; 0x06
    28dc:	9a 83       	std	Y+2, r25	; 0x02
    28de:	89 83       	std	Y+1, r24	; 0x01
    28e0:	89 81       	ldd	r24, Y+1	; 0x01
    28e2:	9a 81       	ldd	r25, Y+2	; 0x02
    28e4:	01 97       	sbiw	r24, 0x01	; 1
    28e6:	f1 f7       	brne	.-4      	; 0x28e4 <LCD_Init+0x124>
    28e8:	9a 83       	std	Y+2, r25	; 0x02
    28ea:	89 83       	std	Y+1, r24	; 0x01
#endif
	_delay_ms(20);

#endif

}
    28ec:	2e 96       	adiw	r28, 0x0e	; 14
    28ee:	0f b6       	in	r0, 0x3f	; 63
    28f0:	f8 94       	cli
    28f2:	de bf       	out	0x3e, r29	; 62
    28f4:	0f be       	out	0x3f, r0	; 63
    28f6:	cd bf       	out	0x3d, r28	; 61
    28f8:	cf 91       	pop	r28
    28fa:	df 91       	pop	r29
    28fc:	08 95       	ret

000028fe <LCD_LOCATION_ROW_COLuM>:
/************************************************************************************/
/************************SLECT LOCATION BY ROW AND COLUM*****************************/
/************************************************************************************/

void LCD_LOCATION_ROW_COLuM(uint8 Row , uint8 Colum)  // ROW 1 OR 2 ********* 16 COLUME ********
{
    28fe:	df 93       	push	r29
    2900:	cf 93       	push	r28
    2902:	00 d0       	rcall	.+0      	; 0x2904 <LCD_LOCATION_ROW_COLuM+0x6>
    2904:	00 d0       	rcall	.+0      	; 0x2906 <LCD_LOCATION_ROW_COLuM+0x8>
    2906:	cd b7       	in	r28, 0x3d	; 61
    2908:	de b7       	in	r29, 0x3e	; 62
    290a:	89 83       	std	Y+1, r24	; 0x01
    290c:	6a 83       	std	Y+2, r22	; 0x02
	switch(Row)
    290e:	89 81       	ldd	r24, Y+1	; 0x01
    2910:	28 2f       	mov	r18, r24
    2912:	30 e0       	ldi	r19, 0x00	; 0
    2914:	3c 83       	std	Y+4, r19	; 0x04
    2916:	2b 83       	std	Y+3, r18	; 0x03
    2918:	8b 81       	ldd	r24, Y+3	; 0x03
    291a:	9c 81       	ldd	r25, Y+4	; 0x04
    291c:	81 30       	cpi	r24, 0x01	; 1
    291e:	91 05       	cpc	r25, r1
    2920:	31 f0       	breq	.+12     	; 0x292e <LCD_LOCATION_ROW_COLuM+0x30>
    2922:	2b 81       	ldd	r18, Y+3	; 0x03
    2924:	3c 81       	ldd	r19, Y+4	; 0x04
    2926:	22 30       	cpi	r18, 0x02	; 2
    2928:	31 05       	cpc	r19, r1
    292a:	31 f0       	breq	.+12     	; 0x2938 <LCD_LOCATION_ROW_COLuM+0x3a>
    292c:	09 c0       	rjmp	.+18     	; 0x2940 <LCD_LOCATION_ROW_COLuM+0x42>
	{
	case 1:
		LCD_Commands(ROW_ONE + Colum); //0x82
    292e:	8a 81       	ldd	r24, Y+2	; 0x02
    2930:	80 58       	subi	r24, 0x80	; 128
    2932:	0e 94 a7 14 	call	0x294e	; 0x294e <LCD_Commands>
    2936:	04 c0       	rjmp	.+8      	; 0x2940 <LCD_LOCATION_ROW_COLuM+0x42>
		break;
	case 2:
		LCD_Commands(ROW_TWO + Colum);
    2938:	8a 81       	ldd	r24, Y+2	; 0x02
    293a:	80 54       	subi	r24, 0x40	; 64
    293c:	0e 94 a7 14 	call	0x294e	; 0x294e <LCD_Commands>
		break;
	default:
		break;
	}
}
    2940:	0f 90       	pop	r0
    2942:	0f 90       	pop	r0
    2944:	0f 90       	pop	r0
    2946:	0f 90       	pop	r0
    2948:	cf 91       	pop	r28
    294a:	df 91       	pop	r29
    294c:	08 95       	ret

0000294e <LCD_Commands>:
/************************************************************************************/
/************************SPECAL COMMAND USE WITH LCD*********************************/
/************************************************************************************/

void LCD_Commands(uint8 Command)
{
    294e:	df 93       	push	r29
    2950:	cf 93       	push	r28
    2952:	cd b7       	in	r28, 0x3d	; 61
    2954:	de b7       	in	r29, 0x3e	; 62
    2956:	6d 97       	sbiw	r28, 0x1d	; 29
    2958:	0f b6       	in	r0, 0x3f	; 63
    295a:	f8 94       	cli
    295c:	de bf       	out	0x3e, r29	; 62
    295e:	0f be       	out	0x3f, r0	; 63
    2960:	cd bf       	out	0x3d, r28	; 61
    2962:	8d 8f       	std	Y+29, r24	; 0x1d
	_delay_ms(1);



#elif(LCD_TYPE == FOUR_BIT)
	REGISTER_SELECT(COMMAND_MODE);         // Command mode
    2964:	a2 e3       	ldi	r26, 0x32	; 50
    2966:	b0 e0       	ldi	r27, 0x00	; 0
    2968:	e2 e3       	ldi	r30, 0x32	; 50
    296a:	f0 e0       	ldi	r31, 0x00	; 0
    296c:	80 81       	ld	r24, Z
    296e:	8d 7f       	andi	r24, 0xFD	; 253
    2970:	8c 93       	st	X, r24

	PIN44(DIO_ReadSegmentOfAddress(Command ,PIN_4 ));
    2972:	8d 8d       	ldd	r24, Y+29	; 0x1d
    2974:	64 e0       	ldi	r22, 0x04	; 4
    2976:	0e 94 b7 0e 	call	0x1d6e	; 0x1d6e <DIO_ReadSegmentOfAddress>
    297a:	88 23       	and	r24, r24
    297c:	41 f4       	brne	.+16     	; 0x298e <LCD_Commands+0x40>
    297e:	ab e3       	ldi	r26, 0x3B	; 59
    2980:	b0 e0       	ldi	r27, 0x00	; 0
    2982:	eb e3       	ldi	r30, 0x3B	; 59
    2984:	f0 e0       	ldi	r31, 0x00	; 0
    2986:	80 81       	ld	r24, Z
    2988:	8f 7e       	andi	r24, 0xEF	; 239
    298a:	8c 93       	st	X, r24
    298c:	07 c0       	rjmp	.+14     	; 0x299c <LCD_Commands+0x4e>
    298e:	ab e3       	ldi	r26, 0x3B	; 59
    2990:	b0 e0       	ldi	r27, 0x00	; 0
    2992:	eb e3       	ldi	r30, 0x3B	; 59
    2994:	f0 e0       	ldi	r31, 0x00	; 0
    2996:	80 81       	ld	r24, Z
    2998:	80 61       	ori	r24, 0x10	; 16
    299a:	8c 93       	st	X, r24
	PIN55(DIO_ReadSegmentOfAddress(Command ,PIN_5 ));
    299c:	8d 8d       	ldd	r24, Y+29	; 0x1d
    299e:	65 e0       	ldi	r22, 0x05	; 5
    29a0:	0e 94 b7 0e 	call	0x1d6e	; 0x1d6e <DIO_ReadSegmentOfAddress>
    29a4:	88 23       	and	r24, r24
    29a6:	41 f4       	brne	.+16     	; 0x29b8 <LCD_Commands+0x6a>
    29a8:	ab e3       	ldi	r26, 0x3B	; 59
    29aa:	b0 e0       	ldi	r27, 0x00	; 0
    29ac:	eb e3       	ldi	r30, 0x3B	; 59
    29ae:	f0 e0       	ldi	r31, 0x00	; 0
    29b0:	80 81       	ld	r24, Z
    29b2:	8f 7d       	andi	r24, 0xDF	; 223
    29b4:	8c 93       	st	X, r24
    29b6:	07 c0       	rjmp	.+14     	; 0x29c6 <LCD_Commands+0x78>
    29b8:	ab e3       	ldi	r26, 0x3B	; 59
    29ba:	b0 e0       	ldi	r27, 0x00	; 0
    29bc:	eb e3       	ldi	r30, 0x3B	; 59
    29be:	f0 e0       	ldi	r31, 0x00	; 0
    29c0:	80 81       	ld	r24, Z
    29c2:	80 62       	ori	r24, 0x20	; 32
    29c4:	8c 93       	st	X, r24
	PIN66(DIO_ReadSegmentOfAddress(Command ,PIN_6 ));
    29c6:	8d 8d       	ldd	r24, Y+29	; 0x1d
    29c8:	66 e0       	ldi	r22, 0x06	; 6
    29ca:	0e 94 b7 0e 	call	0x1d6e	; 0x1d6e <DIO_ReadSegmentOfAddress>
    29ce:	88 23       	and	r24, r24
    29d0:	41 f4       	brne	.+16     	; 0x29e2 <LCD_Commands+0x94>
    29d2:	ab e3       	ldi	r26, 0x3B	; 59
    29d4:	b0 e0       	ldi	r27, 0x00	; 0
    29d6:	eb e3       	ldi	r30, 0x3B	; 59
    29d8:	f0 e0       	ldi	r31, 0x00	; 0
    29da:	80 81       	ld	r24, Z
    29dc:	8f 7b       	andi	r24, 0xBF	; 191
    29de:	8c 93       	st	X, r24
    29e0:	07 c0       	rjmp	.+14     	; 0x29f0 <LCD_Commands+0xa2>
    29e2:	ab e3       	ldi	r26, 0x3B	; 59
    29e4:	b0 e0       	ldi	r27, 0x00	; 0
    29e6:	eb e3       	ldi	r30, 0x3B	; 59
    29e8:	f0 e0       	ldi	r31, 0x00	; 0
    29ea:	80 81       	ld	r24, Z
    29ec:	80 64       	ori	r24, 0x40	; 64
    29ee:	8c 93       	st	X, r24
	PIN77(DIO_ReadSegmentOfAddress(Command ,PIN_7 ));
    29f0:	8d 8d       	ldd	r24, Y+29	; 0x1d
    29f2:	67 e0       	ldi	r22, 0x07	; 7
    29f4:	0e 94 b7 0e 	call	0x1d6e	; 0x1d6e <DIO_ReadSegmentOfAddress>
    29f8:	88 23       	and	r24, r24
    29fa:	41 f4       	brne	.+16     	; 0x2a0c <LCD_Commands+0xbe>
    29fc:	ab e3       	ldi	r26, 0x3B	; 59
    29fe:	b0 e0       	ldi	r27, 0x00	; 0
    2a00:	eb e3       	ldi	r30, 0x3B	; 59
    2a02:	f0 e0       	ldi	r31, 0x00	; 0
    2a04:	80 81       	ld	r24, Z
    2a06:	8f 77       	andi	r24, 0x7F	; 127
    2a08:	8c 93       	st	X, r24
    2a0a:	07 c0       	rjmp	.+14     	; 0x2a1a <LCD_Commands+0xcc>
    2a0c:	ab e3       	ldi	r26, 0x3B	; 59
    2a0e:	b0 e0       	ldi	r27, 0x00	; 0
    2a10:	eb e3       	ldi	r30, 0x3B	; 59
    2a12:	f0 e0       	ldi	r31, 0x00	; 0
    2a14:	80 81       	ld	r24, Z
    2a16:	80 68       	ori	r24, 0x80	; 128
    2a18:	8c 93       	st	X, r24

	ENABLEMODE(ENABLE_LCD);                // ENABLE_LCD
    2a1a:	a2 e3       	ldi	r26, 0x32	; 50
    2a1c:	b0 e0       	ldi	r27, 0x00	; 0
    2a1e:	e2 e3       	ldi	r30, 0x32	; 50
    2a20:	f0 e0       	ldi	r31, 0x00	; 0
    2a22:	80 81       	ld	r24, Z
    2a24:	80 61       	ori	r24, 0x10	; 16
    2a26:	8c 93       	st	X, r24
    2a28:	80 e0       	ldi	r24, 0x00	; 0
    2a2a:	90 e0       	ldi	r25, 0x00	; 0
    2a2c:	a0 e0       	ldi	r26, 0x00	; 0
    2a2e:	b0 e4       	ldi	r27, 0x40	; 64
    2a30:	89 8f       	std	Y+25, r24	; 0x19
    2a32:	9a 8f       	std	Y+26, r25	; 0x1a
    2a34:	ab 8f       	std	Y+27, r26	; 0x1b
    2a36:	bc 8f       	std	Y+28, r27	; 0x1c
 */
void
_delay_ms(double __ms)
{
	uint16_t __ticks;
	double __tmp = ((F_CPU) / 4e3) * __ms;
    2a38:	69 8d       	ldd	r22, Y+25	; 0x19
    2a3a:	7a 8d       	ldd	r23, Y+26	; 0x1a
    2a3c:	8b 8d       	ldd	r24, Y+27	; 0x1b
    2a3e:	9c 8d       	ldd	r25, Y+28	; 0x1c
    2a40:	20 e0       	ldi	r18, 0x00	; 0
    2a42:	30 e0       	ldi	r19, 0x00	; 0
    2a44:	4a ef       	ldi	r20, 0xFA	; 250
    2a46:	54 e4       	ldi	r21, 0x44	; 68
    2a48:	0e 94 1f 02 	call	0x43e	; 0x43e <__mulsf3>
    2a4c:	dc 01       	movw	r26, r24
    2a4e:	cb 01       	movw	r24, r22
    2a50:	8d 8b       	std	Y+21, r24	; 0x15
    2a52:	9e 8b       	std	Y+22, r25	; 0x16
    2a54:	af 8b       	std	Y+23, r26	; 0x17
    2a56:	b8 8f       	std	Y+24, r27	; 0x18
	if (__tmp < 1.0)
    2a58:	6d 89       	ldd	r22, Y+21	; 0x15
    2a5a:	7e 89       	ldd	r23, Y+22	; 0x16
    2a5c:	8f 89       	ldd	r24, Y+23	; 0x17
    2a5e:	98 8d       	ldd	r25, Y+24	; 0x18
    2a60:	20 e0       	ldi	r18, 0x00	; 0
    2a62:	30 e0       	ldi	r19, 0x00	; 0
    2a64:	40 e8       	ldi	r20, 0x80	; 128
    2a66:	5f e3       	ldi	r21, 0x3F	; 63
    2a68:	0e 94 79 03 	call	0x6f2	; 0x6f2 <__ltsf2>
    2a6c:	88 23       	and	r24, r24
    2a6e:	2c f4       	brge	.+10     	; 0x2a7a <LCD_Commands+0x12c>
		__ticks = 1;
    2a70:	81 e0       	ldi	r24, 0x01	; 1
    2a72:	90 e0       	ldi	r25, 0x00	; 0
    2a74:	9c 8b       	std	Y+20, r25	; 0x14
    2a76:	8b 8b       	std	Y+19, r24	; 0x13
    2a78:	3f c0       	rjmp	.+126    	; 0x2af8 <LCD_Commands+0x1aa>
	else if (__tmp > 65535)
    2a7a:	6d 89       	ldd	r22, Y+21	; 0x15
    2a7c:	7e 89       	ldd	r23, Y+22	; 0x16
    2a7e:	8f 89       	ldd	r24, Y+23	; 0x17
    2a80:	98 8d       	ldd	r25, Y+24	; 0x18
    2a82:	20 e0       	ldi	r18, 0x00	; 0
    2a84:	3f ef       	ldi	r19, 0xFF	; 255
    2a86:	4f e7       	ldi	r20, 0x7F	; 127
    2a88:	57 e4       	ldi	r21, 0x47	; 71
    2a8a:	0e 94 19 03 	call	0x632	; 0x632 <__gtsf2>
    2a8e:	18 16       	cp	r1, r24
    2a90:	4c f5       	brge	.+82     	; 0x2ae4 <LCD_Commands+0x196>
	{
		//	__ticks = requested delay in 1/10 ms
		__ticks = (uint16_t) (__ms * 10.0);
    2a92:	69 8d       	ldd	r22, Y+25	; 0x19
    2a94:	7a 8d       	ldd	r23, Y+26	; 0x1a
    2a96:	8b 8d       	ldd	r24, Y+27	; 0x1b
    2a98:	9c 8d       	ldd	r25, Y+28	; 0x1c
    2a9a:	20 e0       	ldi	r18, 0x00	; 0
    2a9c:	30 e0       	ldi	r19, 0x00	; 0
    2a9e:	40 e2       	ldi	r20, 0x20	; 32
    2aa0:	51 e4       	ldi	r21, 0x41	; 65
    2aa2:	0e 94 1f 02 	call	0x43e	; 0x43e <__mulsf3>
    2aa6:	dc 01       	movw	r26, r24
    2aa8:	cb 01       	movw	r24, r22
    2aaa:	bc 01       	movw	r22, r24
    2aac:	cd 01       	movw	r24, r26
    2aae:	0e 94 49 00 	call	0x92	; 0x92 <__fixunssfsi>
    2ab2:	dc 01       	movw	r26, r24
    2ab4:	cb 01       	movw	r24, r22
    2ab6:	9c 8b       	std	Y+20, r25	; 0x14
    2ab8:	8b 8b       	std	Y+19, r24	; 0x13
    2aba:	0f c0       	rjmp	.+30     	; 0x2ada <LCD_Commands+0x18c>
    2abc:	88 ec       	ldi	r24, 0xC8	; 200
    2abe:	90 e0       	ldi	r25, 0x00	; 0
    2ac0:	9a 8b       	std	Y+18, r25	; 0x12
    2ac2:	89 8b       	std	Y+17, r24	; 0x11
    2ac4:	89 89       	ldd	r24, Y+17	; 0x11
    2ac6:	9a 89       	ldd	r25, Y+18	; 0x12
    2ac8:	01 97       	sbiw	r24, 0x01	; 1
    2aca:	f1 f7       	brne	.-4      	; 0x2ac8 <LCD_Commands+0x17a>
    2acc:	9a 8b       	std	Y+18, r25	; 0x12
    2ace:	89 8b       	std	Y+17, r24	; 0x11
		while(__ticks)
		{
			// wait 1/10 ms
			_delay_loop_2(((F_CPU) / 4e3) / 10);
			__ticks --;
    2ad0:	8b 89       	ldd	r24, Y+19	; 0x13
    2ad2:	9c 89       	ldd	r25, Y+20	; 0x14
    2ad4:	01 97       	sbiw	r24, 0x01	; 1
    2ad6:	9c 8b       	std	Y+20, r25	; 0x14
    2ad8:	8b 8b       	std	Y+19, r24	; 0x13
		__ticks = 1;
	else if (__tmp > 65535)
	{
		//	__ticks = requested delay in 1/10 ms
		__ticks = (uint16_t) (__ms * 10.0);
		while(__ticks)
    2ada:	8b 89       	ldd	r24, Y+19	; 0x13
    2adc:	9c 89       	ldd	r25, Y+20	; 0x14
    2ade:	00 97       	sbiw	r24, 0x00	; 0
    2ae0:	69 f7       	brne	.-38     	; 0x2abc <LCD_Commands+0x16e>
    2ae2:	14 c0       	rjmp	.+40     	; 0x2b0c <LCD_Commands+0x1be>
			__ticks --;
		}
		return;
	}
	else
		__ticks = (uint16_t)__tmp;
    2ae4:	6d 89       	ldd	r22, Y+21	; 0x15
    2ae6:	7e 89       	ldd	r23, Y+22	; 0x16
    2ae8:	8f 89       	ldd	r24, Y+23	; 0x17
    2aea:	98 8d       	ldd	r25, Y+24	; 0x18
    2aec:	0e 94 49 00 	call	0x92	; 0x92 <__fixunssfsi>
    2af0:	dc 01       	movw	r26, r24
    2af2:	cb 01       	movw	r24, r22
    2af4:	9c 8b       	std	Y+20, r25	; 0x14
    2af6:	8b 8b       	std	Y+19, r24	; 0x13
    2af8:	8b 89       	ldd	r24, Y+19	; 0x13
    2afa:	9c 89       	ldd	r25, Y+20	; 0x14
    2afc:	98 8b       	std	Y+16, r25	; 0x10
    2afe:	8f 87       	std	Y+15, r24	; 0x0f
    2b00:	8f 85       	ldd	r24, Y+15	; 0x0f
    2b02:	98 89       	ldd	r25, Y+16	; 0x10
    2b04:	01 97       	sbiw	r24, 0x01	; 1
    2b06:	f1 f7       	brne	.-4      	; 0x2b04 <LCD_Commands+0x1b6>
    2b08:	98 8b       	std	Y+16, r25	; 0x10
    2b0a:	8f 87       	std	Y+15, r24	; 0x0f
	_delay_ms(2);
	ENABLEMODE(DISABLE_LCD);               // DISABLE_LCD
    2b0c:	a2 e3       	ldi	r26, 0x32	; 50
    2b0e:	b0 e0       	ldi	r27, 0x00	; 0
    2b10:	e2 e3       	ldi	r30, 0x32	; 50
    2b12:	f0 e0       	ldi	r31, 0x00	; 0
    2b14:	80 81       	ld	r24, Z
    2b16:	8f 7e       	andi	r24, 0xEF	; 239
    2b18:	8c 93       	st	X, r24

	PIN44(DIO_ReadSegmentOfAddress(Command ,PIN_0 ));
    2b1a:	8d 8d       	ldd	r24, Y+29	; 0x1d
    2b1c:	60 e0       	ldi	r22, 0x00	; 0
    2b1e:	0e 94 b7 0e 	call	0x1d6e	; 0x1d6e <DIO_ReadSegmentOfAddress>
    2b22:	88 23       	and	r24, r24
    2b24:	41 f4       	brne	.+16     	; 0x2b36 <LCD_Commands+0x1e8>
    2b26:	ab e3       	ldi	r26, 0x3B	; 59
    2b28:	b0 e0       	ldi	r27, 0x00	; 0
    2b2a:	eb e3       	ldi	r30, 0x3B	; 59
    2b2c:	f0 e0       	ldi	r31, 0x00	; 0
    2b2e:	80 81       	ld	r24, Z
    2b30:	8f 7e       	andi	r24, 0xEF	; 239
    2b32:	8c 93       	st	X, r24
    2b34:	07 c0       	rjmp	.+14     	; 0x2b44 <LCD_Commands+0x1f6>
    2b36:	ab e3       	ldi	r26, 0x3B	; 59
    2b38:	b0 e0       	ldi	r27, 0x00	; 0
    2b3a:	eb e3       	ldi	r30, 0x3B	; 59
    2b3c:	f0 e0       	ldi	r31, 0x00	; 0
    2b3e:	80 81       	ld	r24, Z
    2b40:	80 61       	ori	r24, 0x10	; 16
    2b42:	8c 93       	st	X, r24
	PIN55(DIO_ReadSegmentOfAddress(Command ,PIN_1 ));
    2b44:	8d 8d       	ldd	r24, Y+29	; 0x1d
    2b46:	61 e0       	ldi	r22, 0x01	; 1
    2b48:	0e 94 b7 0e 	call	0x1d6e	; 0x1d6e <DIO_ReadSegmentOfAddress>
    2b4c:	88 23       	and	r24, r24
    2b4e:	41 f4       	brne	.+16     	; 0x2b60 <LCD_Commands+0x212>
    2b50:	ab e3       	ldi	r26, 0x3B	; 59
    2b52:	b0 e0       	ldi	r27, 0x00	; 0
    2b54:	eb e3       	ldi	r30, 0x3B	; 59
    2b56:	f0 e0       	ldi	r31, 0x00	; 0
    2b58:	80 81       	ld	r24, Z
    2b5a:	8f 7d       	andi	r24, 0xDF	; 223
    2b5c:	8c 93       	st	X, r24
    2b5e:	07 c0       	rjmp	.+14     	; 0x2b6e <LCD_Commands+0x220>
    2b60:	ab e3       	ldi	r26, 0x3B	; 59
    2b62:	b0 e0       	ldi	r27, 0x00	; 0
    2b64:	eb e3       	ldi	r30, 0x3B	; 59
    2b66:	f0 e0       	ldi	r31, 0x00	; 0
    2b68:	80 81       	ld	r24, Z
    2b6a:	80 62       	ori	r24, 0x20	; 32
    2b6c:	8c 93       	st	X, r24
	PIN66(DIO_ReadSegmentOfAddress(Command ,PIN_2 ));
    2b6e:	8d 8d       	ldd	r24, Y+29	; 0x1d
    2b70:	62 e0       	ldi	r22, 0x02	; 2
    2b72:	0e 94 b7 0e 	call	0x1d6e	; 0x1d6e <DIO_ReadSegmentOfAddress>
    2b76:	88 23       	and	r24, r24
    2b78:	41 f4       	brne	.+16     	; 0x2b8a <LCD_Commands+0x23c>
    2b7a:	ab e3       	ldi	r26, 0x3B	; 59
    2b7c:	b0 e0       	ldi	r27, 0x00	; 0
    2b7e:	eb e3       	ldi	r30, 0x3B	; 59
    2b80:	f0 e0       	ldi	r31, 0x00	; 0
    2b82:	80 81       	ld	r24, Z
    2b84:	8f 7b       	andi	r24, 0xBF	; 191
    2b86:	8c 93       	st	X, r24
    2b88:	07 c0       	rjmp	.+14     	; 0x2b98 <LCD_Commands+0x24a>
    2b8a:	ab e3       	ldi	r26, 0x3B	; 59
    2b8c:	b0 e0       	ldi	r27, 0x00	; 0
    2b8e:	eb e3       	ldi	r30, 0x3B	; 59
    2b90:	f0 e0       	ldi	r31, 0x00	; 0
    2b92:	80 81       	ld	r24, Z
    2b94:	80 64       	ori	r24, 0x40	; 64
    2b96:	8c 93       	st	X, r24
	PIN77(DIO_ReadSegmentOfAddress(Command ,PIN_3 ));
    2b98:	8d 8d       	ldd	r24, Y+29	; 0x1d
    2b9a:	63 e0       	ldi	r22, 0x03	; 3
    2b9c:	0e 94 b7 0e 	call	0x1d6e	; 0x1d6e <DIO_ReadSegmentOfAddress>
    2ba0:	88 23       	and	r24, r24
    2ba2:	41 f4       	brne	.+16     	; 0x2bb4 <LCD_Commands+0x266>
    2ba4:	ab e3       	ldi	r26, 0x3B	; 59
    2ba6:	b0 e0       	ldi	r27, 0x00	; 0
    2ba8:	eb e3       	ldi	r30, 0x3B	; 59
    2baa:	f0 e0       	ldi	r31, 0x00	; 0
    2bac:	80 81       	ld	r24, Z
    2bae:	8f 77       	andi	r24, 0x7F	; 127
    2bb0:	8c 93       	st	X, r24
    2bb2:	07 c0       	rjmp	.+14     	; 0x2bc2 <LCD_Commands+0x274>
    2bb4:	ab e3       	ldi	r26, 0x3B	; 59
    2bb6:	b0 e0       	ldi	r27, 0x00	; 0
    2bb8:	eb e3       	ldi	r30, 0x3B	; 59
    2bba:	f0 e0       	ldi	r31, 0x00	; 0
    2bbc:	80 81       	ld	r24, Z
    2bbe:	80 68       	ori	r24, 0x80	; 128
    2bc0:	8c 93       	st	X, r24

	ENABLEMODE(ENABLE_LCD);					// ENABLE_LCD
    2bc2:	a2 e3       	ldi	r26, 0x32	; 50
    2bc4:	b0 e0       	ldi	r27, 0x00	; 0
    2bc6:	e2 e3       	ldi	r30, 0x32	; 50
    2bc8:	f0 e0       	ldi	r31, 0x00	; 0
    2bca:	80 81       	ld	r24, Z
    2bcc:	80 61       	ori	r24, 0x10	; 16
    2bce:	8c 93       	st	X, r24
    2bd0:	80 e0       	ldi	r24, 0x00	; 0
    2bd2:	90 e0       	ldi	r25, 0x00	; 0
    2bd4:	a0 e0       	ldi	r26, 0x00	; 0
    2bd6:	b0 e4       	ldi	r27, 0x40	; 64
    2bd8:	8b 87       	std	Y+11, r24	; 0x0b
    2bda:	9c 87       	std	Y+12, r25	; 0x0c
    2bdc:	ad 87       	std	Y+13, r26	; 0x0d
    2bde:	be 87       	std	Y+14, r27	; 0x0e
 */
void
_delay_ms(double __ms)
{
	uint16_t __ticks;
	double __tmp = ((F_CPU) / 4e3) * __ms;
    2be0:	6b 85       	ldd	r22, Y+11	; 0x0b
    2be2:	7c 85       	ldd	r23, Y+12	; 0x0c
    2be4:	8d 85       	ldd	r24, Y+13	; 0x0d
    2be6:	9e 85       	ldd	r25, Y+14	; 0x0e
    2be8:	20 e0       	ldi	r18, 0x00	; 0
    2bea:	30 e0       	ldi	r19, 0x00	; 0
    2bec:	4a ef       	ldi	r20, 0xFA	; 250
    2bee:	54 e4       	ldi	r21, 0x44	; 68
    2bf0:	0e 94 1f 02 	call	0x43e	; 0x43e <__mulsf3>
    2bf4:	dc 01       	movw	r26, r24
    2bf6:	cb 01       	movw	r24, r22
    2bf8:	8f 83       	std	Y+7, r24	; 0x07
    2bfa:	98 87       	std	Y+8, r25	; 0x08
    2bfc:	a9 87       	std	Y+9, r26	; 0x09
    2bfe:	ba 87       	std	Y+10, r27	; 0x0a
	if (__tmp < 1.0)
    2c00:	6f 81       	ldd	r22, Y+7	; 0x07
    2c02:	78 85       	ldd	r23, Y+8	; 0x08
    2c04:	89 85       	ldd	r24, Y+9	; 0x09
    2c06:	9a 85       	ldd	r25, Y+10	; 0x0a
    2c08:	20 e0       	ldi	r18, 0x00	; 0
    2c0a:	30 e0       	ldi	r19, 0x00	; 0
    2c0c:	40 e8       	ldi	r20, 0x80	; 128
    2c0e:	5f e3       	ldi	r21, 0x3F	; 63
    2c10:	0e 94 79 03 	call	0x6f2	; 0x6f2 <__ltsf2>
    2c14:	88 23       	and	r24, r24
    2c16:	2c f4       	brge	.+10     	; 0x2c22 <LCD_Commands+0x2d4>
		__ticks = 1;
    2c18:	81 e0       	ldi	r24, 0x01	; 1
    2c1a:	90 e0       	ldi	r25, 0x00	; 0
    2c1c:	9e 83       	std	Y+6, r25	; 0x06
    2c1e:	8d 83       	std	Y+5, r24	; 0x05
    2c20:	3f c0       	rjmp	.+126    	; 0x2ca0 <LCD_Commands+0x352>
	else if (__tmp > 65535)
    2c22:	6f 81       	ldd	r22, Y+7	; 0x07
    2c24:	78 85       	ldd	r23, Y+8	; 0x08
    2c26:	89 85       	ldd	r24, Y+9	; 0x09
    2c28:	9a 85       	ldd	r25, Y+10	; 0x0a
    2c2a:	20 e0       	ldi	r18, 0x00	; 0
    2c2c:	3f ef       	ldi	r19, 0xFF	; 255
    2c2e:	4f e7       	ldi	r20, 0x7F	; 127
    2c30:	57 e4       	ldi	r21, 0x47	; 71
    2c32:	0e 94 19 03 	call	0x632	; 0x632 <__gtsf2>
    2c36:	18 16       	cp	r1, r24
    2c38:	4c f5       	brge	.+82     	; 0x2c8c <LCD_Commands+0x33e>
	{
		//	__ticks = requested delay in 1/10 ms
		__ticks = (uint16_t) (__ms * 10.0);
    2c3a:	6b 85       	ldd	r22, Y+11	; 0x0b
    2c3c:	7c 85       	ldd	r23, Y+12	; 0x0c
    2c3e:	8d 85       	ldd	r24, Y+13	; 0x0d
    2c40:	9e 85       	ldd	r25, Y+14	; 0x0e
    2c42:	20 e0       	ldi	r18, 0x00	; 0
    2c44:	30 e0       	ldi	r19, 0x00	; 0
    2c46:	40 e2       	ldi	r20, 0x20	; 32
    2c48:	51 e4       	ldi	r21, 0x41	; 65
    2c4a:	0e 94 1f 02 	call	0x43e	; 0x43e <__mulsf3>
    2c4e:	dc 01       	movw	r26, r24
    2c50:	cb 01       	movw	r24, r22
    2c52:	bc 01       	movw	r22, r24
    2c54:	cd 01       	movw	r24, r26
    2c56:	0e 94 49 00 	call	0x92	; 0x92 <__fixunssfsi>
    2c5a:	dc 01       	movw	r26, r24
    2c5c:	cb 01       	movw	r24, r22
    2c5e:	9e 83       	std	Y+6, r25	; 0x06
    2c60:	8d 83       	std	Y+5, r24	; 0x05
    2c62:	0f c0       	rjmp	.+30     	; 0x2c82 <LCD_Commands+0x334>
    2c64:	88 ec       	ldi	r24, 0xC8	; 200
    2c66:	90 e0       	ldi	r25, 0x00	; 0
    2c68:	9c 83       	std	Y+4, r25	; 0x04
    2c6a:	8b 83       	std	Y+3, r24	; 0x03
    2c6c:	8b 81       	ldd	r24, Y+3	; 0x03
    2c6e:	9c 81       	ldd	r25, Y+4	; 0x04
    2c70:	01 97       	sbiw	r24, 0x01	; 1
    2c72:	f1 f7       	brne	.-4      	; 0x2c70 <LCD_Commands+0x322>
    2c74:	9c 83       	std	Y+4, r25	; 0x04
    2c76:	8b 83       	std	Y+3, r24	; 0x03
		while(__ticks)
		{
			// wait 1/10 ms
			_delay_loop_2(((F_CPU) / 4e3) / 10);
			__ticks --;
    2c78:	8d 81       	ldd	r24, Y+5	; 0x05
    2c7a:	9e 81       	ldd	r25, Y+6	; 0x06
    2c7c:	01 97       	sbiw	r24, 0x01	; 1
    2c7e:	9e 83       	std	Y+6, r25	; 0x06
    2c80:	8d 83       	std	Y+5, r24	; 0x05
		__ticks = 1;
	else if (__tmp > 65535)
	{
		//	__ticks = requested delay in 1/10 ms
		__ticks = (uint16_t) (__ms * 10.0);
		while(__ticks)
    2c82:	8d 81       	ldd	r24, Y+5	; 0x05
    2c84:	9e 81       	ldd	r25, Y+6	; 0x06
    2c86:	00 97       	sbiw	r24, 0x00	; 0
    2c88:	69 f7       	brne	.-38     	; 0x2c64 <LCD_Commands+0x316>
    2c8a:	14 c0       	rjmp	.+40     	; 0x2cb4 <LCD_Commands+0x366>
			__ticks --;
		}
		return;
	}
	else
		__ticks = (uint16_t)__tmp;
    2c8c:	6f 81       	ldd	r22, Y+7	; 0x07
    2c8e:	78 85       	ldd	r23, Y+8	; 0x08
    2c90:	89 85       	ldd	r24, Y+9	; 0x09
    2c92:	9a 85       	ldd	r25, Y+10	; 0x0a
    2c94:	0e 94 49 00 	call	0x92	; 0x92 <__fixunssfsi>
    2c98:	dc 01       	movw	r26, r24
    2c9a:	cb 01       	movw	r24, r22
    2c9c:	9e 83       	std	Y+6, r25	; 0x06
    2c9e:	8d 83       	std	Y+5, r24	; 0x05
    2ca0:	8d 81       	ldd	r24, Y+5	; 0x05
    2ca2:	9e 81       	ldd	r25, Y+6	; 0x06
    2ca4:	9a 83       	std	Y+2, r25	; 0x02
    2ca6:	89 83       	std	Y+1, r24	; 0x01
    2ca8:	89 81       	ldd	r24, Y+1	; 0x01
    2caa:	9a 81       	ldd	r25, Y+2	; 0x02
    2cac:	01 97       	sbiw	r24, 0x01	; 1
    2cae:	f1 f7       	brne	.-4      	; 0x2cac <LCD_Commands+0x35e>
    2cb0:	9a 83       	std	Y+2, r25	; 0x02
    2cb2:	89 83       	std	Y+1, r24	; 0x01
	_delay_ms(2);
	ENABLEMODE(DISABLE_LCD);  				// DISABLE_LCD
    2cb4:	a2 e3       	ldi	r26, 0x32	; 50
    2cb6:	b0 e0       	ldi	r27, 0x00	; 0
    2cb8:	e2 e3       	ldi	r30, 0x32	; 50
    2cba:	f0 e0       	ldi	r31, 0x00	; 0
    2cbc:	80 81       	ld	r24, Z
    2cbe:	8f 7e       	andi	r24, 0xEF	; 239
    2cc0:	8c 93       	st	X, r24
#endif

}
    2cc2:	6d 96       	adiw	r28, 0x1d	; 29
    2cc4:	0f b6       	in	r0, 0x3f	; 63
    2cc6:	f8 94       	cli
    2cc8:	de bf       	out	0x3e, r29	; 62
    2cca:	0f be       	out	0x3f, r0	; 63
    2ccc:	cd bf       	out	0x3d, r28	; 61
    2cce:	cf 91       	pop	r28
    2cd0:	df 91       	pop	r29
    2cd2:	08 95       	ret

00002cd4 <LCD_Write_Caracter>:
/************************************************************************************/
/************************DISPLY CARACTER ON LCD**************************************/
/************************************************************************************/

void LCD_Write_Caracter(uint8 Caracter)
{
    2cd4:	df 93       	push	r29
    2cd6:	cf 93       	push	r28
    2cd8:	cd b7       	in	r28, 0x3d	; 61
    2cda:	de b7       	in	r29, 0x3e	; 62
    2cdc:	6d 97       	sbiw	r28, 0x1d	; 29
    2cde:	0f b6       	in	r0, 0x3f	; 63
    2ce0:	f8 94       	cli
    2ce2:	de bf       	out	0x3e, r29	; 62
    2ce4:	0f be       	out	0x3f, r0	; 63
    2ce6:	cd bf       	out	0x3d, r28	; 61
    2ce8:	8d 8f       	std	Y+29, r24	; 0x1d
		_delay_ms(1);


#elif(LCD_TYPE == FOUR_BIT)

	REGISTER_SELECT(DATA_MODE);           // DATA_MODE
    2cea:	a2 e3       	ldi	r26, 0x32	; 50
    2cec:	b0 e0       	ldi	r27, 0x00	; 0
    2cee:	e2 e3       	ldi	r30, 0x32	; 50
    2cf0:	f0 e0       	ldi	r31, 0x00	; 0
    2cf2:	80 81       	ld	r24, Z
    2cf4:	82 60       	ori	r24, 0x02	; 2
    2cf6:	8c 93       	st	X, r24

	PIN44(DIO_ReadSegmentOfAddress(Caracter ,PIN_4 ));
    2cf8:	8d 8d       	ldd	r24, Y+29	; 0x1d
    2cfa:	64 e0       	ldi	r22, 0x04	; 4
    2cfc:	0e 94 b7 0e 	call	0x1d6e	; 0x1d6e <DIO_ReadSegmentOfAddress>
    2d00:	88 23       	and	r24, r24
    2d02:	41 f4       	brne	.+16     	; 0x2d14 <LCD_Write_Caracter+0x40>
    2d04:	ab e3       	ldi	r26, 0x3B	; 59
    2d06:	b0 e0       	ldi	r27, 0x00	; 0
    2d08:	eb e3       	ldi	r30, 0x3B	; 59
    2d0a:	f0 e0       	ldi	r31, 0x00	; 0
    2d0c:	80 81       	ld	r24, Z
    2d0e:	8f 7e       	andi	r24, 0xEF	; 239
    2d10:	8c 93       	st	X, r24
    2d12:	07 c0       	rjmp	.+14     	; 0x2d22 <LCD_Write_Caracter+0x4e>
    2d14:	ab e3       	ldi	r26, 0x3B	; 59
    2d16:	b0 e0       	ldi	r27, 0x00	; 0
    2d18:	eb e3       	ldi	r30, 0x3B	; 59
    2d1a:	f0 e0       	ldi	r31, 0x00	; 0
    2d1c:	80 81       	ld	r24, Z
    2d1e:	80 61       	ori	r24, 0x10	; 16
    2d20:	8c 93       	st	X, r24
	PIN55(DIO_ReadSegmentOfAddress(Caracter ,PIN_5 ));
    2d22:	8d 8d       	ldd	r24, Y+29	; 0x1d
    2d24:	65 e0       	ldi	r22, 0x05	; 5
    2d26:	0e 94 b7 0e 	call	0x1d6e	; 0x1d6e <DIO_ReadSegmentOfAddress>
    2d2a:	88 23       	and	r24, r24
    2d2c:	41 f4       	brne	.+16     	; 0x2d3e <LCD_Write_Caracter+0x6a>
    2d2e:	ab e3       	ldi	r26, 0x3B	; 59
    2d30:	b0 e0       	ldi	r27, 0x00	; 0
    2d32:	eb e3       	ldi	r30, 0x3B	; 59
    2d34:	f0 e0       	ldi	r31, 0x00	; 0
    2d36:	80 81       	ld	r24, Z
    2d38:	8f 7d       	andi	r24, 0xDF	; 223
    2d3a:	8c 93       	st	X, r24
    2d3c:	07 c0       	rjmp	.+14     	; 0x2d4c <LCD_Write_Caracter+0x78>
    2d3e:	ab e3       	ldi	r26, 0x3B	; 59
    2d40:	b0 e0       	ldi	r27, 0x00	; 0
    2d42:	eb e3       	ldi	r30, 0x3B	; 59
    2d44:	f0 e0       	ldi	r31, 0x00	; 0
    2d46:	80 81       	ld	r24, Z
    2d48:	80 62       	ori	r24, 0x20	; 32
    2d4a:	8c 93       	st	X, r24
	PIN66(DIO_ReadSegmentOfAddress(Caracter ,PIN_6 ));
    2d4c:	8d 8d       	ldd	r24, Y+29	; 0x1d
    2d4e:	66 e0       	ldi	r22, 0x06	; 6
    2d50:	0e 94 b7 0e 	call	0x1d6e	; 0x1d6e <DIO_ReadSegmentOfAddress>
    2d54:	88 23       	and	r24, r24
    2d56:	41 f4       	brne	.+16     	; 0x2d68 <LCD_Write_Caracter+0x94>
    2d58:	ab e3       	ldi	r26, 0x3B	; 59
    2d5a:	b0 e0       	ldi	r27, 0x00	; 0
    2d5c:	eb e3       	ldi	r30, 0x3B	; 59
    2d5e:	f0 e0       	ldi	r31, 0x00	; 0
    2d60:	80 81       	ld	r24, Z
    2d62:	8f 7b       	andi	r24, 0xBF	; 191
    2d64:	8c 93       	st	X, r24
    2d66:	07 c0       	rjmp	.+14     	; 0x2d76 <LCD_Write_Caracter+0xa2>
    2d68:	ab e3       	ldi	r26, 0x3B	; 59
    2d6a:	b0 e0       	ldi	r27, 0x00	; 0
    2d6c:	eb e3       	ldi	r30, 0x3B	; 59
    2d6e:	f0 e0       	ldi	r31, 0x00	; 0
    2d70:	80 81       	ld	r24, Z
    2d72:	80 64       	ori	r24, 0x40	; 64
    2d74:	8c 93       	st	X, r24
	PIN77(DIO_ReadSegmentOfAddress(Caracter ,PIN_7 ));
    2d76:	8d 8d       	ldd	r24, Y+29	; 0x1d
    2d78:	67 e0       	ldi	r22, 0x07	; 7
    2d7a:	0e 94 b7 0e 	call	0x1d6e	; 0x1d6e <DIO_ReadSegmentOfAddress>
    2d7e:	88 23       	and	r24, r24
    2d80:	41 f4       	brne	.+16     	; 0x2d92 <LCD_Write_Caracter+0xbe>
    2d82:	ab e3       	ldi	r26, 0x3B	; 59
    2d84:	b0 e0       	ldi	r27, 0x00	; 0
    2d86:	eb e3       	ldi	r30, 0x3B	; 59
    2d88:	f0 e0       	ldi	r31, 0x00	; 0
    2d8a:	80 81       	ld	r24, Z
    2d8c:	8f 77       	andi	r24, 0x7F	; 127
    2d8e:	8c 93       	st	X, r24
    2d90:	07 c0       	rjmp	.+14     	; 0x2da0 <LCD_Write_Caracter+0xcc>
    2d92:	ab e3       	ldi	r26, 0x3B	; 59
    2d94:	b0 e0       	ldi	r27, 0x00	; 0
    2d96:	eb e3       	ldi	r30, 0x3B	; 59
    2d98:	f0 e0       	ldi	r31, 0x00	; 0
    2d9a:	80 81       	ld	r24, Z
    2d9c:	80 68       	ori	r24, 0x80	; 128
    2d9e:	8c 93       	st	X, r24

	ENABLEMODE(ENABLE_LCD);                // ENABLE_LCD
    2da0:	a2 e3       	ldi	r26, 0x32	; 50
    2da2:	b0 e0       	ldi	r27, 0x00	; 0
    2da4:	e2 e3       	ldi	r30, 0x32	; 50
    2da6:	f0 e0       	ldi	r31, 0x00	; 0
    2da8:	80 81       	ld	r24, Z
    2daa:	80 61       	ori	r24, 0x10	; 16
    2dac:	8c 93       	st	X, r24
    2dae:	80 e0       	ldi	r24, 0x00	; 0
    2db0:	90 e0       	ldi	r25, 0x00	; 0
    2db2:	a0 e0       	ldi	r26, 0x00	; 0
    2db4:	b0 e4       	ldi	r27, 0x40	; 64
    2db6:	89 8f       	std	Y+25, r24	; 0x19
    2db8:	9a 8f       	std	Y+26, r25	; 0x1a
    2dba:	ab 8f       	std	Y+27, r26	; 0x1b
    2dbc:	bc 8f       	std	Y+28, r27	; 0x1c
 */
void
_delay_ms(double __ms)
{
	uint16_t __ticks;
	double __tmp = ((F_CPU) / 4e3) * __ms;
    2dbe:	69 8d       	ldd	r22, Y+25	; 0x19
    2dc0:	7a 8d       	ldd	r23, Y+26	; 0x1a
    2dc2:	8b 8d       	ldd	r24, Y+27	; 0x1b
    2dc4:	9c 8d       	ldd	r25, Y+28	; 0x1c
    2dc6:	20 e0       	ldi	r18, 0x00	; 0
    2dc8:	30 e0       	ldi	r19, 0x00	; 0
    2dca:	4a ef       	ldi	r20, 0xFA	; 250
    2dcc:	54 e4       	ldi	r21, 0x44	; 68
    2dce:	0e 94 1f 02 	call	0x43e	; 0x43e <__mulsf3>
    2dd2:	dc 01       	movw	r26, r24
    2dd4:	cb 01       	movw	r24, r22
    2dd6:	8d 8b       	std	Y+21, r24	; 0x15
    2dd8:	9e 8b       	std	Y+22, r25	; 0x16
    2dda:	af 8b       	std	Y+23, r26	; 0x17
    2ddc:	b8 8f       	std	Y+24, r27	; 0x18
	if (__tmp < 1.0)
    2dde:	6d 89       	ldd	r22, Y+21	; 0x15
    2de0:	7e 89       	ldd	r23, Y+22	; 0x16
    2de2:	8f 89       	ldd	r24, Y+23	; 0x17
    2de4:	98 8d       	ldd	r25, Y+24	; 0x18
    2de6:	20 e0       	ldi	r18, 0x00	; 0
    2de8:	30 e0       	ldi	r19, 0x00	; 0
    2dea:	40 e8       	ldi	r20, 0x80	; 128
    2dec:	5f e3       	ldi	r21, 0x3F	; 63
    2dee:	0e 94 79 03 	call	0x6f2	; 0x6f2 <__ltsf2>
    2df2:	88 23       	and	r24, r24
    2df4:	2c f4       	brge	.+10     	; 0x2e00 <LCD_Write_Caracter+0x12c>
		__ticks = 1;
    2df6:	81 e0       	ldi	r24, 0x01	; 1
    2df8:	90 e0       	ldi	r25, 0x00	; 0
    2dfa:	9c 8b       	std	Y+20, r25	; 0x14
    2dfc:	8b 8b       	std	Y+19, r24	; 0x13
    2dfe:	3f c0       	rjmp	.+126    	; 0x2e7e <LCD_Write_Caracter+0x1aa>
	else if (__tmp > 65535)
    2e00:	6d 89       	ldd	r22, Y+21	; 0x15
    2e02:	7e 89       	ldd	r23, Y+22	; 0x16
    2e04:	8f 89       	ldd	r24, Y+23	; 0x17
    2e06:	98 8d       	ldd	r25, Y+24	; 0x18
    2e08:	20 e0       	ldi	r18, 0x00	; 0
    2e0a:	3f ef       	ldi	r19, 0xFF	; 255
    2e0c:	4f e7       	ldi	r20, 0x7F	; 127
    2e0e:	57 e4       	ldi	r21, 0x47	; 71
    2e10:	0e 94 19 03 	call	0x632	; 0x632 <__gtsf2>
    2e14:	18 16       	cp	r1, r24
    2e16:	4c f5       	brge	.+82     	; 0x2e6a <LCD_Write_Caracter+0x196>
	{
		//	__ticks = requested delay in 1/10 ms
		__ticks = (uint16_t) (__ms * 10.0);
    2e18:	69 8d       	ldd	r22, Y+25	; 0x19
    2e1a:	7a 8d       	ldd	r23, Y+26	; 0x1a
    2e1c:	8b 8d       	ldd	r24, Y+27	; 0x1b
    2e1e:	9c 8d       	ldd	r25, Y+28	; 0x1c
    2e20:	20 e0       	ldi	r18, 0x00	; 0
    2e22:	30 e0       	ldi	r19, 0x00	; 0
    2e24:	40 e2       	ldi	r20, 0x20	; 32
    2e26:	51 e4       	ldi	r21, 0x41	; 65
    2e28:	0e 94 1f 02 	call	0x43e	; 0x43e <__mulsf3>
    2e2c:	dc 01       	movw	r26, r24
    2e2e:	cb 01       	movw	r24, r22
    2e30:	bc 01       	movw	r22, r24
    2e32:	cd 01       	movw	r24, r26
    2e34:	0e 94 49 00 	call	0x92	; 0x92 <__fixunssfsi>
    2e38:	dc 01       	movw	r26, r24
    2e3a:	cb 01       	movw	r24, r22
    2e3c:	9c 8b       	std	Y+20, r25	; 0x14
    2e3e:	8b 8b       	std	Y+19, r24	; 0x13
    2e40:	0f c0       	rjmp	.+30     	; 0x2e60 <LCD_Write_Caracter+0x18c>
    2e42:	88 ec       	ldi	r24, 0xC8	; 200
    2e44:	90 e0       	ldi	r25, 0x00	; 0
    2e46:	9a 8b       	std	Y+18, r25	; 0x12
    2e48:	89 8b       	std	Y+17, r24	; 0x11
    2e4a:	89 89       	ldd	r24, Y+17	; 0x11
    2e4c:	9a 89       	ldd	r25, Y+18	; 0x12
    2e4e:	01 97       	sbiw	r24, 0x01	; 1
    2e50:	f1 f7       	brne	.-4      	; 0x2e4e <LCD_Write_Caracter+0x17a>
    2e52:	9a 8b       	std	Y+18, r25	; 0x12
    2e54:	89 8b       	std	Y+17, r24	; 0x11
		while(__ticks)
		{
			// wait 1/10 ms
			_delay_loop_2(((F_CPU) / 4e3) / 10);
			__ticks --;
    2e56:	8b 89       	ldd	r24, Y+19	; 0x13
    2e58:	9c 89       	ldd	r25, Y+20	; 0x14
    2e5a:	01 97       	sbiw	r24, 0x01	; 1
    2e5c:	9c 8b       	std	Y+20, r25	; 0x14
    2e5e:	8b 8b       	std	Y+19, r24	; 0x13
		__ticks = 1;
	else if (__tmp > 65535)
	{
		//	__ticks = requested delay in 1/10 ms
		__ticks = (uint16_t) (__ms * 10.0);
		while(__ticks)
    2e60:	8b 89       	ldd	r24, Y+19	; 0x13
    2e62:	9c 89       	ldd	r25, Y+20	; 0x14
    2e64:	00 97       	sbiw	r24, 0x00	; 0
    2e66:	69 f7       	brne	.-38     	; 0x2e42 <LCD_Write_Caracter+0x16e>
    2e68:	14 c0       	rjmp	.+40     	; 0x2e92 <LCD_Write_Caracter+0x1be>
			__ticks --;
		}
		return;
	}
	else
		__ticks = (uint16_t)__tmp;
    2e6a:	6d 89       	ldd	r22, Y+21	; 0x15
    2e6c:	7e 89       	ldd	r23, Y+22	; 0x16
    2e6e:	8f 89       	ldd	r24, Y+23	; 0x17
    2e70:	98 8d       	ldd	r25, Y+24	; 0x18
    2e72:	0e 94 49 00 	call	0x92	; 0x92 <__fixunssfsi>
    2e76:	dc 01       	movw	r26, r24
    2e78:	cb 01       	movw	r24, r22
    2e7a:	9c 8b       	std	Y+20, r25	; 0x14
    2e7c:	8b 8b       	std	Y+19, r24	; 0x13
    2e7e:	8b 89       	ldd	r24, Y+19	; 0x13
    2e80:	9c 89       	ldd	r25, Y+20	; 0x14
    2e82:	98 8b       	std	Y+16, r25	; 0x10
    2e84:	8f 87       	std	Y+15, r24	; 0x0f
    2e86:	8f 85       	ldd	r24, Y+15	; 0x0f
    2e88:	98 89       	ldd	r25, Y+16	; 0x10
    2e8a:	01 97       	sbiw	r24, 0x01	; 1
    2e8c:	f1 f7       	brne	.-4      	; 0x2e8a <LCD_Write_Caracter+0x1b6>
    2e8e:	98 8b       	std	Y+16, r25	; 0x10
    2e90:	8f 87       	std	Y+15, r24	; 0x0f
	_delay_ms(2);
	ENABLEMODE(DISABLE_LCD);               // DISABLE_LCD
    2e92:	a2 e3       	ldi	r26, 0x32	; 50
    2e94:	b0 e0       	ldi	r27, 0x00	; 0
    2e96:	e2 e3       	ldi	r30, 0x32	; 50
    2e98:	f0 e0       	ldi	r31, 0x00	; 0
    2e9a:	80 81       	ld	r24, Z
    2e9c:	8f 7e       	andi	r24, 0xEF	; 239
    2e9e:	8c 93       	st	X, r24

	PIN44(DIO_ReadSegmentOfAddress(Caracter ,PIN_0 ));
    2ea0:	8d 8d       	ldd	r24, Y+29	; 0x1d
    2ea2:	60 e0       	ldi	r22, 0x00	; 0
    2ea4:	0e 94 b7 0e 	call	0x1d6e	; 0x1d6e <DIO_ReadSegmentOfAddress>
    2ea8:	88 23       	and	r24, r24
    2eaa:	41 f4       	brne	.+16     	; 0x2ebc <LCD_Write_Caracter+0x1e8>
    2eac:	ab e3       	ldi	r26, 0x3B	; 59
    2eae:	b0 e0       	ldi	r27, 0x00	; 0
    2eb0:	eb e3       	ldi	r30, 0x3B	; 59
    2eb2:	f0 e0       	ldi	r31, 0x00	; 0
    2eb4:	80 81       	ld	r24, Z
    2eb6:	8f 7e       	andi	r24, 0xEF	; 239
    2eb8:	8c 93       	st	X, r24
    2eba:	07 c0       	rjmp	.+14     	; 0x2eca <LCD_Write_Caracter+0x1f6>
    2ebc:	ab e3       	ldi	r26, 0x3B	; 59
    2ebe:	b0 e0       	ldi	r27, 0x00	; 0
    2ec0:	eb e3       	ldi	r30, 0x3B	; 59
    2ec2:	f0 e0       	ldi	r31, 0x00	; 0
    2ec4:	80 81       	ld	r24, Z
    2ec6:	80 61       	ori	r24, 0x10	; 16
    2ec8:	8c 93       	st	X, r24
	PIN55(DIO_ReadSegmentOfAddress(Caracter ,PIN_1 ));
    2eca:	8d 8d       	ldd	r24, Y+29	; 0x1d
    2ecc:	61 e0       	ldi	r22, 0x01	; 1
    2ece:	0e 94 b7 0e 	call	0x1d6e	; 0x1d6e <DIO_ReadSegmentOfAddress>
    2ed2:	88 23       	and	r24, r24
    2ed4:	41 f4       	brne	.+16     	; 0x2ee6 <LCD_Write_Caracter+0x212>
    2ed6:	ab e3       	ldi	r26, 0x3B	; 59
    2ed8:	b0 e0       	ldi	r27, 0x00	; 0
    2eda:	eb e3       	ldi	r30, 0x3B	; 59
    2edc:	f0 e0       	ldi	r31, 0x00	; 0
    2ede:	80 81       	ld	r24, Z
    2ee0:	8f 7d       	andi	r24, 0xDF	; 223
    2ee2:	8c 93       	st	X, r24
    2ee4:	07 c0       	rjmp	.+14     	; 0x2ef4 <LCD_Write_Caracter+0x220>
    2ee6:	ab e3       	ldi	r26, 0x3B	; 59
    2ee8:	b0 e0       	ldi	r27, 0x00	; 0
    2eea:	eb e3       	ldi	r30, 0x3B	; 59
    2eec:	f0 e0       	ldi	r31, 0x00	; 0
    2eee:	80 81       	ld	r24, Z
    2ef0:	80 62       	ori	r24, 0x20	; 32
    2ef2:	8c 93       	st	X, r24
	PIN66(DIO_ReadSegmentOfAddress(Caracter ,PIN_2 ));
    2ef4:	8d 8d       	ldd	r24, Y+29	; 0x1d
    2ef6:	62 e0       	ldi	r22, 0x02	; 2
    2ef8:	0e 94 b7 0e 	call	0x1d6e	; 0x1d6e <DIO_ReadSegmentOfAddress>
    2efc:	88 23       	and	r24, r24
    2efe:	41 f4       	brne	.+16     	; 0x2f10 <LCD_Write_Caracter+0x23c>
    2f00:	ab e3       	ldi	r26, 0x3B	; 59
    2f02:	b0 e0       	ldi	r27, 0x00	; 0
    2f04:	eb e3       	ldi	r30, 0x3B	; 59
    2f06:	f0 e0       	ldi	r31, 0x00	; 0
    2f08:	80 81       	ld	r24, Z
    2f0a:	8f 7b       	andi	r24, 0xBF	; 191
    2f0c:	8c 93       	st	X, r24
    2f0e:	07 c0       	rjmp	.+14     	; 0x2f1e <LCD_Write_Caracter+0x24a>
    2f10:	ab e3       	ldi	r26, 0x3B	; 59
    2f12:	b0 e0       	ldi	r27, 0x00	; 0
    2f14:	eb e3       	ldi	r30, 0x3B	; 59
    2f16:	f0 e0       	ldi	r31, 0x00	; 0
    2f18:	80 81       	ld	r24, Z
    2f1a:	80 64       	ori	r24, 0x40	; 64
    2f1c:	8c 93       	st	X, r24
	PIN77(DIO_ReadSegmentOfAddress(Caracter ,PIN_3 ));
    2f1e:	8d 8d       	ldd	r24, Y+29	; 0x1d
    2f20:	63 e0       	ldi	r22, 0x03	; 3
    2f22:	0e 94 b7 0e 	call	0x1d6e	; 0x1d6e <DIO_ReadSegmentOfAddress>
    2f26:	88 23       	and	r24, r24
    2f28:	41 f4       	brne	.+16     	; 0x2f3a <LCD_Write_Caracter+0x266>
    2f2a:	ab e3       	ldi	r26, 0x3B	; 59
    2f2c:	b0 e0       	ldi	r27, 0x00	; 0
    2f2e:	eb e3       	ldi	r30, 0x3B	; 59
    2f30:	f0 e0       	ldi	r31, 0x00	; 0
    2f32:	80 81       	ld	r24, Z
    2f34:	8f 77       	andi	r24, 0x7F	; 127
    2f36:	8c 93       	st	X, r24
    2f38:	07 c0       	rjmp	.+14     	; 0x2f48 <LCD_Write_Caracter+0x274>
    2f3a:	ab e3       	ldi	r26, 0x3B	; 59
    2f3c:	b0 e0       	ldi	r27, 0x00	; 0
    2f3e:	eb e3       	ldi	r30, 0x3B	; 59
    2f40:	f0 e0       	ldi	r31, 0x00	; 0
    2f42:	80 81       	ld	r24, Z
    2f44:	80 68       	ori	r24, 0x80	; 128
    2f46:	8c 93       	st	X, r24

	ENABLEMODE(ENABLE_LCD);					// ENABLE_LCD
    2f48:	a2 e3       	ldi	r26, 0x32	; 50
    2f4a:	b0 e0       	ldi	r27, 0x00	; 0
    2f4c:	e2 e3       	ldi	r30, 0x32	; 50
    2f4e:	f0 e0       	ldi	r31, 0x00	; 0
    2f50:	80 81       	ld	r24, Z
    2f52:	80 61       	ori	r24, 0x10	; 16
    2f54:	8c 93       	st	X, r24
    2f56:	80 e0       	ldi	r24, 0x00	; 0
    2f58:	90 e0       	ldi	r25, 0x00	; 0
    2f5a:	a0 e0       	ldi	r26, 0x00	; 0
    2f5c:	b0 e4       	ldi	r27, 0x40	; 64
    2f5e:	8b 87       	std	Y+11, r24	; 0x0b
    2f60:	9c 87       	std	Y+12, r25	; 0x0c
    2f62:	ad 87       	std	Y+13, r26	; 0x0d
    2f64:	be 87       	std	Y+14, r27	; 0x0e
 */
void
_delay_ms(double __ms)
{
	uint16_t __ticks;
	double __tmp = ((F_CPU) / 4e3) * __ms;
    2f66:	6b 85       	ldd	r22, Y+11	; 0x0b
    2f68:	7c 85       	ldd	r23, Y+12	; 0x0c
    2f6a:	8d 85       	ldd	r24, Y+13	; 0x0d
    2f6c:	9e 85       	ldd	r25, Y+14	; 0x0e
    2f6e:	20 e0       	ldi	r18, 0x00	; 0
    2f70:	30 e0       	ldi	r19, 0x00	; 0
    2f72:	4a ef       	ldi	r20, 0xFA	; 250
    2f74:	54 e4       	ldi	r21, 0x44	; 68
    2f76:	0e 94 1f 02 	call	0x43e	; 0x43e <__mulsf3>
    2f7a:	dc 01       	movw	r26, r24
    2f7c:	cb 01       	movw	r24, r22
    2f7e:	8f 83       	std	Y+7, r24	; 0x07
    2f80:	98 87       	std	Y+8, r25	; 0x08
    2f82:	a9 87       	std	Y+9, r26	; 0x09
    2f84:	ba 87       	std	Y+10, r27	; 0x0a
	if (__tmp < 1.0)
    2f86:	6f 81       	ldd	r22, Y+7	; 0x07
    2f88:	78 85       	ldd	r23, Y+8	; 0x08
    2f8a:	89 85       	ldd	r24, Y+9	; 0x09
    2f8c:	9a 85       	ldd	r25, Y+10	; 0x0a
    2f8e:	20 e0       	ldi	r18, 0x00	; 0
    2f90:	30 e0       	ldi	r19, 0x00	; 0
    2f92:	40 e8       	ldi	r20, 0x80	; 128
    2f94:	5f e3       	ldi	r21, 0x3F	; 63
    2f96:	0e 94 79 03 	call	0x6f2	; 0x6f2 <__ltsf2>
    2f9a:	88 23       	and	r24, r24
    2f9c:	2c f4       	brge	.+10     	; 0x2fa8 <LCD_Write_Caracter+0x2d4>
		__ticks = 1;
    2f9e:	81 e0       	ldi	r24, 0x01	; 1
    2fa0:	90 e0       	ldi	r25, 0x00	; 0
    2fa2:	9e 83       	std	Y+6, r25	; 0x06
    2fa4:	8d 83       	std	Y+5, r24	; 0x05
    2fa6:	3f c0       	rjmp	.+126    	; 0x3026 <LCD_Write_Caracter+0x352>
	else if (__tmp > 65535)
    2fa8:	6f 81       	ldd	r22, Y+7	; 0x07
    2faa:	78 85       	ldd	r23, Y+8	; 0x08
    2fac:	89 85       	ldd	r24, Y+9	; 0x09
    2fae:	9a 85       	ldd	r25, Y+10	; 0x0a
    2fb0:	20 e0       	ldi	r18, 0x00	; 0
    2fb2:	3f ef       	ldi	r19, 0xFF	; 255
    2fb4:	4f e7       	ldi	r20, 0x7F	; 127
    2fb6:	57 e4       	ldi	r21, 0x47	; 71
    2fb8:	0e 94 19 03 	call	0x632	; 0x632 <__gtsf2>
    2fbc:	18 16       	cp	r1, r24
    2fbe:	4c f5       	brge	.+82     	; 0x3012 <LCD_Write_Caracter+0x33e>
	{
		//	__ticks = requested delay in 1/10 ms
		__ticks = (uint16_t) (__ms * 10.0);
    2fc0:	6b 85       	ldd	r22, Y+11	; 0x0b
    2fc2:	7c 85       	ldd	r23, Y+12	; 0x0c
    2fc4:	8d 85       	ldd	r24, Y+13	; 0x0d
    2fc6:	9e 85       	ldd	r25, Y+14	; 0x0e
    2fc8:	20 e0       	ldi	r18, 0x00	; 0
    2fca:	30 e0       	ldi	r19, 0x00	; 0
    2fcc:	40 e2       	ldi	r20, 0x20	; 32
    2fce:	51 e4       	ldi	r21, 0x41	; 65
    2fd0:	0e 94 1f 02 	call	0x43e	; 0x43e <__mulsf3>
    2fd4:	dc 01       	movw	r26, r24
    2fd6:	cb 01       	movw	r24, r22
    2fd8:	bc 01       	movw	r22, r24
    2fda:	cd 01       	movw	r24, r26
    2fdc:	0e 94 49 00 	call	0x92	; 0x92 <__fixunssfsi>
    2fe0:	dc 01       	movw	r26, r24
    2fe2:	cb 01       	movw	r24, r22
    2fe4:	9e 83       	std	Y+6, r25	; 0x06
    2fe6:	8d 83       	std	Y+5, r24	; 0x05
    2fe8:	0f c0       	rjmp	.+30     	; 0x3008 <LCD_Write_Caracter+0x334>
    2fea:	88 ec       	ldi	r24, 0xC8	; 200
    2fec:	90 e0       	ldi	r25, 0x00	; 0
    2fee:	9c 83       	std	Y+4, r25	; 0x04
    2ff0:	8b 83       	std	Y+3, r24	; 0x03
    2ff2:	8b 81       	ldd	r24, Y+3	; 0x03
    2ff4:	9c 81       	ldd	r25, Y+4	; 0x04
    2ff6:	01 97       	sbiw	r24, 0x01	; 1
    2ff8:	f1 f7       	brne	.-4      	; 0x2ff6 <LCD_Write_Caracter+0x322>
    2ffa:	9c 83       	std	Y+4, r25	; 0x04
    2ffc:	8b 83       	std	Y+3, r24	; 0x03
		while(__ticks)
		{
			// wait 1/10 ms
			_delay_loop_2(((F_CPU) / 4e3) / 10);
			__ticks --;
    2ffe:	8d 81       	ldd	r24, Y+5	; 0x05
    3000:	9e 81       	ldd	r25, Y+6	; 0x06
    3002:	01 97       	sbiw	r24, 0x01	; 1
    3004:	9e 83       	std	Y+6, r25	; 0x06
    3006:	8d 83       	std	Y+5, r24	; 0x05
		__ticks = 1;
	else if (__tmp > 65535)
	{
		//	__ticks = requested delay in 1/10 ms
		__ticks = (uint16_t) (__ms * 10.0);
		while(__ticks)
    3008:	8d 81       	ldd	r24, Y+5	; 0x05
    300a:	9e 81       	ldd	r25, Y+6	; 0x06
    300c:	00 97       	sbiw	r24, 0x00	; 0
    300e:	69 f7       	brne	.-38     	; 0x2fea <LCD_Write_Caracter+0x316>
    3010:	14 c0       	rjmp	.+40     	; 0x303a <LCD_Write_Caracter+0x366>
			__ticks --;
		}
		return;
	}
	else
		__ticks = (uint16_t)__tmp;
    3012:	6f 81       	ldd	r22, Y+7	; 0x07
    3014:	78 85       	ldd	r23, Y+8	; 0x08
    3016:	89 85       	ldd	r24, Y+9	; 0x09
    3018:	9a 85       	ldd	r25, Y+10	; 0x0a
    301a:	0e 94 49 00 	call	0x92	; 0x92 <__fixunssfsi>
    301e:	dc 01       	movw	r26, r24
    3020:	cb 01       	movw	r24, r22
    3022:	9e 83       	std	Y+6, r25	; 0x06
    3024:	8d 83       	std	Y+5, r24	; 0x05
    3026:	8d 81       	ldd	r24, Y+5	; 0x05
    3028:	9e 81       	ldd	r25, Y+6	; 0x06
    302a:	9a 83       	std	Y+2, r25	; 0x02
    302c:	89 83       	std	Y+1, r24	; 0x01
    302e:	89 81       	ldd	r24, Y+1	; 0x01
    3030:	9a 81       	ldd	r25, Y+2	; 0x02
    3032:	01 97       	sbiw	r24, 0x01	; 1
    3034:	f1 f7       	brne	.-4      	; 0x3032 <LCD_Write_Caracter+0x35e>
    3036:	9a 83       	std	Y+2, r25	; 0x02
    3038:	89 83       	std	Y+1, r24	; 0x01
	_delay_ms(2);
	ENABLEMODE(DISABLE_LCD);
    303a:	a2 e3       	ldi	r26, 0x32	; 50
    303c:	b0 e0       	ldi	r27, 0x00	; 0
    303e:	e2 e3       	ldi	r30, 0x32	; 50
    3040:	f0 e0       	ldi	r31, 0x00	; 0
    3042:	80 81       	ld	r24, Z
    3044:	8f 7e       	andi	r24, 0xEF	; 239
    3046:	8c 93       	st	X, r24
  #endif// DISABLE_LCD
}
    3048:	6d 96       	adiw	r28, 0x1d	; 29
    304a:	0f b6       	in	r0, 0x3f	; 63
    304c:	f8 94       	cli
    304e:	de bf       	out	0x3e, r29	; 62
    3050:	0f be       	out	0x3f, r0	; 63
    3052:	cd bf       	out	0x3d, r28	; 61
    3054:	cf 91       	pop	r28
    3056:	df 91       	pop	r29
    3058:	08 95       	ret

0000305a <LCD_Write_String>:
/************************************************************************************/
/*****************************DISPLY STRING ON LCD***********************************/
/************************************************************************************/

void LCD_Write_String(uint8 Data[])
{
    305a:	df 93       	push	r29
    305c:	cf 93       	push	r28
    305e:	00 d0       	rcall	.+0      	; 0x3060 <LCD_Write_String+0x6>
    3060:	0f 92       	push	r0
    3062:	cd b7       	in	r28, 0x3d	; 61
    3064:	de b7       	in	r29, 0x3e	; 62
    3066:	9b 83       	std	Y+3, r25	; 0x03
    3068:	8a 83       	std	Y+2, r24	; 0x02
	//uint8 Size = sizeof(Data)/sizeof(Data[0]);
	for(uint8 i=0 ; Data[i]!='\0' ; i++)
    306a:	19 82       	std	Y+1, r1	; 0x01
    306c:	0e c0       	rjmp	.+28     	; 0x308a <LCD_Write_String+0x30>
	{
		LCD_Write_Caracter(Data[i]);
    306e:	89 81       	ldd	r24, Y+1	; 0x01
    3070:	28 2f       	mov	r18, r24
    3072:	30 e0       	ldi	r19, 0x00	; 0
    3074:	8a 81       	ldd	r24, Y+2	; 0x02
    3076:	9b 81       	ldd	r25, Y+3	; 0x03
    3078:	fc 01       	movw	r30, r24
    307a:	e2 0f       	add	r30, r18
    307c:	f3 1f       	adc	r31, r19
    307e:	80 81       	ld	r24, Z
    3080:	0e 94 6a 16 	call	0x2cd4	; 0x2cd4 <LCD_Write_Caracter>
/************************************************************************************/

void LCD_Write_String(uint8 Data[])
{
	//uint8 Size = sizeof(Data)/sizeof(Data[0]);
	for(uint8 i=0 ; Data[i]!='\0' ; i++)
    3084:	89 81       	ldd	r24, Y+1	; 0x01
    3086:	8f 5f       	subi	r24, 0xFF	; 255
    3088:	89 83       	std	Y+1, r24	; 0x01
    308a:	89 81       	ldd	r24, Y+1	; 0x01
    308c:	28 2f       	mov	r18, r24
    308e:	30 e0       	ldi	r19, 0x00	; 0
    3090:	8a 81       	ldd	r24, Y+2	; 0x02
    3092:	9b 81       	ldd	r25, Y+3	; 0x03
    3094:	fc 01       	movw	r30, r24
    3096:	e2 0f       	add	r30, r18
    3098:	f3 1f       	adc	r31, r19
    309a:	80 81       	ld	r24, Z
    309c:	88 23       	and	r24, r24
    309e:	39 f7       	brne	.-50     	; 0x306e <LCD_Write_String+0x14>
	{
		LCD_Write_Caracter(Data[i]);
	}

}
    30a0:	0f 90       	pop	r0
    30a2:	0f 90       	pop	r0
    30a4:	0f 90       	pop	r0
    30a6:	cf 91       	pop	r28
    30a8:	df 91       	pop	r29
    30aa:	08 95       	ret

000030ac <Lcd_Clear>:
//////////////////////////////////////////////////////////////////////////////////////


/*****************************CLEAR ALL LCD****************************************/
void Lcd_Clear(void)
{
    30ac:	df 93       	push	r29
    30ae:	cf 93       	push	r28
    30b0:	cd b7       	in	r28, 0x3d	; 61
    30b2:	de b7       	in	r29, 0x3e	; 62
	LCD_Commands(CLEAR);
    30b4:	81 e0       	ldi	r24, 0x01	; 1
    30b6:	0e 94 a7 14 	call	0x294e	; 0x294e <LCD_Commands>
}
    30ba:	cf 91       	pop	r28
    30bc:	df 91       	pop	r29
    30be:	08 95       	ret

000030c0 <SET_CGRAM>:



/**********************Saving New Drowing Varable In CGRAM ON LCD****************/
void SET_CGRAM(uint8 location , uint8 *Array)
{
    30c0:	df 93       	push	r29
    30c2:	cf 93       	push	r28
    30c4:	cd b7       	in	r28, 0x3d	; 61
    30c6:	de b7       	in	r29, 0x3e	; 62
    30c8:	a0 97       	sbiw	r28, 0x20	; 32
    30ca:	0f b6       	in	r0, 0x3f	; 63
    30cc:	f8 94       	cli
    30ce:	de bf       	out	0x3e, r29	; 62
    30d0:	0f be       	out	0x3f, r0	; 63
    30d2:	cd bf       	out	0x3d, r28	; 61
    30d4:	8e 8f       	std	Y+30, r24	; 0x1e
    30d6:	78 a3       	std	Y+32, r23	; 0x20
    30d8:	6f 8f       	std	Y+31, r22	; 0x1f
	LCD_Commands(CGRAM+(location*8));
    30da:	8e 8d       	ldd	r24, Y+30	; 0x1e
    30dc:	88 2f       	mov	r24, r24
    30de:	90 e0       	ldi	r25, 0x00	; 0
    30e0:	08 96       	adiw	r24, 0x08	; 8
    30e2:	88 0f       	add	r24, r24
    30e4:	99 1f       	adc	r25, r25
    30e6:	88 0f       	add	r24, r24
    30e8:	99 1f       	adc	r25, r25
    30ea:	88 0f       	add	r24, r24
    30ec:	99 1f       	adc	r25, r25
    30ee:	0e 94 a7 14 	call	0x294e	; 0x294e <LCD_Commands>

	for(uint8 i=0 ; i<8 ; i++)
    30f2:	1d 8e       	std	Y+29, r1	; 0x1d
    30f4:	80 c0       	rjmp	.+256    	; 0x31f6 <SET_CGRAM+0x136>
	{
		LCD_Write_Caracter(Array[i]);
    30f6:	8d 8d       	ldd	r24, Y+29	; 0x1d
    30f8:	28 2f       	mov	r18, r24
    30fa:	30 e0       	ldi	r19, 0x00	; 0
    30fc:	8f 8d       	ldd	r24, Y+31	; 0x1f
    30fe:	98 a1       	ldd	r25, Y+32	; 0x20
    3100:	fc 01       	movw	r30, r24
    3102:	e2 0f       	add	r30, r18
    3104:	f3 1f       	adc	r31, r19
    3106:	80 81       	ld	r24, Z
    3108:	0e 94 6a 16 	call	0x2cd4	; 0x2cd4 <LCD_Write_Caracter>
    310c:	80 e0       	ldi	r24, 0x00	; 0
    310e:	90 e0       	ldi	r25, 0x00	; 0
    3110:	a0 e0       	ldi	r26, 0x00	; 0
    3112:	b0 e4       	ldi	r27, 0x40	; 64
    3114:	89 8f       	std	Y+25, r24	; 0x19
    3116:	9a 8f       	std	Y+26, r25	; 0x1a
    3118:	ab 8f       	std	Y+27, r26	; 0x1b
    311a:	bc 8f       	std	Y+28, r27	; 0x1c
 */
void
_delay_ms(double __ms)
{
	uint16_t __ticks;
	double __tmp = ((F_CPU) / 4e3) * __ms;
    311c:	69 8d       	ldd	r22, Y+25	; 0x19
    311e:	7a 8d       	ldd	r23, Y+26	; 0x1a
    3120:	8b 8d       	ldd	r24, Y+27	; 0x1b
    3122:	9c 8d       	ldd	r25, Y+28	; 0x1c
    3124:	20 e0       	ldi	r18, 0x00	; 0
    3126:	30 e0       	ldi	r19, 0x00	; 0
    3128:	4a ef       	ldi	r20, 0xFA	; 250
    312a:	54 e4       	ldi	r21, 0x44	; 68
    312c:	0e 94 1f 02 	call	0x43e	; 0x43e <__mulsf3>
    3130:	dc 01       	movw	r26, r24
    3132:	cb 01       	movw	r24, r22
    3134:	8d 8b       	std	Y+21, r24	; 0x15
    3136:	9e 8b       	std	Y+22, r25	; 0x16
    3138:	af 8b       	std	Y+23, r26	; 0x17
    313a:	b8 8f       	std	Y+24, r27	; 0x18
	if (__tmp < 1.0)
    313c:	6d 89       	ldd	r22, Y+21	; 0x15
    313e:	7e 89       	ldd	r23, Y+22	; 0x16
    3140:	8f 89       	ldd	r24, Y+23	; 0x17
    3142:	98 8d       	ldd	r25, Y+24	; 0x18
    3144:	20 e0       	ldi	r18, 0x00	; 0
    3146:	30 e0       	ldi	r19, 0x00	; 0
    3148:	40 e8       	ldi	r20, 0x80	; 128
    314a:	5f e3       	ldi	r21, 0x3F	; 63
    314c:	0e 94 79 03 	call	0x6f2	; 0x6f2 <__ltsf2>
    3150:	88 23       	and	r24, r24
    3152:	2c f4       	brge	.+10     	; 0x315e <SET_CGRAM+0x9e>
		__ticks = 1;
    3154:	81 e0       	ldi	r24, 0x01	; 1
    3156:	90 e0       	ldi	r25, 0x00	; 0
    3158:	9c 8b       	std	Y+20, r25	; 0x14
    315a:	8b 8b       	std	Y+19, r24	; 0x13
    315c:	3f c0       	rjmp	.+126    	; 0x31dc <SET_CGRAM+0x11c>
	else if (__tmp > 65535)
    315e:	6d 89       	ldd	r22, Y+21	; 0x15
    3160:	7e 89       	ldd	r23, Y+22	; 0x16
    3162:	8f 89       	ldd	r24, Y+23	; 0x17
    3164:	98 8d       	ldd	r25, Y+24	; 0x18
    3166:	20 e0       	ldi	r18, 0x00	; 0
    3168:	3f ef       	ldi	r19, 0xFF	; 255
    316a:	4f e7       	ldi	r20, 0x7F	; 127
    316c:	57 e4       	ldi	r21, 0x47	; 71
    316e:	0e 94 19 03 	call	0x632	; 0x632 <__gtsf2>
    3172:	18 16       	cp	r1, r24
    3174:	4c f5       	brge	.+82     	; 0x31c8 <SET_CGRAM+0x108>
	{
		//	__ticks = requested delay in 1/10 ms
		__ticks = (uint16_t) (__ms * 10.0);
    3176:	69 8d       	ldd	r22, Y+25	; 0x19
    3178:	7a 8d       	ldd	r23, Y+26	; 0x1a
    317a:	8b 8d       	ldd	r24, Y+27	; 0x1b
    317c:	9c 8d       	ldd	r25, Y+28	; 0x1c
    317e:	20 e0       	ldi	r18, 0x00	; 0
    3180:	30 e0       	ldi	r19, 0x00	; 0
    3182:	40 e2       	ldi	r20, 0x20	; 32
    3184:	51 e4       	ldi	r21, 0x41	; 65
    3186:	0e 94 1f 02 	call	0x43e	; 0x43e <__mulsf3>
    318a:	dc 01       	movw	r26, r24
    318c:	cb 01       	movw	r24, r22
    318e:	bc 01       	movw	r22, r24
    3190:	cd 01       	movw	r24, r26
    3192:	0e 94 49 00 	call	0x92	; 0x92 <__fixunssfsi>
    3196:	dc 01       	movw	r26, r24
    3198:	cb 01       	movw	r24, r22
    319a:	9c 8b       	std	Y+20, r25	; 0x14
    319c:	8b 8b       	std	Y+19, r24	; 0x13
    319e:	0f c0       	rjmp	.+30     	; 0x31be <SET_CGRAM+0xfe>
    31a0:	88 ec       	ldi	r24, 0xC8	; 200
    31a2:	90 e0       	ldi	r25, 0x00	; 0
    31a4:	9a 8b       	std	Y+18, r25	; 0x12
    31a6:	89 8b       	std	Y+17, r24	; 0x11
    31a8:	89 89       	ldd	r24, Y+17	; 0x11
    31aa:	9a 89       	ldd	r25, Y+18	; 0x12
    31ac:	01 97       	sbiw	r24, 0x01	; 1
    31ae:	f1 f7       	brne	.-4      	; 0x31ac <SET_CGRAM+0xec>
    31b0:	9a 8b       	std	Y+18, r25	; 0x12
    31b2:	89 8b       	std	Y+17, r24	; 0x11
		while(__ticks)
		{
			// wait 1/10 ms
			_delay_loop_2(((F_CPU) / 4e3) / 10);
			__ticks --;
    31b4:	8b 89       	ldd	r24, Y+19	; 0x13
    31b6:	9c 89       	ldd	r25, Y+20	; 0x14
    31b8:	01 97       	sbiw	r24, 0x01	; 1
    31ba:	9c 8b       	std	Y+20, r25	; 0x14
    31bc:	8b 8b       	std	Y+19, r24	; 0x13
		__ticks = 1;
	else if (__tmp > 65535)
	{
		//	__ticks = requested delay in 1/10 ms
		__ticks = (uint16_t) (__ms * 10.0);
		while(__ticks)
    31be:	8b 89       	ldd	r24, Y+19	; 0x13
    31c0:	9c 89       	ldd	r25, Y+20	; 0x14
    31c2:	00 97       	sbiw	r24, 0x00	; 0
    31c4:	69 f7       	brne	.-38     	; 0x31a0 <SET_CGRAM+0xe0>
    31c6:	14 c0       	rjmp	.+40     	; 0x31f0 <SET_CGRAM+0x130>
			__ticks --;
		}
		return;
	}
	else
		__ticks = (uint16_t)__tmp;
    31c8:	6d 89       	ldd	r22, Y+21	; 0x15
    31ca:	7e 89       	ldd	r23, Y+22	; 0x16
    31cc:	8f 89       	ldd	r24, Y+23	; 0x17
    31ce:	98 8d       	ldd	r25, Y+24	; 0x18
    31d0:	0e 94 49 00 	call	0x92	; 0x92 <__fixunssfsi>
    31d4:	dc 01       	movw	r26, r24
    31d6:	cb 01       	movw	r24, r22
    31d8:	9c 8b       	std	Y+20, r25	; 0x14
    31da:	8b 8b       	std	Y+19, r24	; 0x13
    31dc:	8b 89       	ldd	r24, Y+19	; 0x13
    31de:	9c 89       	ldd	r25, Y+20	; 0x14
    31e0:	98 8b       	std	Y+16, r25	; 0x10
    31e2:	8f 87       	std	Y+15, r24	; 0x0f
    31e4:	8f 85       	ldd	r24, Y+15	; 0x0f
    31e6:	98 89       	ldd	r25, Y+16	; 0x10
    31e8:	01 97       	sbiw	r24, 0x01	; 1
    31ea:	f1 f7       	brne	.-4      	; 0x31e8 <SET_CGRAM+0x128>
    31ec:	98 8b       	std	Y+16, r25	; 0x10
    31ee:	8f 87       	std	Y+15, r24	; 0x0f
/**********************Saving New Drowing Varable In CGRAM ON LCD****************/
void SET_CGRAM(uint8 location , uint8 *Array)
{
	LCD_Commands(CGRAM+(location*8));

	for(uint8 i=0 ; i<8 ; i++)
    31f0:	8d 8d       	ldd	r24, Y+29	; 0x1d
    31f2:	8f 5f       	subi	r24, 0xFF	; 255
    31f4:	8d 8f       	std	Y+29, r24	; 0x1d
    31f6:	8d 8d       	ldd	r24, Y+29	; 0x1d
    31f8:	88 30       	cpi	r24, 0x08	; 8
    31fa:	08 f4       	brcc	.+2      	; 0x31fe <SET_CGRAM+0x13e>
    31fc:	7c cf       	rjmp	.-264    	; 0x30f6 <SET_CGRAM+0x36>
    31fe:	80 e0       	ldi	r24, 0x00	; 0
    3200:	90 e0       	ldi	r25, 0x00	; 0
    3202:	a0 ea       	ldi	r26, 0xA0	; 160
    3204:	b1 e4       	ldi	r27, 0x41	; 65
    3206:	8b 87       	std	Y+11, r24	; 0x0b
    3208:	9c 87       	std	Y+12, r25	; 0x0c
    320a:	ad 87       	std	Y+13, r26	; 0x0d
    320c:	be 87       	std	Y+14, r27	; 0x0e
 */
void
_delay_ms(double __ms)
{
	uint16_t __ticks;
	double __tmp = ((F_CPU) / 4e3) * __ms;
    320e:	6b 85       	ldd	r22, Y+11	; 0x0b
    3210:	7c 85       	ldd	r23, Y+12	; 0x0c
    3212:	8d 85       	ldd	r24, Y+13	; 0x0d
    3214:	9e 85       	ldd	r25, Y+14	; 0x0e
    3216:	20 e0       	ldi	r18, 0x00	; 0
    3218:	30 e0       	ldi	r19, 0x00	; 0
    321a:	4a ef       	ldi	r20, 0xFA	; 250
    321c:	54 e4       	ldi	r21, 0x44	; 68
    321e:	0e 94 1f 02 	call	0x43e	; 0x43e <__mulsf3>
    3222:	dc 01       	movw	r26, r24
    3224:	cb 01       	movw	r24, r22
    3226:	8f 83       	std	Y+7, r24	; 0x07
    3228:	98 87       	std	Y+8, r25	; 0x08
    322a:	a9 87       	std	Y+9, r26	; 0x09
    322c:	ba 87       	std	Y+10, r27	; 0x0a
	if (__tmp < 1.0)
    322e:	6f 81       	ldd	r22, Y+7	; 0x07
    3230:	78 85       	ldd	r23, Y+8	; 0x08
    3232:	89 85       	ldd	r24, Y+9	; 0x09
    3234:	9a 85       	ldd	r25, Y+10	; 0x0a
    3236:	20 e0       	ldi	r18, 0x00	; 0
    3238:	30 e0       	ldi	r19, 0x00	; 0
    323a:	40 e8       	ldi	r20, 0x80	; 128
    323c:	5f e3       	ldi	r21, 0x3F	; 63
    323e:	0e 94 79 03 	call	0x6f2	; 0x6f2 <__ltsf2>
    3242:	88 23       	and	r24, r24
    3244:	2c f4       	brge	.+10     	; 0x3250 <SET_CGRAM+0x190>
		__ticks = 1;
    3246:	81 e0       	ldi	r24, 0x01	; 1
    3248:	90 e0       	ldi	r25, 0x00	; 0
    324a:	9e 83       	std	Y+6, r25	; 0x06
    324c:	8d 83       	std	Y+5, r24	; 0x05
    324e:	3f c0       	rjmp	.+126    	; 0x32ce <SET_CGRAM+0x20e>
	else if (__tmp > 65535)
    3250:	6f 81       	ldd	r22, Y+7	; 0x07
    3252:	78 85       	ldd	r23, Y+8	; 0x08
    3254:	89 85       	ldd	r24, Y+9	; 0x09
    3256:	9a 85       	ldd	r25, Y+10	; 0x0a
    3258:	20 e0       	ldi	r18, 0x00	; 0
    325a:	3f ef       	ldi	r19, 0xFF	; 255
    325c:	4f e7       	ldi	r20, 0x7F	; 127
    325e:	57 e4       	ldi	r21, 0x47	; 71
    3260:	0e 94 19 03 	call	0x632	; 0x632 <__gtsf2>
    3264:	18 16       	cp	r1, r24
    3266:	4c f5       	brge	.+82     	; 0x32ba <SET_CGRAM+0x1fa>
	{
		//	__ticks = requested delay in 1/10 ms
		__ticks = (uint16_t) (__ms * 10.0);
    3268:	6b 85       	ldd	r22, Y+11	; 0x0b
    326a:	7c 85       	ldd	r23, Y+12	; 0x0c
    326c:	8d 85       	ldd	r24, Y+13	; 0x0d
    326e:	9e 85       	ldd	r25, Y+14	; 0x0e
    3270:	20 e0       	ldi	r18, 0x00	; 0
    3272:	30 e0       	ldi	r19, 0x00	; 0
    3274:	40 e2       	ldi	r20, 0x20	; 32
    3276:	51 e4       	ldi	r21, 0x41	; 65
    3278:	0e 94 1f 02 	call	0x43e	; 0x43e <__mulsf3>
    327c:	dc 01       	movw	r26, r24
    327e:	cb 01       	movw	r24, r22
    3280:	bc 01       	movw	r22, r24
    3282:	cd 01       	movw	r24, r26
    3284:	0e 94 49 00 	call	0x92	; 0x92 <__fixunssfsi>
    3288:	dc 01       	movw	r26, r24
    328a:	cb 01       	movw	r24, r22
    328c:	9e 83       	std	Y+6, r25	; 0x06
    328e:	8d 83       	std	Y+5, r24	; 0x05
    3290:	0f c0       	rjmp	.+30     	; 0x32b0 <SET_CGRAM+0x1f0>
    3292:	88 ec       	ldi	r24, 0xC8	; 200
    3294:	90 e0       	ldi	r25, 0x00	; 0
    3296:	9c 83       	std	Y+4, r25	; 0x04
    3298:	8b 83       	std	Y+3, r24	; 0x03
    329a:	8b 81       	ldd	r24, Y+3	; 0x03
    329c:	9c 81       	ldd	r25, Y+4	; 0x04
    329e:	01 97       	sbiw	r24, 0x01	; 1
    32a0:	f1 f7       	brne	.-4      	; 0x329e <SET_CGRAM+0x1de>
    32a2:	9c 83       	std	Y+4, r25	; 0x04
    32a4:	8b 83       	std	Y+3, r24	; 0x03
		while(__ticks)
		{
			// wait 1/10 ms
			_delay_loop_2(((F_CPU) / 4e3) / 10);
			__ticks --;
    32a6:	8d 81       	ldd	r24, Y+5	; 0x05
    32a8:	9e 81       	ldd	r25, Y+6	; 0x06
    32aa:	01 97       	sbiw	r24, 0x01	; 1
    32ac:	9e 83       	std	Y+6, r25	; 0x06
    32ae:	8d 83       	std	Y+5, r24	; 0x05
		__ticks = 1;
	else if (__tmp > 65535)
	{
		//	__ticks = requested delay in 1/10 ms
		__ticks = (uint16_t) (__ms * 10.0);
		while(__ticks)
    32b0:	8d 81       	ldd	r24, Y+5	; 0x05
    32b2:	9e 81       	ldd	r25, Y+6	; 0x06
    32b4:	00 97       	sbiw	r24, 0x00	; 0
    32b6:	69 f7       	brne	.-38     	; 0x3292 <SET_CGRAM+0x1d2>
    32b8:	14 c0       	rjmp	.+40     	; 0x32e2 <SET_CGRAM+0x222>
			__ticks --;
		}
		return;
	}
	else
		__ticks = (uint16_t)__tmp;
    32ba:	6f 81       	ldd	r22, Y+7	; 0x07
    32bc:	78 85       	ldd	r23, Y+8	; 0x08
    32be:	89 85       	ldd	r24, Y+9	; 0x09
    32c0:	9a 85       	ldd	r25, Y+10	; 0x0a
    32c2:	0e 94 49 00 	call	0x92	; 0x92 <__fixunssfsi>
    32c6:	dc 01       	movw	r26, r24
    32c8:	cb 01       	movw	r24, r22
    32ca:	9e 83       	std	Y+6, r25	; 0x06
    32cc:	8d 83       	std	Y+5, r24	; 0x05
    32ce:	8d 81       	ldd	r24, Y+5	; 0x05
    32d0:	9e 81       	ldd	r25, Y+6	; 0x06
    32d2:	9a 83       	std	Y+2, r25	; 0x02
    32d4:	89 83       	std	Y+1, r24	; 0x01
    32d6:	89 81       	ldd	r24, Y+1	; 0x01
    32d8:	9a 81       	ldd	r25, Y+2	; 0x02
    32da:	01 97       	sbiw	r24, 0x01	; 1
    32dc:	f1 f7       	brne	.-4      	; 0x32da <SET_CGRAM+0x21a>
    32de:	9a 83       	std	Y+2, r25	; 0x02
    32e0:	89 83       	std	Y+1, r24	; 0x01
		LCD_Write_Caracter(Array[i]);
		_delay_ms(2);
	}
	// LCD_Commands(0x80);
	_delay_ms(20);
}
    32e2:	a0 96       	adiw	r28, 0x20	; 32
    32e4:	0f b6       	in	r0, 0x3f	; 63
    32e6:	f8 94       	cli
    32e8:	de bf       	out	0x3e, r29	; 62
    32ea:	0f be       	out	0x3f, r0	; 63
    32ec:	cd bf       	out	0x3d, r28	; 61
    32ee:	cf 91       	pop	r28
    32f0:	df 91       	pop	r29
    32f2:	08 95       	ret

000032f4 <LCD_Write_Number>:
/************************************************************************************/
/*****************************DISPLY NUMBER ON LCD***********************************/
/************************************************************************************/

void LCD_Write_Number(uint32 Number)
{
    32f4:	0f 93       	push	r16
    32f6:	1f 93       	push	r17
    32f8:	df 93       	push	r29
    32fa:	cf 93       	push	r28
    32fc:	cd b7       	in	r28, 0x3d	; 61
    32fe:	de b7       	in	r29, 0x3e	; 62
    3300:	2f 97       	sbiw	r28, 0x0f	; 15
    3302:	0f b6       	in	r0, 0x3f	; 63
    3304:	f8 94       	cli
    3306:	de bf       	out	0x3e, r29	; 62
    3308:	0f be       	out	0x3f, r0	; 63
    330a:	cd bf       	out	0x3d, r28	; 61
    330c:	6c 87       	std	Y+12, r22	; 0x0c
    330e:	7d 87       	std	Y+13, r23	; 0x0d
    3310:	8e 87       	std	Y+14, r24	; 0x0e
    3312:	9f 87       	std	Y+15, r25	; 0x0f

	sint8 txt[10] = {0};
    3314:	8a e0       	ldi	r24, 0x0A	; 10
    3316:	fe 01       	movw	r30, r28
    3318:	32 96       	adiw	r30, 0x02	; 2
    331a:	df 01       	movw	r26, r30
    331c:	98 2f       	mov	r25, r24
    331e:	1d 92       	st	X+, r1
    3320:	9a 95       	dec	r25
    3322:	e9 f7       	brne	.-6      	; 0x331e <LCD_Write_Number+0x2a>
	sint8 i = 0;
    3324:	19 82       	std	Y+1, r1	; 0x01
	if(Number == 0)
    3326:	8c 85       	ldd	r24, Y+12	; 0x0c
    3328:	9d 85       	ldd	r25, Y+13	; 0x0d
    332a:	ae 85       	ldd	r26, Y+14	; 0x0e
    332c:	bf 85       	ldd	r27, Y+15	; 0x0f
    332e:	00 97       	sbiw	r24, 0x00	; 0
    3330:	a1 05       	cpc	r26, r1
    3332:	b1 05       	cpc	r27, r1
    3334:	21 f4       	brne	.+8      	; 0x333e <LCD_Write_Number+0x4a>
	{
		LCD_Write_Caracter('0');
    3336:	80 e3       	ldi	r24, 0x30	; 48
    3338:	0e 94 6a 16 	call	0x2cd4	; 0x2cd4 <LCD_Write_Caracter>
    333c:	51 c0       	rjmp	.+162    	; 0x33e0 <LCD_Write_Number+0xec>
		return;
	}

	for (i = 0; Number != 0; i++ )
    333e:	19 82       	std	Y+1, r1	; 0x01
    3340:	30 c0       	rjmp	.+96     	; 0x33a2 <LCD_Write_Number+0xae>
	{
		txt[i] = Number%10 + 48;    // 25%10  == 5                (48+5 (Ascie code) =  5
    3342:	89 81       	ldd	r24, Y+1	; 0x01
    3344:	08 2f       	mov	r16, r24
    3346:	11 27       	eor	r17, r17
    3348:	07 fd       	sbrc	r16, 7
    334a:	10 95       	com	r17
    334c:	8c 85       	ldd	r24, Y+12	; 0x0c
    334e:	9d 85       	ldd	r25, Y+13	; 0x0d
    3350:	ae 85       	ldd	r26, Y+14	; 0x0e
    3352:	bf 85       	ldd	r27, Y+15	; 0x0f
    3354:	2a e0       	ldi	r18, 0x0A	; 10
    3356:	30 e0       	ldi	r19, 0x00	; 0
    3358:	40 e0       	ldi	r20, 0x00	; 0
    335a:	50 e0       	ldi	r21, 0x00	; 0
    335c:	bc 01       	movw	r22, r24
    335e:	cd 01       	movw	r24, r26
    3360:	0e 94 e7 22 	call	0x45ce	; 0x45ce <__udivmodsi4>
    3364:	dc 01       	movw	r26, r24
    3366:	cb 01       	movw	r24, r22
    3368:	80 5d       	subi	r24, 0xD0	; 208
    336a:	28 2f       	mov	r18, r24
    336c:	ce 01       	movw	r24, r28
    336e:	02 96       	adiw	r24, 0x02	; 2
    3370:	fc 01       	movw	r30, r24
    3372:	e0 0f       	add	r30, r16
    3374:	f1 1f       	adc	r31, r17
    3376:	20 83       	st	Z, r18
		Number = Number  / 10 ;     // 25/10  == 2.5
    3378:	8c 85       	ldd	r24, Y+12	; 0x0c
    337a:	9d 85       	ldd	r25, Y+13	; 0x0d
    337c:	ae 85       	ldd	r26, Y+14	; 0x0e
    337e:	bf 85       	ldd	r27, Y+15	; 0x0f
    3380:	2a e0       	ldi	r18, 0x0A	; 10
    3382:	30 e0       	ldi	r19, 0x00	; 0
    3384:	40 e0       	ldi	r20, 0x00	; 0
    3386:	50 e0       	ldi	r21, 0x00	; 0
    3388:	bc 01       	movw	r22, r24
    338a:	cd 01       	movw	r24, r26
    338c:	0e 94 e7 22 	call	0x45ce	; 0x45ce <__udivmodsi4>
    3390:	da 01       	movw	r26, r20
    3392:	c9 01       	movw	r24, r18
    3394:	8c 87       	std	Y+12, r24	; 0x0c
    3396:	9d 87       	std	Y+13, r25	; 0x0d
    3398:	ae 87       	std	Y+14, r26	; 0x0e
    339a:	bf 87       	std	Y+15, r27	; 0x0f
	{
		LCD_Write_Caracter('0');
		return;
	}

	for (i = 0; Number != 0; i++ )
    339c:	89 81       	ldd	r24, Y+1	; 0x01
    339e:	8f 5f       	subi	r24, 0xFF	; 255
    33a0:	89 83       	std	Y+1, r24	; 0x01
    33a2:	8c 85       	ldd	r24, Y+12	; 0x0c
    33a4:	9d 85       	ldd	r25, Y+13	; 0x0d
    33a6:	ae 85       	ldd	r26, Y+14	; 0x0e
    33a8:	bf 85       	ldd	r27, Y+15	; 0x0f
    33aa:	00 97       	sbiw	r24, 0x00	; 0
    33ac:	a1 05       	cpc	r26, r1
    33ae:	b1 05       	cpc	r27, r1
    33b0:	41 f6       	brne	.-112    	; 0x3342 <LCD_Write_Number+0x4e>
	{
		txt[i] = Number%10 + 48;    // 25%10  == 5                (48+5 (Ascie code) =  5
		Number = Number  / 10 ;     // 25/10  == 2.5
	}

	i--;
    33b2:	89 81       	ldd	r24, Y+1	; 0x01
    33b4:	81 50       	subi	r24, 0x01	; 1
    33b6:	89 83       	std	Y+1, r24	; 0x01
    33b8:	10 c0       	rjmp	.+32     	; 0x33da <LCD_Write_Number+0xe6>
	while(i >= 0)
	{
		LCD_Write_Caracter(txt[i]);  //25
    33ba:	89 81       	ldd	r24, Y+1	; 0x01
    33bc:	28 2f       	mov	r18, r24
    33be:	33 27       	eor	r19, r19
    33c0:	27 fd       	sbrc	r18, 7
    33c2:	30 95       	com	r19
    33c4:	ce 01       	movw	r24, r28
    33c6:	02 96       	adiw	r24, 0x02	; 2
    33c8:	fc 01       	movw	r30, r24
    33ca:	e2 0f       	add	r30, r18
    33cc:	f3 1f       	adc	r31, r19
    33ce:	80 81       	ld	r24, Z
    33d0:	0e 94 6a 16 	call	0x2cd4	; 0x2cd4 <LCD_Write_Caracter>
		i--;
    33d4:	89 81       	ldd	r24, Y+1	; 0x01
    33d6:	81 50       	subi	r24, 0x01	; 1
    33d8:	89 83       	std	Y+1, r24	; 0x01
		txt[i] = Number%10 + 48;    // 25%10  == 5                (48+5 (Ascie code) =  5
		Number = Number  / 10 ;     // 25/10  == 2.5
	}

	i--;
	while(i >= 0)
    33da:	89 81       	ldd	r24, Y+1	; 0x01
    33dc:	88 23       	and	r24, r24
    33de:	6c f7       	brge	.-38     	; 0x33ba <LCD_Write_Number+0xc6>
	{
		LCD_Write_Caracter(txt[i]);  //25
		i--;
	}
	//return txt ;
}
    33e0:	2f 96       	adiw	r28, 0x0f	; 15
    33e2:	0f b6       	in	r0, 0x3f	; 63
    33e4:	f8 94       	cli
    33e6:	de bf       	out	0x3e, r29	; 62
    33e8:	0f be       	out	0x3f, r0	; 63
    33ea:	cd bf       	out	0x3d, r28	; 61
    33ec:	cf 91       	pop	r28
    33ee:	df 91       	pop	r29
    33f0:	1f 91       	pop	r17
    33f2:	0f 91       	pop	r16
    33f4:	08 95       	ret

000033f6 <CLCD_voidWriteNumber>:




uint8 CLCD_voidWriteNumber(uint32 Copy_u8Number)
{
    33f6:	df 93       	push	r29
    33f8:	cf 93       	push	r28
    33fa:	cd b7       	in	r28, 0x3d	; 61
    33fc:	de b7       	in	r29, 0x3e	; 62
    33fe:	61 97       	sbiw	r28, 0x11	; 17
    3400:	0f b6       	in	r0, 0x3f	; 63
    3402:	f8 94       	cli
    3404:	de bf       	out	0x3e, r29	; 62
    3406:	0f be       	out	0x3f, r0	; 63
    3408:	cd bf       	out	0x3d, r28	; 61
    340a:	6e 87       	std	Y+14, r22	; 0x0e
    340c:	7f 87       	std	Y+15, r23	; 0x0f
    340e:	88 8b       	std	Y+16, r24	; 0x10
    3410:	99 8b       	std	Y+17, r25	; 0x11

	uint8 Local_u8SplitNum;
		uint8 Local_u8Counter=0;
    3412:	1a 82       	std	Y+2, r1	; 0x02
		uint8 Local_u8Array[10];
		uint8 returnnuber =  Copy_u8Number ;
    3414:	8e 85       	ldd	r24, Y+14	; 0x0e
    3416:	89 83       	std	Y+1, r24	; 0x01
		if(Copy_u8Number == 0)
    3418:	8e 85       	ldd	r24, Y+14	; 0x0e
    341a:	9f 85       	ldd	r25, Y+15	; 0x0f
    341c:	a8 89       	ldd	r26, Y+16	; 0x10
    341e:	b9 89       	ldd	r27, Y+17	; 0x11
    3420:	00 97       	sbiw	r24, 0x00	; 0
    3422:	a1 05       	cpc	r26, r1
    3424:	b1 05       	cpc	r27, r1
    3426:	99 f5       	brne	.+102    	; 0x348e <CLCD_voidWriteNumber+0x98>
		{
			LCD_Write_Caracter(Copy_u8Number+0x30);
    3428:	8e 85       	ldd	r24, Y+14	; 0x0e
    342a:	80 5d       	subi	r24, 0xD0	; 208
    342c:	0e 94 6a 16 	call	0x2cd4	; 0x2cd4 <LCD_Write_Caracter>
    3430:	4c c0       	rjmp	.+152    	; 0x34ca <CLCD_voidWriteNumber+0xd4>
		}
		else
		{
			while(Copy_u8Number >0)
			{
				Local_u8SplitNum = (Copy_u8Number % 10);
    3432:	8e 85       	ldd	r24, Y+14	; 0x0e
    3434:	9f 85       	ldd	r25, Y+15	; 0x0f
    3436:	a8 89       	ldd	r26, Y+16	; 0x10
    3438:	b9 89       	ldd	r27, Y+17	; 0x11
    343a:	2a e0       	ldi	r18, 0x0A	; 10
    343c:	30 e0       	ldi	r19, 0x00	; 0
    343e:	40 e0       	ldi	r20, 0x00	; 0
    3440:	50 e0       	ldi	r21, 0x00	; 0
    3442:	bc 01       	movw	r22, r24
    3444:	cd 01       	movw	r24, r26
    3446:	0e 94 e7 22 	call	0x45ce	; 0x45ce <__udivmodsi4>
    344a:	dc 01       	movw	r26, r24
    344c:	cb 01       	movw	r24, r22
    344e:	8b 83       	std	Y+3, r24	; 0x03
				Local_u8Array[Local_u8Counter]=Local_u8SplitNum;
    3450:	8a 81       	ldd	r24, Y+2	; 0x02
    3452:	28 2f       	mov	r18, r24
    3454:	30 e0       	ldi	r19, 0x00	; 0
    3456:	ce 01       	movw	r24, r28
    3458:	04 96       	adiw	r24, 0x04	; 4
    345a:	fc 01       	movw	r30, r24
    345c:	e2 0f       	add	r30, r18
    345e:	f3 1f       	adc	r31, r19
    3460:	8b 81       	ldd	r24, Y+3	; 0x03
    3462:	80 83       	st	Z, r24
				Copy_u8Number = Copy_u8Number/10;
    3464:	8e 85       	ldd	r24, Y+14	; 0x0e
    3466:	9f 85       	ldd	r25, Y+15	; 0x0f
    3468:	a8 89       	ldd	r26, Y+16	; 0x10
    346a:	b9 89       	ldd	r27, Y+17	; 0x11
    346c:	2a e0       	ldi	r18, 0x0A	; 10
    346e:	30 e0       	ldi	r19, 0x00	; 0
    3470:	40 e0       	ldi	r20, 0x00	; 0
    3472:	50 e0       	ldi	r21, 0x00	; 0
    3474:	bc 01       	movw	r22, r24
    3476:	cd 01       	movw	r24, r26
    3478:	0e 94 e7 22 	call	0x45ce	; 0x45ce <__udivmodsi4>
    347c:	da 01       	movw	r26, r20
    347e:	c9 01       	movw	r24, r18
    3480:	8e 87       	std	Y+14, r24	; 0x0e
    3482:	9f 87       	std	Y+15, r25	; 0x0f
    3484:	a8 8b       	std	Y+16, r26	; 0x10
    3486:	b9 8b       	std	Y+17, r27	; 0x11
				Local_u8Counter++;
    3488:	8a 81       	ldd	r24, Y+2	; 0x02
    348a:	8f 5f       	subi	r24, 0xFF	; 255
    348c:	8a 83       	std	Y+2, r24	; 0x02
		{
			LCD_Write_Caracter(Copy_u8Number+0x30);
		}
		else
		{
			while(Copy_u8Number >0)
    348e:	8e 85       	ldd	r24, Y+14	; 0x0e
    3490:	9f 85       	ldd	r25, Y+15	; 0x0f
    3492:	a8 89       	ldd	r26, Y+16	; 0x10
    3494:	b9 89       	ldd	r27, Y+17	; 0x11
    3496:	00 97       	sbiw	r24, 0x00	; 0
    3498:	a1 05       	cpc	r26, r1
    349a:	b1 05       	cpc	r27, r1
    349c:	51 f6       	brne	.-108    	; 0x3432 <CLCD_voidWriteNumber+0x3c>
				Local_u8SplitNum = (Copy_u8Number % 10);
				Local_u8Array[Local_u8Counter]=Local_u8SplitNum;
				Copy_u8Number = Copy_u8Number/10;
				Local_u8Counter++;
			}
			for(Local_u8Counter=Local_u8Counter-1 ; Local_u8Counter>=0 ; Local_u8Counter--)
    349e:	8a 81       	ldd	r24, Y+2	; 0x02
    34a0:	81 50       	subi	r24, 0x01	; 1
    34a2:	8a 83       	std	Y+2, r24	; 0x02
			{
				LCD_Write_Caracter(Local_u8Array[Local_u8Counter]+0x30);
    34a4:	8a 81       	ldd	r24, Y+2	; 0x02
    34a6:	28 2f       	mov	r18, r24
    34a8:	30 e0       	ldi	r19, 0x00	; 0
    34aa:	ce 01       	movw	r24, r28
    34ac:	04 96       	adiw	r24, 0x04	; 4
    34ae:	fc 01       	movw	r30, r24
    34b0:	e2 0f       	add	r30, r18
    34b2:	f3 1f       	adc	r31, r19
    34b4:	80 81       	ld	r24, Z
    34b6:	80 5d       	subi	r24, 0xD0	; 208
    34b8:	0e 94 6a 16 	call	0x2cd4	; 0x2cd4 <LCD_Write_Caracter>
				if(Local_u8Counter == 0)
    34bc:	8a 81       	ldd	r24, Y+2	; 0x02
    34be:	88 23       	and	r24, r24
    34c0:	21 f0       	breq	.+8      	; 0x34ca <CLCD_voidWriteNumber+0xd4>
				Local_u8SplitNum = (Copy_u8Number % 10);
				Local_u8Array[Local_u8Counter]=Local_u8SplitNum;
				Copy_u8Number = Copy_u8Number/10;
				Local_u8Counter++;
			}
			for(Local_u8Counter=Local_u8Counter-1 ; Local_u8Counter>=0 ; Local_u8Counter--)
    34c2:	8a 81       	ldd	r24, Y+2	; 0x02
    34c4:	81 50       	subi	r24, 0x01	; 1
    34c6:	8a 83       	std	Y+2, r24	; 0x02
    34c8:	ed cf       	rjmp	.-38     	; 0x34a4 <CLCD_voidWriteNumber+0xae>
					break;
				}
			}

		}
		return returnnuber ;
    34ca:	89 81       	ldd	r24, Y+1	; 0x01
}
    34cc:	61 96       	adiw	r28, 0x11	; 17
    34ce:	0f b6       	in	r0, 0x3f	; 63
    34d0:	f8 94       	cli
    34d2:	de bf       	out	0x3e, r29	; 62
    34d4:	0f be       	out	0x3f, r0	; 63
    34d6:	cd bf       	out	0x3d, r28	; 61
    34d8:	cf 91       	pop	r28
    34da:	df 91       	pop	r29
    34dc:	08 95       	ret

000034de <KPD_u8adjust4x4KPD>:
#include "util/delay.h"

static uint8 KPD_u8adjust4x4KPD(uint8 KPD_u8CopyRowColNum);

static uint8 KPD_u8adjust4x4KPD(uint8 KPD_u8CopyRowColNum)
{
    34de:	df 93       	push	r29
    34e0:	cf 93       	push	r28
    34e2:	00 d0       	rcall	.+0      	; 0x34e4 <KPD_u8adjust4x4KPD+0x6>
    34e4:	00 d0       	rcall	.+0      	; 0x34e6 <KPD_u8adjust4x4KPD+0x8>
    34e6:	cd b7       	in	r28, 0x3d	; 61
    34e8:	de b7       	in	r29, 0x3e	; 62
    34ea:	89 83       	std	Y+1, r24	; 0x01
	switch (KPD_u8CopyRowColNum)
    34ec:	89 81       	ldd	r24, Y+1	; 0x01
    34ee:	28 2f       	mov	r18, r24
    34f0:	30 e0       	ldi	r19, 0x00	; 0
    34f2:	3c 83       	std	Y+4, r19	; 0x04
    34f4:	2b 83       	std	Y+3, r18	; 0x03
    34f6:	8b 81       	ldd	r24, Y+3	; 0x03
    34f8:	9c 81       	ldd	r25, Y+4	; 0x04
    34fa:	88 30       	cpi	r24, 0x08	; 8
    34fc:	91 05       	cpc	r25, r1
    34fe:	09 f4       	brne	.+2      	; 0x3502 <KPD_u8adjust4x4KPD+0x24>
    3500:	70 c0       	rjmp	.+224    	; 0x35e2 <KPD_u8adjust4x4KPD+0x104>
    3502:	2b 81       	ldd	r18, Y+3	; 0x03
    3504:	3c 81       	ldd	r19, Y+4	; 0x04
    3506:	29 30       	cpi	r18, 0x09	; 9
    3508:	31 05       	cpc	r19, r1
    350a:	5c f5       	brge	.+86     	; 0x3562 <KPD_u8adjust4x4KPD+0x84>
    350c:	8b 81       	ldd	r24, Y+3	; 0x03
    350e:	9c 81       	ldd	r25, Y+4	; 0x04
    3510:	84 30       	cpi	r24, 0x04	; 4
    3512:	91 05       	cpc	r25, r1
    3514:	09 f4       	brne	.+2      	; 0x3518 <KPD_u8adjust4x4KPD+0x3a>
    3516:	59 c0       	rjmp	.+178    	; 0x35ca <KPD_u8adjust4x4KPD+0xec>
    3518:	2b 81       	ldd	r18, Y+3	; 0x03
    351a:	3c 81       	ldd	r19, Y+4	; 0x04
    351c:	25 30       	cpi	r18, 0x05	; 5
    351e:	31 05       	cpc	r19, r1
    3520:	9c f4       	brge	.+38     	; 0x3548 <KPD_u8adjust4x4KPD+0x6a>
    3522:	8b 81       	ldd	r24, Y+3	; 0x03
    3524:	9c 81       	ldd	r25, Y+4	; 0x04
    3526:	82 30       	cpi	r24, 0x02	; 2
    3528:	91 05       	cpc	r25, r1
    352a:	09 f4       	brne	.+2      	; 0x352e <KPD_u8adjust4x4KPD+0x50>
    352c:	48 c0       	rjmp	.+144    	; 0x35be <KPD_u8adjust4x4KPD+0xe0>
    352e:	2b 81       	ldd	r18, Y+3	; 0x03
    3530:	3c 81       	ldd	r19, Y+4	; 0x04
    3532:	23 30       	cpi	r18, 0x03	; 3
    3534:	31 05       	cpc	r19, r1
    3536:	0c f0       	brlt	.+2      	; 0x353a <KPD_u8adjust4x4KPD+0x5c>
    3538:	45 c0       	rjmp	.+138    	; 0x35c4 <KPD_u8adjust4x4KPD+0xe6>
    353a:	8b 81       	ldd	r24, Y+3	; 0x03
    353c:	9c 81       	ldd	r25, Y+4	; 0x04
    353e:	81 30       	cpi	r24, 0x01	; 1
    3540:	91 05       	cpc	r25, r1
    3542:	09 f4       	brne	.+2      	; 0x3546 <KPD_u8adjust4x4KPD+0x68>
    3544:	39 c0       	rjmp	.+114    	; 0x35b8 <KPD_u8adjust4x4KPD+0xda>
    3546:	67 c0       	rjmp	.+206    	; 0x3616 <KPD_u8adjust4x4KPD+0x138>
    3548:	2b 81       	ldd	r18, Y+3	; 0x03
    354a:	3c 81       	ldd	r19, Y+4	; 0x04
    354c:	26 30       	cpi	r18, 0x06	; 6
    354e:	31 05       	cpc	r19, r1
    3550:	09 f4       	brne	.+2      	; 0x3554 <KPD_u8adjust4x4KPD+0x76>
    3552:	41 c0       	rjmp	.+130    	; 0x35d6 <KPD_u8adjust4x4KPD+0xf8>
    3554:	8b 81       	ldd	r24, Y+3	; 0x03
    3556:	9c 81       	ldd	r25, Y+4	; 0x04
    3558:	87 30       	cpi	r24, 0x07	; 7
    355a:	91 05       	cpc	r25, r1
    355c:	0c f0       	brlt	.+2      	; 0x3560 <KPD_u8adjust4x4KPD+0x82>
    355e:	3e c0       	rjmp	.+124    	; 0x35dc <KPD_u8adjust4x4KPD+0xfe>
    3560:	37 c0       	rjmp	.+110    	; 0x35d0 <KPD_u8adjust4x4KPD+0xf2>
    3562:	2b 81       	ldd	r18, Y+3	; 0x03
    3564:	3c 81       	ldd	r19, Y+4	; 0x04
    3566:	2c 30       	cpi	r18, 0x0C	; 12
    3568:	31 05       	cpc	r19, r1
    356a:	09 f4       	brne	.+2      	; 0x356e <KPD_u8adjust4x4KPD+0x90>
    356c:	46 c0       	rjmp	.+140    	; 0x35fa <KPD_u8adjust4x4KPD+0x11c>
    356e:	8b 81       	ldd	r24, Y+3	; 0x03
    3570:	9c 81       	ldd	r25, Y+4	; 0x04
    3572:	8d 30       	cpi	r24, 0x0D	; 13
    3574:	91 05       	cpc	r25, r1
    3576:	5c f4       	brge	.+22     	; 0x358e <KPD_u8adjust4x4KPD+0xb0>
    3578:	2b 81       	ldd	r18, Y+3	; 0x03
    357a:	3c 81       	ldd	r19, Y+4	; 0x04
    357c:	2a 30       	cpi	r18, 0x0A	; 10
    357e:	31 05       	cpc	r19, r1
    3580:	b1 f1       	breq	.+108    	; 0x35ee <KPD_u8adjust4x4KPD+0x110>
    3582:	8b 81       	ldd	r24, Y+3	; 0x03
    3584:	9c 81       	ldd	r25, Y+4	; 0x04
    3586:	8b 30       	cpi	r24, 0x0B	; 11
    3588:	91 05       	cpc	r25, r1
    358a:	a4 f5       	brge	.+104    	; 0x35f4 <KPD_u8adjust4x4KPD+0x116>
    358c:	2d c0       	rjmp	.+90     	; 0x35e8 <KPD_u8adjust4x4KPD+0x10a>
    358e:	2b 81       	ldd	r18, Y+3	; 0x03
    3590:	3c 81       	ldd	r19, Y+4	; 0x04
    3592:	2e 30       	cpi	r18, 0x0E	; 14
    3594:	31 05       	cpc	r19, r1
    3596:	b9 f1       	breq	.+110    	; 0x3606 <KPD_u8adjust4x4KPD+0x128>
    3598:	8b 81       	ldd	r24, Y+3	; 0x03
    359a:	9c 81       	ldd	r25, Y+4	; 0x04
    359c:	8e 30       	cpi	r24, 0x0E	; 14
    359e:	91 05       	cpc	r25, r1
    35a0:	7c f1       	brlt	.+94     	; 0x3600 <KPD_u8adjust4x4KPD+0x122>
    35a2:	2b 81       	ldd	r18, Y+3	; 0x03
    35a4:	3c 81       	ldd	r19, Y+4	; 0x04
    35a6:	2f 30       	cpi	r18, 0x0F	; 15
    35a8:	31 05       	cpc	r19, r1
    35aa:	79 f1       	breq	.+94     	; 0x360a <KPD_u8adjust4x4KPD+0x12c>
    35ac:	8b 81       	ldd	r24, Y+3	; 0x03
    35ae:	9c 81       	ldd	r25, Y+4	; 0x04
    35b0:	80 31       	cpi	r24, 0x10	; 16
    35b2:	91 05       	cpc	r25, r1
    35b4:	69 f1       	breq	.+90     	; 0x3610 <KPD_u8adjust4x4KPD+0x132>
    35b6:	2f c0       	rjmp	.+94     	; 0x3616 <KPD_u8adjust4x4KPD+0x138>
	{
		case 1	: return 7	  ; break;
    35b8:	97 e0       	ldi	r25, 0x07	; 7
    35ba:	9a 83       	std	Y+2, r25	; 0x02
    35bc:	2e c0       	rjmp	.+92     	; 0x361a <KPD_u8adjust4x4KPD+0x13c>
		case 2	: return 8	  ; break;
    35be:	28 e0       	ldi	r18, 0x08	; 8
    35c0:	2a 83       	std	Y+2, r18	; 0x02
    35c2:	2b c0       	rjmp	.+86     	; 0x361a <KPD_u8adjust4x4KPD+0x13c>
		case 3	: return 9	  ; break;
    35c4:	39 e0       	ldi	r19, 0x09	; 9
    35c6:	3a 83       	std	Y+2, r19	; 0x02
    35c8:	28 c0       	rjmp	.+80     	; 0x361a <KPD_u8adjust4x4KPD+0x13c>
		case 4	: return '/'  ; break; //0x2F
    35ca:	8f e2       	ldi	r24, 0x2F	; 47
    35cc:	8a 83       	std	Y+2, r24	; 0x02
    35ce:	25 c0       	rjmp	.+74     	; 0x361a <KPD_u8adjust4x4KPD+0x13c>
		case 5	: return 4	  ; break;
    35d0:	94 e0       	ldi	r25, 0x04	; 4
    35d2:	9a 83       	std	Y+2, r25	; 0x02
    35d4:	22 c0       	rjmp	.+68     	; 0x361a <KPD_u8adjust4x4KPD+0x13c>
		case 6	: return 5	  ; break;
    35d6:	25 e0       	ldi	r18, 0x05	; 5
    35d8:	2a 83       	std	Y+2, r18	; 0x02
    35da:	1f c0       	rjmp	.+62     	; 0x361a <KPD_u8adjust4x4KPD+0x13c>
		case 7	: return 6	  ; break;
    35dc:	36 e0       	ldi	r19, 0x06	; 6
    35de:	3a 83       	std	Y+2, r19	; 0x02
    35e0:	1c c0       	rjmp	.+56     	; 0x361a <KPD_u8adjust4x4KPD+0x13c>
		case 8	: return 42  ; break; //0x2A
    35e2:	8a e2       	ldi	r24, 0x2A	; 42
    35e4:	8a 83       	std	Y+2, r24	; 0x02
    35e6:	19 c0       	rjmp	.+50     	; 0x361a <KPD_u8adjust4x4KPD+0x13c>
		case 9	: return 1	  ; break;
    35e8:	91 e0       	ldi	r25, 0x01	; 1
    35ea:	9a 83       	std	Y+2, r25	; 0x02
    35ec:	16 c0       	rjmp	.+44     	; 0x361a <KPD_u8adjust4x4KPD+0x13c>
		case 10 : return 2	  ; break;
    35ee:	22 e0       	ldi	r18, 0x02	; 2
    35f0:	2a 83       	std	Y+2, r18	; 0x02
    35f2:	13 c0       	rjmp	.+38     	; 0x361a <KPD_u8adjust4x4KPD+0x13c>
		case 11 : return 3	  ; break;
    35f4:	33 e0       	ldi	r19, 0x03	; 3
    35f6:	3a 83       	std	Y+2, r19	; 0x02
    35f8:	10 c0       	rjmp	.+32     	; 0x361a <KPD_u8adjust4x4KPD+0x13c>
		case 12 : return '-'  ; break;//0x2D
    35fa:	8d e2       	ldi	r24, 0x2D	; 45
    35fc:	8a 83       	std	Y+2, r24	; 0x02
    35fe:	0d c0       	rjmp	.+26     	; 0x361a <KPD_u8adjust4x4KPD+0x13c>
		case 13 : return 'C'  ; break;
    3600:	93 e4       	ldi	r25, 0x43	; 67
    3602:	9a 83       	std	Y+2, r25	; 0x02
    3604:	0a c0       	rjmp	.+20     	; 0x361a <KPD_u8adjust4x4KPD+0x13c>
		case 14 : return 0    ; break;
    3606:	1a 82       	std	Y+2, r1	; 0x02
    3608:	08 c0       	rjmp	.+16     	; 0x361a <KPD_u8adjust4x4KPD+0x13c>
		case 15 : return '='  ; break; //0x3D
    360a:	2d e3       	ldi	r18, 0x3D	; 61
    360c:	2a 83       	std	Y+2, r18	; 0x02
    360e:	05 c0       	rjmp	.+10     	; 0x361a <KPD_u8adjust4x4KPD+0x13c>
		case 16 : return '+'  ; break; //0x2B
    3610:	3b e2       	ldi	r19, 0x2B	; 43
    3612:	3a 83       	std	Y+2, r19	; 0x02
    3614:	02 c0       	rjmp	.+4      	; 0x361a <KPD_u8adjust4x4KPD+0x13c>
		default : return '%';
    3616:	85 e2       	ldi	r24, 0x25	; 37
    3618:	8a 83       	std	Y+2, r24	; 0x02
    361a:	8a 81       	ldd	r24, Y+2	; 0x02
	}
}
    361c:	0f 90       	pop	r0
    361e:	0f 90       	pop	r0
    3620:	0f 90       	pop	r0
    3622:	0f 90       	pop	r0
    3624:	cf 91       	pop	r28
    3626:	df 91       	pop	r29
    3628:	08 95       	ret

0000362a <KEYBAD_ReturnData>:

uint8 KEYBAD_ReturnData(void)
{
    362a:	df 93       	push	r29
    362c:	cf 93       	push	r28
    362e:	cd b7       	in	r28, 0x3d	; 61
    3630:	de b7       	in	r29, 0x3e	; 62
    3632:	60 97       	sbiw	r28, 0x10	; 16
    3634:	0f b6       	in	r0, 0x3f	; 63
    3636:	f8 94       	cli
    3638:	de bf       	out	0x3e, r29	; 62
    363a:	0f be       	out	0x3f, r0	; 63
    363c:	cd bf       	out	0x3d, r28	; 61

	uint8 row , colume ;
	while(1)
	{

		for(colume = 0 ; colume<4 ; colume++)
    363e:	1f 86       	std	Y+15, r1	; 0x0f
    3640:	ba c0       	rjmp	.+372    	; 0x37b6 <KEYBAD_ReturnData+0x18c>
		{
			DIO_VoidSetSpecialPortDir(PORT_USE1,(0b00010000<<colume)) ;
    3642:	8f 85       	ldd	r24, Y+15	; 0x0f
    3644:	28 2f       	mov	r18, r24
    3646:	30 e0       	ldi	r19, 0x00	; 0
    3648:	80 e1       	ldi	r24, 0x10	; 16
    364a:	90 e0       	ldi	r25, 0x00	; 0
    364c:	02 c0       	rjmp	.+4      	; 0x3652 <KEYBAD_ReturnData+0x28>
    364e:	88 0f       	add	r24, r24
    3650:	99 1f       	adc	r25, r25
    3652:	2a 95       	dec	r18
    3654:	e2 f7       	brpl	.-8      	; 0x364e <KEYBAD_ReturnData+0x24>
    3656:	98 2f       	mov	r25, r24
    3658:	81 e0       	ldi	r24, 0x01	; 1
    365a:	69 2f       	mov	r22, r25
    365c:	0e 94 b8 0d 	call	0x1b70	; 0x1b70 <DIO_VoidSetSpecialPortDir>
			DIO_VoidSetSpecialPortValue(PORT_USE1,(~(0b00010000<<colume))) ;
    3660:	8f 85       	ldd	r24, Y+15	; 0x0f
    3662:	28 2f       	mov	r18, r24
    3664:	30 e0       	ldi	r19, 0x00	; 0
    3666:	80 e1       	ldi	r24, 0x10	; 16
    3668:	90 e0       	ldi	r25, 0x00	; 0
    366a:	02 c0       	rjmp	.+4      	; 0x3670 <KEYBAD_ReturnData+0x46>
    366c:	88 0f       	add	r24, r24
    366e:	99 1f       	adc	r25, r25
    3670:	2a 95       	dec	r18
    3672:	e2 f7       	brpl	.-8      	; 0x366c <KEYBAD_ReturnData+0x42>
    3674:	98 2f       	mov	r25, r24
    3676:	90 95       	com	r25
    3678:	81 e0       	ldi	r24, 0x01	; 1
    367a:	69 2f       	mov	r22, r25
    367c:	0e 94 f9 0d 	call	0x1bf2	; 0x1bf2 <DIO_VoidSetSpecialPortValue>

			for(row = 0 ; row<4 ; row++)
    3680:	18 8a       	std	Y+16, r1	; 0x10
    3682:	92 c0       	rjmp	.+292    	; 0x37a8 <KEYBAD_ReturnData+0x17e>
			{
				if(DIO_ReadPinValue(PORT_USE1,row) == 0)
    3684:	81 e0       	ldi	r24, 0x01	; 1
    3686:	68 89       	ldd	r22, Y+16	; 0x10
    3688:	0e 94 2b 0b 	call	0x1656	; 0x1656 <DIO_ReadPinValue>
    368c:	88 23       	and	r24, r24
    368e:	09 f0       	breq	.+2      	; 0x3692 <KEYBAD_ReturnData+0x68>
    3690:	88 c0       	rjmp	.+272    	; 0x37a2 <KEYBAD_ReturnData+0x178>
    3692:	80 e0       	ldi	r24, 0x00	; 0
    3694:	90 e0       	ldi	r25, 0x00	; 0
    3696:	a0 ef       	ldi	r26, 0xF0	; 240
    3698:	b1 e4       	ldi	r27, 0x41	; 65
    369a:	8b 87       	std	Y+11, r24	; 0x0b
    369c:	9c 87       	std	Y+12, r25	; 0x0c
    369e:	ad 87       	std	Y+13, r26	; 0x0d
    36a0:	be 87       	std	Y+14, r27	; 0x0e
 */
void
_delay_ms(double __ms)
{
	uint16_t __ticks;
	double __tmp = ((F_CPU) / 4e3) * __ms;
    36a2:	6b 85       	ldd	r22, Y+11	; 0x0b
    36a4:	7c 85       	ldd	r23, Y+12	; 0x0c
    36a6:	8d 85       	ldd	r24, Y+13	; 0x0d
    36a8:	9e 85       	ldd	r25, Y+14	; 0x0e
    36aa:	20 e0       	ldi	r18, 0x00	; 0
    36ac:	30 e0       	ldi	r19, 0x00	; 0
    36ae:	4a ef       	ldi	r20, 0xFA	; 250
    36b0:	54 e4       	ldi	r21, 0x44	; 68
    36b2:	0e 94 1f 02 	call	0x43e	; 0x43e <__mulsf3>
    36b6:	dc 01       	movw	r26, r24
    36b8:	cb 01       	movw	r24, r22
    36ba:	8f 83       	std	Y+7, r24	; 0x07
    36bc:	98 87       	std	Y+8, r25	; 0x08
    36be:	a9 87       	std	Y+9, r26	; 0x09
    36c0:	ba 87       	std	Y+10, r27	; 0x0a
	if (__tmp < 1.0)
    36c2:	6f 81       	ldd	r22, Y+7	; 0x07
    36c4:	78 85       	ldd	r23, Y+8	; 0x08
    36c6:	89 85       	ldd	r24, Y+9	; 0x09
    36c8:	9a 85       	ldd	r25, Y+10	; 0x0a
    36ca:	20 e0       	ldi	r18, 0x00	; 0
    36cc:	30 e0       	ldi	r19, 0x00	; 0
    36ce:	40 e8       	ldi	r20, 0x80	; 128
    36d0:	5f e3       	ldi	r21, 0x3F	; 63
    36d2:	0e 94 79 03 	call	0x6f2	; 0x6f2 <__ltsf2>
    36d6:	88 23       	and	r24, r24
    36d8:	2c f4       	brge	.+10     	; 0x36e4 <KEYBAD_ReturnData+0xba>
		__ticks = 1;
    36da:	81 e0       	ldi	r24, 0x01	; 1
    36dc:	90 e0       	ldi	r25, 0x00	; 0
    36de:	9e 83       	std	Y+6, r25	; 0x06
    36e0:	8d 83       	std	Y+5, r24	; 0x05
    36e2:	3f c0       	rjmp	.+126    	; 0x3762 <KEYBAD_ReturnData+0x138>
	else if (__tmp > 65535)
    36e4:	6f 81       	ldd	r22, Y+7	; 0x07
    36e6:	78 85       	ldd	r23, Y+8	; 0x08
    36e8:	89 85       	ldd	r24, Y+9	; 0x09
    36ea:	9a 85       	ldd	r25, Y+10	; 0x0a
    36ec:	20 e0       	ldi	r18, 0x00	; 0
    36ee:	3f ef       	ldi	r19, 0xFF	; 255
    36f0:	4f e7       	ldi	r20, 0x7F	; 127
    36f2:	57 e4       	ldi	r21, 0x47	; 71
    36f4:	0e 94 19 03 	call	0x632	; 0x632 <__gtsf2>
    36f8:	18 16       	cp	r1, r24
    36fa:	4c f5       	brge	.+82     	; 0x374e <KEYBAD_ReturnData+0x124>
	{
		//	__ticks = requested delay in 1/10 ms
		__ticks = (uint16_t) (__ms * 10.0);
    36fc:	6b 85       	ldd	r22, Y+11	; 0x0b
    36fe:	7c 85       	ldd	r23, Y+12	; 0x0c
    3700:	8d 85       	ldd	r24, Y+13	; 0x0d
    3702:	9e 85       	ldd	r25, Y+14	; 0x0e
    3704:	20 e0       	ldi	r18, 0x00	; 0
    3706:	30 e0       	ldi	r19, 0x00	; 0
    3708:	40 e2       	ldi	r20, 0x20	; 32
    370a:	51 e4       	ldi	r21, 0x41	; 65
    370c:	0e 94 1f 02 	call	0x43e	; 0x43e <__mulsf3>
    3710:	dc 01       	movw	r26, r24
    3712:	cb 01       	movw	r24, r22
    3714:	bc 01       	movw	r22, r24
    3716:	cd 01       	movw	r24, r26
    3718:	0e 94 49 00 	call	0x92	; 0x92 <__fixunssfsi>
    371c:	dc 01       	movw	r26, r24
    371e:	cb 01       	movw	r24, r22
    3720:	9e 83       	std	Y+6, r25	; 0x06
    3722:	8d 83       	std	Y+5, r24	; 0x05
    3724:	0f c0       	rjmp	.+30     	; 0x3744 <KEYBAD_ReturnData+0x11a>
    3726:	88 ec       	ldi	r24, 0xC8	; 200
    3728:	90 e0       	ldi	r25, 0x00	; 0
    372a:	9c 83       	std	Y+4, r25	; 0x04
    372c:	8b 83       	std	Y+3, r24	; 0x03
    372e:	8b 81       	ldd	r24, Y+3	; 0x03
    3730:	9c 81       	ldd	r25, Y+4	; 0x04
    3732:	01 97       	sbiw	r24, 0x01	; 1
    3734:	f1 f7       	brne	.-4      	; 0x3732 <KEYBAD_ReturnData+0x108>
    3736:	9c 83       	std	Y+4, r25	; 0x04
    3738:	8b 83       	std	Y+3, r24	; 0x03
		while(__ticks)
		{
			// wait 1/10 ms
			_delay_loop_2(((F_CPU) / 4e3) / 10);
			__ticks --;
    373a:	8d 81       	ldd	r24, Y+5	; 0x05
    373c:	9e 81       	ldd	r25, Y+6	; 0x06
    373e:	01 97       	sbiw	r24, 0x01	; 1
    3740:	9e 83       	std	Y+6, r25	; 0x06
    3742:	8d 83       	std	Y+5, r24	; 0x05
		__ticks = 1;
	else if (__tmp > 65535)
	{
		//	__ticks = requested delay in 1/10 ms
		__ticks = (uint16_t) (__ms * 10.0);
		while(__ticks)
    3744:	8d 81       	ldd	r24, Y+5	; 0x05
    3746:	9e 81       	ldd	r25, Y+6	; 0x06
    3748:	00 97       	sbiw	r24, 0x00	; 0
    374a:	69 f7       	brne	.-38     	; 0x3726 <KEYBAD_ReturnData+0xfc>
    374c:	14 c0       	rjmp	.+40     	; 0x3776 <KEYBAD_ReturnData+0x14c>
			__ticks --;
		}
		return;
	}
	else
		__ticks = (uint16_t)__tmp;
    374e:	6f 81       	ldd	r22, Y+7	; 0x07
    3750:	78 85       	ldd	r23, Y+8	; 0x08
    3752:	89 85       	ldd	r24, Y+9	; 0x09
    3754:	9a 85       	ldd	r25, Y+10	; 0x0a
    3756:	0e 94 49 00 	call	0x92	; 0x92 <__fixunssfsi>
    375a:	dc 01       	movw	r26, r24
    375c:	cb 01       	movw	r24, r22
    375e:	9e 83       	std	Y+6, r25	; 0x06
    3760:	8d 83       	std	Y+5, r24	; 0x05
    3762:	8d 81       	ldd	r24, Y+5	; 0x05
    3764:	9e 81       	ldd	r25, Y+6	; 0x06
    3766:	9a 83       	std	Y+2, r25	; 0x02
    3768:	89 83       	std	Y+1, r24	; 0x01
    376a:	89 81       	ldd	r24, Y+1	; 0x01
    376c:	9a 81       	ldd	r25, Y+2	; 0x02
    376e:	01 97       	sbiw	r24, 0x01	; 1
    3770:	f1 f7       	brne	.-4      	; 0x376e <KEYBAD_ReturnData+0x144>
    3772:	9a 83       	std	Y+2, r25	; 0x02
    3774:	89 83       	std	Y+1, r24	; 0x01
				{
                    _delay_ms(30);
					return  KPD_u8adjust4x4KPD((row*4)+colume+1) ;
    3776:	88 89       	ldd	r24, Y+16	; 0x10
    3778:	88 2f       	mov	r24, r24
    377a:	90 e0       	ldi	r25, 0x00	; 0
    377c:	88 0f       	add	r24, r24
    377e:	99 1f       	adc	r25, r25
    3780:	88 0f       	add	r24, r24
    3782:	99 1f       	adc	r25, r25
    3784:	98 2f       	mov	r25, r24
    3786:	8f 85       	ldd	r24, Y+15	; 0x0f
    3788:	89 0f       	add	r24, r25
    378a:	8f 5f       	subi	r24, 0xFF	; 255
    378c:	0e 94 6f 1a 	call	0x34de	; 0x34de <KPD_u8adjust4x4KPD>
				}

			}
		}
	}
}
    3790:	60 96       	adiw	r28, 0x10	; 16
    3792:	0f b6       	in	r0, 0x3f	; 63
    3794:	f8 94       	cli
    3796:	de bf       	out	0x3e, r29	; 62
    3798:	0f be       	out	0x3f, r0	; 63
    379a:	cd bf       	out	0x3d, r28	; 61
    379c:	cf 91       	pop	r28
    379e:	df 91       	pop	r29
    37a0:	08 95       	ret
		for(colume = 0 ; colume<4 ; colume++)
		{
			DIO_VoidSetSpecialPortDir(PORT_USE1,(0b00010000<<colume)) ;
			DIO_VoidSetSpecialPortValue(PORT_USE1,(~(0b00010000<<colume))) ;

			for(row = 0 ; row<4 ; row++)
    37a2:	88 89       	ldd	r24, Y+16	; 0x10
    37a4:	8f 5f       	subi	r24, 0xFF	; 255
    37a6:	88 8b       	std	Y+16, r24	; 0x10
    37a8:	88 89       	ldd	r24, Y+16	; 0x10
    37aa:	84 30       	cpi	r24, 0x04	; 4
    37ac:	08 f4       	brcc	.+2      	; 0x37b0 <KEYBAD_ReturnData+0x186>
    37ae:	6a cf       	rjmp	.-300    	; 0x3684 <KEYBAD_ReturnData+0x5a>

	uint8 row , colume ;
	while(1)
	{

		for(colume = 0 ; colume<4 ; colume++)
    37b0:	8f 85       	ldd	r24, Y+15	; 0x0f
    37b2:	8f 5f       	subi	r24, 0xFF	; 255
    37b4:	8f 87       	std	Y+15, r24	; 0x0f
    37b6:	8f 85       	ldd	r24, Y+15	; 0x0f
    37b8:	84 30       	cpi	r24, 0x04	; 4
    37ba:	08 f4       	brcc	.+2      	; 0x37be <KEYBAD_ReturnData+0x194>
    37bc:	42 cf       	rjmp	.-380    	; 0x3642 <KEYBAD_ReturnData+0x18>
    37be:	3f cf       	rjmp	.-386    	; 0x363e <KEYBAD_ReturnData+0x14>

000037c0 <EEPROM_writeByte>:
#include <util/delay.h>

#define SLA_W	0b10100000
#define SLA_R	0b10100001 
uint8 EEPROM_writeByte(uint16 u16addr, uint8 u8data)
{
    37c0:	df 93       	push	r29
    37c2:	cf 93       	push	r28
    37c4:	cd b7       	in	r28, 0x3d	; 61
    37c6:	de b7       	in	r29, 0x3e	; 62
    37c8:	63 97       	sbiw	r28, 0x13	; 19
    37ca:	0f b6       	in	r0, 0x3f	; 63
    37cc:	f8 94       	cli
    37ce:	de bf       	out	0x3e, r29	; 62
    37d0:	0f be       	out	0x3f, r0	; 63
    37d2:	cd bf       	out	0x3d, r28	; 61
    37d4:	99 8b       	std	Y+17, r25	; 0x11
    37d6:	88 8b       	std	Y+16, r24	; 0x10
    37d8:	6a 8b       	std	Y+18, r22	; 0x12
	//u8 CombinedAddress = (SLA_W) | (u8) ( ( (u16addr) & (u16)(0x0300) )>> 7);
	
	uint8 Local_u8AddressPacket;
 	Local_u8AddressPacket = EEPROM_FIXED_ADDRESS | (A2_CONNECTION <<2) | (uint8)(u16addr >>8);
    37da:	88 89       	ldd	r24, Y+16	; 0x10
    37dc:	99 89       	ldd	r25, Y+17	; 0x11
    37de:	89 2f       	mov	r24, r25
    37e0:	99 27       	eor	r25, r25
    37e2:	80 65       	ori	r24, 0x50	; 80
    37e4:	8f 87       	std	Y+15, r24	; 0x0f
	/*if 24C02 :
	 * 	Local_u8AddressPacket = EEPROM_FIXED_ADDRESS | A2_CONNECTION <<2 | A1_CONNECTION <<1 | A0_CONNECTION;
	 */
	/* Send the Start Bit */
	 TWI_SendStartCondition();
    37e6:	0e 94 0f 07 	call	0xe1e	; 0xe1e <TWI_SendStartCondition>
	/*check error status*/
    /* Send the device address, we need to get A8 A9 A10 address bits from the
     * memory location address and R/W=0 (write) */
	
	 TWI_SendSlaveAddressWithWrite(Local_u8AddressPacket);
    37ea:	8f 85       	ldd	r24, Y+15	; 0x0f
    37ec:	0e 94 63 07 	call	0xec6	; 0xec6 <TWI_SendSlaveAddressWithWrite>
	 /*check error status*/		 
    /* Send the required memory location address */
	 TWI_MasterWriteDataByte((uint8)u16addr);
    37f0:	88 89       	ldd	r24, Y+16	; 0x10
    37f2:	0e 94 d3 07 	call	0xfa6	; 0xfa6 <TWI_MasterWriteDataByte>
	 /*check error status*/
    /* write byte to eeprom */
	 TWI_MasterWriteDataByte(u8data);
    37f6:	8a 89       	ldd	r24, Y+18	; 0x12
    37f8:	0e 94 d3 07 	call	0xfa6	; 0xfa6 <TWI_MasterWriteDataByte>
	 /*check error status*/
    /* Send the Stop Bit */
	 TWI_SendStopCondition();
    37fc:	0e 94 5a 08 	call	0x10b4	; 0x10b4 <TWI_SendStopCondition>
    3800:	80 e0       	ldi	r24, 0x00	; 0
    3802:	90 e0       	ldi	r25, 0x00	; 0
    3804:	a0 e2       	ldi	r26, 0x20	; 32
    3806:	b1 e4       	ldi	r27, 0x41	; 65
    3808:	8b 87       	std	Y+11, r24	; 0x0b
    380a:	9c 87       	std	Y+12, r25	; 0x0c
    380c:	ad 87       	std	Y+13, r26	; 0x0d
    380e:	be 87       	std	Y+14, r27	; 0x0e
 */
void
_delay_ms(double __ms)
{
	uint16_t __ticks;
	double __tmp = ((F_CPU) / 4e3) * __ms;
    3810:	6b 85       	ldd	r22, Y+11	; 0x0b
    3812:	7c 85       	ldd	r23, Y+12	; 0x0c
    3814:	8d 85       	ldd	r24, Y+13	; 0x0d
    3816:	9e 85       	ldd	r25, Y+14	; 0x0e
    3818:	20 e0       	ldi	r18, 0x00	; 0
    381a:	30 e0       	ldi	r19, 0x00	; 0
    381c:	4a ef       	ldi	r20, 0xFA	; 250
    381e:	54 e4       	ldi	r21, 0x44	; 68
    3820:	0e 94 1f 02 	call	0x43e	; 0x43e <__mulsf3>
    3824:	dc 01       	movw	r26, r24
    3826:	cb 01       	movw	r24, r22
    3828:	8f 83       	std	Y+7, r24	; 0x07
    382a:	98 87       	std	Y+8, r25	; 0x08
    382c:	a9 87       	std	Y+9, r26	; 0x09
    382e:	ba 87       	std	Y+10, r27	; 0x0a
	if (__tmp < 1.0)
    3830:	6f 81       	ldd	r22, Y+7	; 0x07
    3832:	78 85       	ldd	r23, Y+8	; 0x08
    3834:	89 85       	ldd	r24, Y+9	; 0x09
    3836:	9a 85       	ldd	r25, Y+10	; 0x0a
    3838:	20 e0       	ldi	r18, 0x00	; 0
    383a:	30 e0       	ldi	r19, 0x00	; 0
    383c:	40 e8       	ldi	r20, 0x80	; 128
    383e:	5f e3       	ldi	r21, 0x3F	; 63
    3840:	0e 94 79 03 	call	0x6f2	; 0x6f2 <__ltsf2>
    3844:	88 23       	and	r24, r24
    3846:	2c f4       	brge	.+10     	; 0x3852 <EEPROM_writeByte+0x92>
		__ticks = 1;
    3848:	81 e0       	ldi	r24, 0x01	; 1
    384a:	90 e0       	ldi	r25, 0x00	; 0
    384c:	9e 83       	std	Y+6, r25	; 0x06
    384e:	8d 83       	std	Y+5, r24	; 0x05
    3850:	3f c0       	rjmp	.+126    	; 0x38d0 <EEPROM_writeByte+0x110>
	else if (__tmp > 65535)
    3852:	6f 81       	ldd	r22, Y+7	; 0x07
    3854:	78 85       	ldd	r23, Y+8	; 0x08
    3856:	89 85       	ldd	r24, Y+9	; 0x09
    3858:	9a 85       	ldd	r25, Y+10	; 0x0a
    385a:	20 e0       	ldi	r18, 0x00	; 0
    385c:	3f ef       	ldi	r19, 0xFF	; 255
    385e:	4f e7       	ldi	r20, 0x7F	; 127
    3860:	57 e4       	ldi	r21, 0x47	; 71
    3862:	0e 94 19 03 	call	0x632	; 0x632 <__gtsf2>
    3866:	18 16       	cp	r1, r24
    3868:	4c f5       	brge	.+82     	; 0x38bc <EEPROM_writeByte+0xfc>
	{
		//	__ticks = requested delay in 1/10 ms
		__ticks = (uint16_t) (__ms * 10.0);
    386a:	6b 85       	ldd	r22, Y+11	; 0x0b
    386c:	7c 85       	ldd	r23, Y+12	; 0x0c
    386e:	8d 85       	ldd	r24, Y+13	; 0x0d
    3870:	9e 85       	ldd	r25, Y+14	; 0x0e
    3872:	20 e0       	ldi	r18, 0x00	; 0
    3874:	30 e0       	ldi	r19, 0x00	; 0
    3876:	40 e2       	ldi	r20, 0x20	; 32
    3878:	51 e4       	ldi	r21, 0x41	; 65
    387a:	0e 94 1f 02 	call	0x43e	; 0x43e <__mulsf3>
    387e:	dc 01       	movw	r26, r24
    3880:	cb 01       	movw	r24, r22
    3882:	bc 01       	movw	r22, r24
    3884:	cd 01       	movw	r24, r26
    3886:	0e 94 49 00 	call	0x92	; 0x92 <__fixunssfsi>
    388a:	dc 01       	movw	r26, r24
    388c:	cb 01       	movw	r24, r22
    388e:	9e 83       	std	Y+6, r25	; 0x06
    3890:	8d 83       	std	Y+5, r24	; 0x05
    3892:	0f c0       	rjmp	.+30     	; 0x38b2 <EEPROM_writeByte+0xf2>
    3894:	88 ec       	ldi	r24, 0xC8	; 200
    3896:	90 e0       	ldi	r25, 0x00	; 0
    3898:	9c 83       	std	Y+4, r25	; 0x04
    389a:	8b 83       	std	Y+3, r24	; 0x03
    389c:	8b 81       	ldd	r24, Y+3	; 0x03
    389e:	9c 81       	ldd	r25, Y+4	; 0x04
    38a0:	01 97       	sbiw	r24, 0x01	; 1
    38a2:	f1 f7       	brne	.-4      	; 0x38a0 <EEPROM_writeByte+0xe0>
    38a4:	9c 83       	std	Y+4, r25	; 0x04
    38a6:	8b 83       	std	Y+3, r24	; 0x03
		while(__ticks)
		{
			// wait 1/10 ms
			_delay_loop_2(((F_CPU) / 4e3) / 10);
			__ticks --;
    38a8:	8d 81       	ldd	r24, Y+5	; 0x05
    38aa:	9e 81       	ldd	r25, Y+6	; 0x06
    38ac:	01 97       	sbiw	r24, 0x01	; 1
    38ae:	9e 83       	std	Y+6, r25	; 0x06
    38b0:	8d 83       	std	Y+5, r24	; 0x05
		__ticks = 1;
	else if (__tmp > 65535)
	{
		//	__ticks = requested delay in 1/10 ms
		__ticks = (uint16_t) (__ms * 10.0);
		while(__ticks)
    38b2:	8d 81       	ldd	r24, Y+5	; 0x05
    38b4:	9e 81       	ldd	r25, Y+6	; 0x06
    38b6:	00 97       	sbiw	r24, 0x00	; 0
    38b8:	69 f7       	brne	.-38     	; 0x3894 <EEPROM_writeByte+0xd4>
    38ba:	14 c0       	rjmp	.+40     	; 0x38e4 <EEPROM_writeByte+0x124>
			__ticks --;
		}
		return;
	}
	else
		__ticks = (uint16_t)__tmp;
    38bc:	6f 81       	ldd	r22, Y+7	; 0x07
    38be:	78 85       	ldd	r23, Y+8	; 0x08
    38c0:	89 85       	ldd	r24, Y+9	; 0x09
    38c2:	9a 85       	ldd	r25, Y+10	; 0x0a
    38c4:	0e 94 49 00 	call	0x92	; 0x92 <__fixunssfsi>
    38c8:	dc 01       	movw	r26, r24
    38ca:	cb 01       	movw	r24, r22
    38cc:	9e 83       	std	Y+6, r25	; 0x06
    38ce:	8d 83       	std	Y+5, r24	; 0x05
    38d0:	8d 81       	ldd	r24, Y+5	; 0x05
    38d2:	9e 81       	ldd	r25, Y+6	; 0x06
    38d4:	9a 83       	std	Y+2, r25	; 0x02
    38d6:	89 83       	std	Y+1, r24	; 0x01
    38d8:	89 81       	ldd	r24, Y+1	; 0x01
    38da:	9a 81       	ldd	r25, Y+2	; 0x02
    38dc:	01 97       	sbiw	r24, 0x01	; 1
    38de:	f1 f7       	brne	.-4      	; 0x38dc <EEPROM_writeByte+0x11c>
    38e0:	9a 83       	std	Y+2, r25	; 0x02
    38e2:	89 83       	std	Y+1, r24	; 0x01
	 /*Delay until the write cycle is finished*/
	 _delay_ms(10);
}
    38e4:	63 96       	adiw	r28, 0x13	; 19
    38e6:	0f b6       	in	r0, 0x3f	; 63
    38e8:	f8 94       	cli
    38ea:	de bf       	out	0x3e, r29	; 62
    38ec:	0f be       	out	0x3f, r0	; 63
    38ee:	cd bf       	out	0x3d, r28	; 61
    38f0:	cf 91       	pop	r28
    38f2:	df 91       	pop	r29
    38f4:	08 95       	ret

000038f6 <EEPROM_readByte>:

uint8 EEPROM_readByte(uint16 u16addr, uint8 *u8data)
{
    38f6:	df 93       	push	r29
    38f8:	cf 93       	push	r28
    38fa:	00 d0       	rcall	.+0      	; 0x38fc <EEPROM_readByte+0x6>
    38fc:	00 d0       	rcall	.+0      	; 0x38fe <EEPROM_readByte+0x8>
    38fe:	00 d0       	rcall	.+0      	; 0x3900 <EEPROM_readByte+0xa>
    3900:	cd b7       	in	r28, 0x3d	; 61
    3902:	de b7       	in	r29, 0x3e	; 62
    3904:	9b 83       	std	Y+3, r25	; 0x03
    3906:	8a 83       	std	Y+2, r24	; 0x02
    3908:	7d 83       	std	Y+5, r23	; 0x05
    390a:	6c 83       	std	Y+4, r22	; 0x04
	//u8 CombinedAddress = (SLA_R) | (u8) ( ( (u16addr) & (u16)(0x0300) )>> 7);
	
	uint8 Local_u8AddressPacket;
	Local_u8AddressPacket = EEPROM_FIXED_ADDRESS | (A2_CONNECTION <<2) | (uint8)(u16addr >>8);
    390c:	8a 81       	ldd	r24, Y+2	; 0x02
    390e:	9b 81       	ldd	r25, Y+3	; 0x03
    3910:	89 2f       	mov	r24, r25
    3912:	99 27       	eor	r25, r25
    3914:	80 65       	ori	r24, 0x50	; 80
    3916:	89 83       	std	Y+1, r24	; 0x01
	/*if 24C02 :
	 * 	Local_u8AddressPacket = EEPROM_FIXED_ADDRESS | A2_CONNECTION <<2 | A1_CONNECTION <<1 | A0_CONNECTION;
	 */

	/* Send the Start Bit */
	   TWI_SendStartCondition();
    3918:	0e 94 0f 07 	call	0xe1e	; 0xe1e <TWI_SendStartCondition>
	 /*check error status*/
       /* Send the device address, we need to get A8 A9 A10 address bits from the
     * memory location address and R/W=0 (write) */
	   TWI_SendSlaveAddressWithWrite(Local_u8AddressPacket);
    391c:	89 81       	ldd	r24, Y+1	; 0x01
    391e:	0e 94 63 07 	call	0xec6	; 0xec6 <TWI_SendSlaveAddressWithWrite>
	 /*check error status*/
        /* Send the required memory location address */
	   TWI_MasterWriteDataByte((uint8)u16addr);
    3922:	8a 81       	ldd	r24, Y+2	; 0x02
    3924:	0e 94 d3 07 	call	0xfa6	; 0xfa6 <TWI_MasterWriteDataByte>
	 /*check error status*/
    /* Send the Repeated Start Bit */
	   TWI_SendRepeatedStart();
    3928:	0e 94 39 07 	call	0xe72	; 0xe72 <TWI_SendRepeatedStart>
	 /*check error status*/	
    /* Send the device address, we need to get A8 A9 A10 address bits from the
     * memory location address and R/W=1 (Read) */
	   TWI_SendSlaveAddressWithRead(Local_u8AddressPacket);
    392c:	89 81       	ldd	r24, Y+1	; 0x01
    392e:	0e 94 9b 07 	call	0xf36	; 0xf36 <TWI_SendSlaveAddressWithRead>
	 /*check error status*/
    /* Read Byte from Memory without send ACK */
	   TWI_MasterReadDataByte(u8data);
    3932:	8c 81       	ldd	r24, Y+4	; 0x04
    3934:	9d 81       	ldd	r25, Y+5	; 0x05
    3936:	0e 94 fc 07 	call	0xff8	; 0xff8 <TWI_MasterReadDataByte>
	 /*check error status*/
    /* Send the Stop Bit */
	 TWI_SendStopCondition();
    393a:	0e 94 5a 08 	call	0x10b4	; 0x10b4 <TWI_SendStopCondition>
}
    393e:	26 96       	adiw	r28, 0x06	; 6
    3940:	0f b6       	in	r0, 0x3f	; 63
    3942:	f8 94       	cli
    3944:	de bf       	out	0x3e, r29	; 62
    3946:	0f be       	out	0x3f, r0	; 63
    3948:	cd bf       	out	0x3d, r28	; 61
    394a:	cf 91       	pop	r28
    394c:	df 91       	pop	r29
    394e:	08 95       	ret

00003950 <DC_Init>:
#include "../../MCAL/DIO/Header/Dio_Config.h"
#include "../../MCAL/DIO/Header/Dio_Private.h"
#include "DC.h"

void DC_Init(void)
{
    3950:	df 93       	push	r29
    3952:	cf 93       	push	r28
    3954:	cd b7       	in	r28, 0x3d	; 61
    3956:	de b7       	in	r29, 0x3e	; 62
	DDRD_REG |= (1<<PIN_6);	 /* Make OC1A pin as output */
    3958:	a1 e3       	ldi	r26, 0x31	; 49
    395a:	b0 e0       	ldi	r27, 0x00	; 0
    395c:	e1 e3       	ldi	r30, 0x31	; 49
    395e:	f0 e0       	ldi	r31, 0x00	; 0
    3960:	80 81       	ld	r24, Z
    3962:	80 64       	ori	r24, 0x40	; 64
    3964:	8c 93       	st	X, r24
}
    3966:	cf 91       	pop	r28
    3968:	df 91       	pop	r29
    396a:	08 95       	ret

0000396c <DC_ON_OFF>:
void DC_ON_OFF(uint8 State)
{
    396c:	df 93       	push	r29
    396e:	cf 93       	push	r28
    3970:	0f 92       	push	r0
    3972:	cd b7       	in	r28, 0x3d	; 61
    3974:	de b7       	in	r29, 0x3e	; 62
    3976:	89 83       	std	Y+1, r24	; 0x01
	if(State==ON)
    3978:	89 81       	ldd	r24, Y+1	; 0x01
    397a:	88 23       	and	r24, r24
    397c:	31 f4       	brne	.+12     	; 0x398a <DC_ON_OFF+0x1e>
	{
		DIO_VoidSetPinValue(PORTD,PIN_6,HIGH);
    397e:	83 e0       	ldi	r24, 0x03	; 3
    3980:	66 e0       	ldi	r22, 0x06	; 6
    3982:	41 e0       	ldi	r20, 0x01	; 1
    3984:	0e 94 39 0a 	call	0x1472	; 0x1472 <DIO_VoidSetPinValue>
    3988:	08 c0       	rjmp	.+16     	; 0x399a <DC_ON_OFF+0x2e>
	}
	else if(State==OFF)
    398a:	89 81       	ldd	r24, Y+1	; 0x01
    398c:	81 30       	cpi	r24, 0x01	; 1
    398e:	29 f4       	brne	.+10     	; 0x399a <DC_ON_OFF+0x2e>
	{
		DIO_VoidSetPinValue(PORTD,PIN_6,LOW);
    3990:	83 e0       	ldi	r24, 0x03	; 3
    3992:	66 e0       	ldi	r22, 0x06	; 6
    3994:	40 e0       	ldi	r20, 0x00	; 0
    3996:	0e 94 39 0a 	call	0x1472	; 0x1472 <DIO_VoidSetPinValue>
	}
}
    399a:	0f 90       	pop	r0
    399c:	cf 91       	pop	r28
    399e:	df 91       	pop	r29
    39a0:	08 95       	ret

000039a2 <BUZZER_Init>:
#include "../../MCAL/DIO/Header/Dio_Config.h"
#include "../../MCAL/DIO/Header/Dio_Private.h"
#include "BUZZER.h"

void BUZZER_Init(void)
{
    39a2:	df 93       	push	r29
    39a4:	cf 93       	push	r28
    39a6:	cd b7       	in	r28, 0x3d	; 61
    39a8:	de b7       	in	r29, 0x3e	; 62
	DIO_VoidSetPinDir(PORTD,PIN_7,OUTPUT);
    39aa:	83 e0       	ldi	r24, 0x03	; 3
    39ac:	67 e0       	ldi	r22, 0x07	; 7
    39ae:	41 e0       	ldi	r20, 0x01	; 1
    39b0:	0e 94 47 09 	call	0x128e	; 0x128e <DIO_VoidSetPinDir>
}
    39b4:	cf 91       	pop	r28
    39b6:	df 91       	pop	r29
    39b8:	08 95       	ret

000039ba <BUZZER_ON_OFF>:
void BUZZER_ON_OFF(uint8 State)
{
    39ba:	df 93       	push	r29
    39bc:	cf 93       	push	r28
    39be:	0f 92       	push	r0
    39c0:	cd b7       	in	r28, 0x3d	; 61
    39c2:	de b7       	in	r29, 0x3e	; 62
    39c4:	89 83       	std	Y+1, r24	; 0x01
	if(State==ON)
    39c6:	89 81       	ldd	r24, Y+1	; 0x01
    39c8:	88 23       	and	r24, r24
    39ca:	31 f4       	brne	.+12     	; 0x39d8 <BUZZER_ON_OFF+0x1e>
	{
		DIO_VoidSetPinValue(PORTD,PIN_7,HIGH);
    39cc:	83 e0       	ldi	r24, 0x03	; 3
    39ce:	67 e0       	ldi	r22, 0x07	; 7
    39d0:	41 e0       	ldi	r20, 0x01	; 1
    39d2:	0e 94 39 0a 	call	0x1472	; 0x1472 <DIO_VoidSetPinValue>
    39d6:	08 c0       	rjmp	.+16     	; 0x39e8 <BUZZER_ON_OFF+0x2e>
	}
	else if(State==OFF)
    39d8:	89 81       	ldd	r24, Y+1	; 0x01
    39da:	81 30       	cpi	r24, 0x01	; 1
    39dc:	29 f4       	brne	.+10     	; 0x39e8 <BUZZER_ON_OFF+0x2e>
	{
		DIO_VoidSetPinValue(PORTD,PIN_7,LOW);
    39de:	83 e0       	ldi	r24, 0x03	; 3
    39e0:	67 e0       	ldi	r22, 0x07	; 7
    39e2:	40 e0       	ldi	r20, 0x00	; 0
    39e4:	0e 94 39 0a 	call	0x1472	; 0x1472 <DIO_VoidSetPinValue>
	}
}
    39e8:	0f 90       	pop	r0
    39ea:	cf 91       	pop	r28
    39ec:	df 91       	pop	r29
    39ee:	08 95       	ret

000039f0 <project>:
uint8 Address_EEBROM = 0 ;

uint8 flag=0 ;

void project(void)
{
    39f0:	df 93       	push	r29
    39f2:	cf 93       	push	r28
    39f4:	cd b7       	in	r28, 0x3d	; 61
    39f6:	de b7       	in	r29, 0x3e	; 62

	LCD_Init();
    39f8:	0e 94 e0 13 	call	0x27c0	; 0x27c0 <LCD_Init>
	LED_VoidInit();
    39fc:	0e 94 72 12 	call	0x24e4	; 0x24e4 <LED_VoidInit>
	ADC_init();
    3a00:	0e 94 d1 0e 	call	0x1da2	; 0x1da2 <ADC_init>
	DC_Init();
    3a04:	0e 94 a8 1c 	call	0x3950	; 0x3950 <DC_Init>
	BUZZER_Init();
    3a08:	0e 94 d1 1c 	call	0x39a2	; 0x39a2 <BUZZER_Init>
	GIE_VoidEnable();
    3a0c:	0e 94 6f 08 	call	0x10de	; 0x10de <GIE_VoidEnable>
	EXT_INT_Void_INT0_Init();
    3a10:	0e 94 8b 08 	call	0x1116	; 0x1116 <EXT_INT_Void_INT0_Init>
	Servo_Init();
    3a14:	0e 94 43 12 	call	0x2486	; 0x2486 <Servo_Init>

	BUZZER_ON_OFF(OFF);
    3a18:	81 e0       	ldi	r24, 0x01	; 1
    3a1a:	0e 94 dd 1c 	call	0x39ba	; 0x39ba <BUZZER_ON_OFF>

	LCD_Commands(0X80);
    3a1e:	80 e8       	ldi	r24, 0x80	; 128
    3a20:	0e 94 a7 14 	call	0x294e	; 0x294e <LCD_Commands>
	CLCD_voidWriteNumber(10);
    3a24:	6a e0       	ldi	r22, 0x0A	; 10
    3a26:	70 e0       	ldi	r23, 0x00	; 0
    3a28:	80 e0       	ldi	r24, 0x00	; 0
    3a2a:	90 e0       	ldi	r25, 0x00	; 0
    3a2c:	0e 94 fb 19 	call	0x33f6	; 0x33f6 <CLCD_voidWriteNumber>

	while(1)
	{

		LCD_Commands(0X80);
    3a30:	80 e8       	ldi	r24, 0x80	; 128
    3a32:	0e 94 a7 14 	call	0x294e	; 0x294e <LCD_Commands>
		LCD_Write_String("Brightness = ");
    3a36:	80 e6       	ldi	r24, 0x60	; 96
    3a38:	90 e0       	ldi	r25, 0x00	; 0
    3a3a:	0e 94 2d 18 	call	0x305a	; 0x305a <LCD_Write_String>
		CLCD_voidWriteNumber(ADC_readChannel(0));
    3a3e:	80 e0       	ldi	r24, 0x00	; 0
    3a40:	0e 94 e2 0e 	call	0x1dc4	; 0x1dc4 <ADC_readChannel>
    3a44:	cc 01       	movw	r24, r24
    3a46:	a0 e0       	ldi	r26, 0x00	; 0
    3a48:	b0 e0       	ldi	r27, 0x00	; 0
    3a4a:	bc 01       	movw	r22, r24
    3a4c:	cd 01       	movw	r24, r26
    3a4e:	0e 94 fb 19 	call	0x33f6	; 0x33f6 <CLCD_voidWriteNumber>

		LCD_Commands(0XC0);
    3a52:	80 ec       	ldi	r24, 0xC0	; 192
    3a54:	0e 94 a7 14 	call	0x294e	; 0x294e <LCD_Commands>
		LCD_Write_String("Temprechar = ");
    3a58:	8e e6       	ldi	r24, 0x6E	; 110
    3a5a:	90 e0       	ldi	r25, 0x00	; 0
    3a5c:	0e 94 2d 18 	call	0x305a	; 0x305a <LCD_Write_String>
		CLCD_voidWriteNumber(ADC_readChannel(1)/2);
    3a60:	81 e0       	ldi	r24, 0x01	; 1
    3a62:	0e 94 e2 0e 	call	0x1dc4	; 0x1dc4 <ADC_readChannel>
    3a66:	96 95       	lsr	r25
    3a68:	87 95       	ror	r24
    3a6a:	cc 01       	movw	r24, r24
    3a6c:	a0 e0       	ldi	r26, 0x00	; 0
    3a6e:	b0 e0       	ldi	r27, 0x00	; 0
    3a70:	bc 01       	movw	r22, r24
    3a72:	cd 01       	movw	r24, r26
    3a74:	0e 94 fb 19 	call	0x33f6	; 0x33f6 <CLCD_voidWriteNumber>


		LDR_System(LDR_Range(ADC_readChannel(0)));
    3a78:	80 e0       	ldi	r24, 0x00	; 0
    3a7a:	0e 94 e2 0e 	call	0x1dc4	; 0x1dc4 <ADC_readChannel>
    3a7e:	0e 94 b1 13 	call	0x2762	; 0x2762 <LDR_Range>
    3a82:	0e 94 4d 1f 	call	0x3e9a	; 0x3e9a <LDR_System>


		TEMP_Sytem(ADC_readChannel(1));
    3a86:	81 e0       	ldi	r24, 0x01	; 1
    3a88:	0e 94 e2 0e 	call	0x1dc4	; 0x1dc4 <ADC_readChannel>
    3a8c:	0e 94 7b 1f 	call	0x3ef6	; 0x3ef6 <TEMP_Sytem>
    3a90:	cf cf       	rjmp	.-98     	; 0x3a30 <project+0x40>

00003a92 <__vector_1>:
/******************************************************************************************************************/
/******************************************************************************************************************/

void __vector_1(void) __attribute__((signal));
void __vector_1(void)
{
    3a92:	1f 92       	push	r1
    3a94:	0f 92       	push	r0
    3a96:	0f b6       	in	r0, 0x3f	; 63
    3a98:	0f 92       	push	r0
    3a9a:	11 24       	eor	r1, r1
    3a9c:	2f 93       	push	r18
    3a9e:	3f 93       	push	r19
    3aa0:	4f 93       	push	r20
    3aa2:	5f 93       	push	r21
    3aa4:	6f 93       	push	r22
    3aa6:	7f 93       	push	r23
    3aa8:	8f 93       	push	r24
    3aaa:	9f 93       	push	r25
    3aac:	af 93       	push	r26
    3aae:	bf 93       	push	r27
    3ab0:	ef 93       	push	r30
    3ab2:	ff 93       	push	r31
    3ab4:	df 93       	push	r29
    3ab6:	cf 93       	push	r28
    3ab8:	cd b7       	in	r28, 0x3d	; 61
    3aba:	de b7       	in	r29, 0x3e	; 62
	Lcd_Clear();
    3abc:	0e 94 56 18 	call	0x30ac	; 0x30ac <Lcd_Clear>
	keybad_System();
    3ac0:	0e 94 75 1d 	call	0x3aea	; 0x3aea <keybad_System>
}
    3ac4:	cf 91       	pop	r28
    3ac6:	df 91       	pop	r29
    3ac8:	ff 91       	pop	r31
    3aca:	ef 91       	pop	r30
    3acc:	bf 91       	pop	r27
    3ace:	af 91       	pop	r26
    3ad0:	9f 91       	pop	r25
    3ad2:	8f 91       	pop	r24
    3ad4:	7f 91       	pop	r23
    3ad6:	6f 91       	pop	r22
    3ad8:	5f 91       	pop	r21
    3ada:	4f 91       	pop	r20
    3adc:	3f 91       	pop	r19
    3ade:	2f 91       	pop	r18
    3ae0:	0f 90       	pop	r0
    3ae2:	0f be       	out	0x3f, r0	; 63
    3ae4:	0f 90       	pop	r0
    3ae6:	1f 90       	pop	r1
    3ae8:	18 95       	reti

00003aea <keybad_System>:
/******************************************************************************************************************/
/******************************************************************************************************************/
/******************************************************************************************************************/

void keybad_System(void)
{
    3aea:	df 93       	push	r29
    3aec:	cf 93       	push	r28
    3aee:	cd b7       	in	r28, 0x3d	; 61
    3af0:	de b7       	in	r29, 0x3e	; 62
    3af2:	65 97       	sbiw	r28, 0x15	; 21
    3af4:	0f b6       	in	r0, 0x3f	; 63
    3af6:	f8 94       	cli
    3af8:	de bf       	out	0x3e, r29	; 62
    3afa:	0f be       	out	0x3f, r0	; 63
    3afc:	cd bf       	out	0x3d, r28	; 61
	static uint8 DATA ;
	EXT_INT_Void_INT0_Init();
    3afe:	0e 94 8b 08 	call	0x1116	; 0x1116 <EXT_INT_Void_INT0_Init>
	LCD_Init();
    3b02:	0e 94 e0 13 	call	0x27c0	; 0x27c0 <LCD_Init>
	LED_VoidInit();
    3b06:	0e 94 72 12 	call	0x24e4	; 0x24e4 <LED_VoidInit>
	DC_Init();
    3b0a:	0e 94 a8 1c 	call	0x3950	; 0x3950 <DC_Init>
	Servo_Init();
    3b0e:	0e 94 43 12 	call	0x2486	; 0x2486 <Servo_Init>
	BUZZER_Init();
    3b12:	0e 94 d1 1c 	call	0x39a2	; 0x39a2 <BUZZER_Init>
	TWI_voidInitMaster(0);
    3b16:	80 e0       	ldi	r24, 0x00	; 0
    3b18:	90 e0       	ldi	r25, 0x00	; 0
    3b1a:	0e 94 c3 06 	call	0xd86	; 0xd86 <TWI_voidInitMaster>
	SpetialSeven7(0);
    3b1e:	80 e0       	ldi	r24, 0x00	; 0
    3b20:	0e 94 3f 11 	call	0x227e	; 0x227e <SpetialSeven7>
	while(1)
	{
		uint8 Flag1=0 ;
    3b24:	1b 8a       	std	Y+19, r1	; 0x13

		LCD_Commands(0X80);
    3b26:	80 e8       	ldi	r24, 0x80	; 128
    3b28:	0e 94 a7 14 	call	0x294e	; 0x294e <LCD_Commands>
		LCD_Write_String("Enter your PASS");
    3b2c:	8c e7       	ldi	r24, 0x7C	; 124
    3b2e:	90 e0       	ldi	r25, 0x00	; 0
    3b30:	0e 94 2d 18 	call	0x305a	; 0x305a <LCD_Write_String>

		uint8 PASS , Sum ;
		float32 DIGIT ;

		LCD_Commands(0XC0);
    3b34:	80 ec       	ldi	r24, 0xC0	; 192
    3b36:	0e 94 a7 14 	call	0x294e	; 0x294e <LCD_Commands>
		PASS = KEYBAD_ReturnData();
    3b3a:	0e 94 15 1b 	call	0x362a	; 0x362a <KEYBAD_ReturnData>
    3b3e:	8c 8b       	std	Y+20, r24	; 0x14
    3b40:	80 e0       	ldi	r24, 0x00	; 0
    3b42:	90 e0       	ldi	r25, 0x00	; 0
    3b44:	aa e7       	ldi	r26, 0x7A	; 122
    3b46:	b3 e4       	ldi	r27, 0x43	; 67
    3b48:	8b 87       	std	Y+11, r24	; 0x0b
    3b4a:	9c 87       	std	Y+12, r25	; 0x0c
    3b4c:	ad 87       	std	Y+13, r26	; 0x0d
    3b4e:	be 87       	std	Y+14, r27	; 0x0e
 */
void
_delay_ms(double __ms)
{
	uint16_t __ticks;
	double __tmp = ((F_CPU) / 4e3) * __ms;
    3b50:	6b 85       	ldd	r22, Y+11	; 0x0b
    3b52:	7c 85       	ldd	r23, Y+12	; 0x0c
    3b54:	8d 85       	ldd	r24, Y+13	; 0x0d
    3b56:	9e 85       	ldd	r25, Y+14	; 0x0e
    3b58:	20 e0       	ldi	r18, 0x00	; 0
    3b5a:	30 e0       	ldi	r19, 0x00	; 0
    3b5c:	4a ef       	ldi	r20, 0xFA	; 250
    3b5e:	54 e4       	ldi	r21, 0x44	; 68
    3b60:	0e 94 1f 02 	call	0x43e	; 0x43e <__mulsf3>
    3b64:	dc 01       	movw	r26, r24
    3b66:	cb 01       	movw	r24, r22
    3b68:	8f 83       	std	Y+7, r24	; 0x07
    3b6a:	98 87       	std	Y+8, r25	; 0x08
    3b6c:	a9 87       	std	Y+9, r26	; 0x09
    3b6e:	ba 87       	std	Y+10, r27	; 0x0a
	if (__tmp < 1.0)
    3b70:	6f 81       	ldd	r22, Y+7	; 0x07
    3b72:	78 85       	ldd	r23, Y+8	; 0x08
    3b74:	89 85       	ldd	r24, Y+9	; 0x09
    3b76:	9a 85       	ldd	r25, Y+10	; 0x0a
    3b78:	20 e0       	ldi	r18, 0x00	; 0
    3b7a:	30 e0       	ldi	r19, 0x00	; 0
    3b7c:	40 e8       	ldi	r20, 0x80	; 128
    3b7e:	5f e3       	ldi	r21, 0x3F	; 63
    3b80:	0e 94 79 03 	call	0x6f2	; 0x6f2 <__ltsf2>
    3b84:	88 23       	and	r24, r24
    3b86:	2c f4       	brge	.+10     	; 0x3b92 <keybad_System+0xa8>
		__ticks = 1;
    3b88:	81 e0       	ldi	r24, 0x01	; 1
    3b8a:	90 e0       	ldi	r25, 0x00	; 0
    3b8c:	9e 83       	std	Y+6, r25	; 0x06
    3b8e:	8d 83       	std	Y+5, r24	; 0x05
    3b90:	3f c0       	rjmp	.+126    	; 0x3c10 <keybad_System+0x126>
	else if (__tmp > 65535)
    3b92:	6f 81       	ldd	r22, Y+7	; 0x07
    3b94:	78 85       	ldd	r23, Y+8	; 0x08
    3b96:	89 85       	ldd	r24, Y+9	; 0x09
    3b98:	9a 85       	ldd	r25, Y+10	; 0x0a
    3b9a:	20 e0       	ldi	r18, 0x00	; 0
    3b9c:	3f ef       	ldi	r19, 0xFF	; 255
    3b9e:	4f e7       	ldi	r20, 0x7F	; 127
    3ba0:	57 e4       	ldi	r21, 0x47	; 71
    3ba2:	0e 94 19 03 	call	0x632	; 0x632 <__gtsf2>
    3ba6:	18 16       	cp	r1, r24
    3ba8:	4c f5       	brge	.+82     	; 0x3bfc <keybad_System+0x112>
	{
		//	__ticks = requested delay in 1/10 ms
		__ticks = (uint16_t) (__ms * 10.0);
    3baa:	6b 85       	ldd	r22, Y+11	; 0x0b
    3bac:	7c 85       	ldd	r23, Y+12	; 0x0c
    3bae:	8d 85       	ldd	r24, Y+13	; 0x0d
    3bb0:	9e 85       	ldd	r25, Y+14	; 0x0e
    3bb2:	20 e0       	ldi	r18, 0x00	; 0
    3bb4:	30 e0       	ldi	r19, 0x00	; 0
    3bb6:	40 e2       	ldi	r20, 0x20	; 32
    3bb8:	51 e4       	ldi	r21, 0x41	; 65
    3bba:	0e 94 1f 02 	call	0x43e	; 0x43e <__mulsf3>
    3bbe:	dc 01       	movw	r26, r24
    3bc0:	cb 01       	movw	r24, r22
    3bc2:	bc 01       	movw	r22, r24
    3bc4:	cd 01       	movw	r24, r26
    3bc6:	0e 94 49 00 	call	0x92	; 0x92 <__fixunssfsi>
    3bca:	dc 01       	movw	r26, r24
    3bcc:	cb 01       	movw	r24, r22
    3bce:	9e 83       	std	Y+6, r25	; 0x06
    3bd0:	8d 83       	std	Y+5, r24	; 0x05
    3bd2:	0f c0       	rjmp	.+30     	; 0x3bf2 <keybad_System+0x108>
    3bd4:	88 ec       	ldi	r24, 0xC8	; 200
    3bd6:	90 e0       	ldi	r25, 0x00	; 0
    3bd8:	9c 83       	std	Y+4, r25	; 0x04
    3bda:	8b 83       	std	Y+3, r24	; 0x03
    3bdc:	8b 81       	ldd	r24, Y+3	; 0x03
    3bde:	9c 81       	ldd	r25, Y+4	; 0x04
    3be0:	01 97       	sbiw	r24, 0x01	; 1
    3be2:	f1 f7       	brne	.-4      	; 0x3be0 <keybad_System+0xf6>
    3be4:	9c 83       	std	Y+4, r25	; 0x04
    3be6:	8b 83       	std	Y+3, r24	; 0x03
		while(__ticks)
		{
			// wait 1/10 ms
			_delay_loop_2(((F_CPU) / 4e3) / 10);
			__ticks --;
    3be8:	8d 81       	ldd	r24, Y+5	; 0x05
    3bea:	9e 81       	ldd	r25, Y+6	; 0x06
    3bec:	01 97       	sbiw	r24, 0x01	; 1
    3bee:	9e 83       	std	Y+6, r25	; 0x06
    3bf0:	8d 83       	std	Y+5, r24	; 0x05
		__ticks = 1;
	else if (__tmp > 65535)
	{
		//	__ticks = requested delay in 1/10 ms
		__ticks = (uint16_t) (__ms * 10.0);
		while(__ticks)
    3bf2:	8d 81       	ldd	r24, Y+5	; 0x05
    3bf4:	9e 81       	ldd	r25, Y+6	; 0x06
    3bf6:	00 97       	sbiw	r24, 0x00	; 0
    3bf8:	69 f7       	brne	.-38     	; 0x3bd4 <keybad_System+0xea>
    3bfa:	14 c0       	rjmp	.+40     	; 0x3c24 <keybad_System+0x13a>
			__ticks --;
		}
		return;
	}
	else
		__ticks = (uint16_t)__tmp;
    3bfc:	6f 81       	ldd	r22, Y+7	; 0x07
    3bfe:	78 85       	ldd	r23, Y+8	; 0x08
    3c00:	89 85       	ldd	r24, Y+9	; 0x09
    3c02:	9a 85       	ldd	r25, Y+10	; 0x0a
    3c04:	0e 94 49 00 	call	0x92	; 0x92 <__fixunssfsi>
    3c08:	dc 01       	movw	r26, r24
    3c0a:	cb 01       	movw	r24, r22
    3c0c:	9e 83       	std	Y+6, r25	; 0x06
    3c0e:	8d 83       	std	Y+5, r24	; 0x05
    3c10:	8d 81       	ldd	r24, Y+5	; 0x05
    3c12:	9e 81       	ldd	r25, Y+6	; 0x06
    3c14:	9a 83       	std	Y+2, r25	; 0x02
    3c16:	89 83       	std	Y+1, r24	; 0x01
    3c18:	89 81       	ldd	r24, Y+1	; 0x01
    3c1a:	9a 81       	ldd	r25, Y+2	; 0x02
    3c1c:	01 97       	sbiw	r24, 0x01	; 1
    3c1e:	f1 f7       	brne	.-4      	; 0x3c1c <keybad_System+0x132>
    3c20:	9a 83       	std	Y+2, r25	; 0x02
    3c22:	89 83       	std	Y+1, r24	; 0x01
		_delay_ms(250);

		//CLCD_voidWriteNumber(PASS);
		LCD_Write_String("*");
    3c24:	8c e8       	ldi	r24, 0x8C	; 140
    3c26:	90 e0       	ldi	r25, 0x00	; 0
    3c28:	0e 94 2d 18 	call	0x305a	; 0x305a <LCD_Write_String>


		if(PASS==61)
    3c2c:	8c 89       	ldd	r24, Y+20	; 0x14
    3c2e:	8d 33       	cpi	r24, 0x3D	; 61
    3c30:	c1 f5       	brne	.+112    	; 0x3ca2 <keybad_System+0x1b8>
		{
			Lcd_Clear();
    3c32:	0e 94 56 18 	call	0x30ac	; 0x30ac <Lcd_Clear>
			LCD_Commands(0X80);
    3c36:	80 e8       	ldi	r24, 0x80	; 128
    3c38:	0e 94 a7 14 	call	0x294e	; 0x294e <LCD_Commands>
			LCD_Write_String("SET PASS 4 DIGIT");
    3c3c:	8e e8       	ldi	r24, 0x8E	; 142
    3c3e:	90 e0       	ldi	r25, 0x00	; 0
    3c40:	0e 94 2d 18 	call	0x305a	; 0x305a <LCD_Write_String>
			LCD_Commands(0Xc0);
    3c44:	80 ec       	ldi	r24, 0xC0	; 192
    3c46:	0e 94 a7 14 	call	0x294e	; 0x294e <LCD_Commands>
			PASS = 0 ;
    3c4a:	1c 8a       	std	Y+20, r1	; 0x14
			Sum = PASS ;
    3c4c:	8c 89       	ldd	r24, Y+20	; 0x14
    3c4e:	8d 8b       	std	Y+21, r24	; 0x15
			Function_EntryNumber(&Sum,&PASS);
    3c50:	ce 01       	movw	r24, r28
    3c52:	45 96       	adiw	r24, 0x15	; 21
    3c54:	9e 01       	movw	r18, r28
    3c56:	2c 5e       	subi	r18, 0xEC	; 236
    3c58:	3f 4f       	sbci	r19, 0xFF	; 255
    3c5a:	b9 01       	movw	r22, r18
    3c5c:	0e 94 5d 21 	call	0x42ba	; 0x42ba <Function_EntryNumber>

			if(Address_EEBROM<1)
    3c60:	80 91 1a 01 	lds	r24, 0x011A
    3c64:	88 23       	and	r24, r24
    3c66:	99 f4       	brne	.+38     	; 0x3c8e <keybad_System+0x1a4>
			{
				EEPROM_writeByte(1,Sum);
    3c68:	2d 89       	ldd	r18, Y+21	; 0x15
    3c6a:	81 e0       	ldi	r24, 0x01	; 1
    3c6c:	90 e0       	ldi	r25, 0x00	; 0
    3c6e:	62 2f       	mov	r22, r18
    3c70:	0e 94 e0 1b 	call	0x37c0	; 0x37c0 <EEPROM_writeByte>
				EEPROM_readByte(1,&DATA);
    3c74:	2c e1       	ldi	r18, 0x1C	; 28
    3c76:	31 e0       	ldi	r19, 0x01	; 1
    3c78:	81 e0       	ldi	r24, 0x01	; 1
    3c7a:	90 e0       	ldi	r25, 0x00	; 0
    3c7c:	b9 01       	movw	r22, r18
    3c7e:	0e 94 7b 1c 	call	0x38f6	; 0x38f6 <EEPROM_readByte>
				Address_EEBROM++;
    3c82:	80 91 1a 01 	lds	r24, 0x011A
    3c86:	8f 5f       	subi	r24, 0xFF	; 255
    3c88:	80 93 1a 01 	sts	0x011A, r24
    3c8c:	4b c0       	rjmp	.+150    	; 0x3d24 <keybad_System+0x23a>
			}
			else
			{
				Lcd_Clear();
    3c8e:	0e 94 56 18 	call	0x30ac	; 0x30ac <Lcd_Clear>
				LCD_Commands(0X80);
    3c92:	80 e8       	ldi	r24, 0x80	; 128
    3c94:	0e 94 a7 14 	call	0x294e	; 0x294e <LCD_Commands>
				LCD_Write_String("NO more one new PASS");
    3c98:	8f e9       	ldi	r24, 0x9F	; 159
    3c9a:	90 e0       	ldi	r25, 0x00	; 0
    3c9c:	0e 94 2d 18 	call	0x305a	; 0x305a <LCD_Write_String>
    3ca0:	41 c0       	rjmp	.+130    	; 0x3d24 <keybad_System+0x23a>


		/***************************************************************************/
		/***************************************************************************/
		/***************************************************************************/
		else if(PASS>=0 && PASS<=9 && PASS!=43 && PASS!=42 && PASS!=45 && PASS!=46 && PASS!=67 && PASS!=61 ) // Check is ok or nok
    3ca2:	8c 89       	ldd	r24, Y+20	; 0x14
    3ca4:	8a 30       	cpi	r24, 0x0A	; 10
    3ca6:	08 f0       	brcs	.+2      	; 0x3caa <keybad_System+0x1c0>
    3ca8:	3d cf       	rjmp	.-390    	; 0x3b24 <keybad_System+0x3a>
    3caa:	8c 89       	ldd	r24, Y+20	; 0x14
    3cac:	8b 32       	cpi	r24, 0x2B	; 43
    3cae:	09 f4       	brne	.+2      	; 0x3cb2 <keybad_System+0x1c8>
    3cb0:	39 cf       	rjmp	.-398    	; 0x3b24 <keybad_System+0x3a>
    3cb2:	8c 89       	ldd	r24, Y+20	; 0x14
    3cb4:	8a 32       	cpi	r24, 0x2A	; 42
    3cb6:	09 f4       	brne	.+2      	; 0x3cba <keybad_System+0x1d0>
    3cb8:	35 cf       	rjmp	.-406    	; 0x3b24 <keybad_System+0x3a>
    3cba:	8c 89       	ldd	r24, Y+20	; 0x14
    3cbc:	8d 32       	cpi	r24, 0x2D	; 45
    3cbe:	09 f4       	brne	.+2      	; 0x3cc2 <keybad_System+0x1d8>
    3cc0:	31 cf       	rjmp	.-414    	; 0x3b24 <keybad_System+0x3a>
    3cc2:	8c 89       	ldd	r24, Y+20	; 0x14
    3cc4:	8e 32       	cpi	r24, 0x2E	; 46
    3cc6:	09 f4       	brne	.+2      	; 0x3cca <keybad_System+0x1e0>
    3cc8:	2d cf       	rjmp	.-422    	; 0x3b24 <keybad_System+0x3a>
    3cca:	8c 89       	ldd	r24, Y+20	; 0x14
    3ccc:	83 34       	cpi	r24, 0x43	; 67
    3cce:	09 f4       	brne	.+2      	; 0x3cd2 <keybad_System+0x1e8>
    3cd0:	29 cf       	rjmp	.-430    	; 0x3b24 <keybad_System+0x3a>
    3cd2:	8c 89       	ldd	r24, Y+20	; 0x14
    3cd4:	8d 33       	cpi	r24, 0x3D	; 61
    3cd6:	09 f4       	brne	.+2      	; 0x3cda <keybad_System+0x1f0>
    3cd8:	25 cf       	rjmp	.-438    	; 0x3b24 <keybad_System+0x3a>
		{
			// uint8 data ;
			LCD_Commands(0XC1);
    3cda:	81 ec       	ldi	r24, 0xC1	; 193
    3cdc:	0e 94 a7 14 	call	0x294e	; 0x294e <LCD_Commands>
			Sum = PASS;
    3ce0:	8c 89       	ldd	r24, Y+20	; 0x14
    3ce2:	8d 8b       	std	Y+21, r24	; 0x15
			Function_EntryNumber2(&Sum,&PASS);
    3ce4:	ce 01       	movw	r24, r28
    3ce6:	45 96       	adiw	r24, 0x15	; 21
    3ce8:	9e 01       	movw	r18, r28
    3cea:	2c 5e       	subi	r18, 0xEC	; 236
    3cec:	3f 4f       	sbci	r19, 0xFF	; 255
    3cee:	b9 01       	movw	r22, r18
    3cf0:	0e 94 1c 22 	call	0x4438	; 0x4438 <Function_EntryNumber2>
			}*/




			if(Sum==DATA)
    3cf4:	9d 89       	ldd	r25, Y+21	; 0x15
    3cf6:	80 91 1c 01 	lds	r24, 0x011C
    3cfa:	98 17       	cp	r25, r24
    3cfc:	29 f4       	brne	.+10     	; 0x3d08 <keybad_System+0x21e>
			{
				if( Right_PASS()==0 )
    3cfe:	0e 94 a5 1f 	call	0x3f4a	; 0x3f4a <Right_PASS>
    3d02:	88 23       	and	r24, r24
    3d04:	79 f0       	breq	.+30     	; 0x3d24 <keybad_System+0x23a>
    3d06:	07 c0       	rjmp	.+14     	; 0x3d16 <keybad_System+0x22c>
				{
					break;
				}
			}
			else if(Sum!=DATA)
    3d08:	9d 89       	ldd	r25, Y+21	; 0x15
    3d0a:	80 91 1c 01 	lds	r24, 0x011C
    3d0e:	98 17       	cp	r25, r24
    3d10:	11 f0       	breq	.+4      	; 0x3d16 <keybad_System+0x22c>
			{
				Wrong_PASS();
    3d12:	0e 94 b7 20 	call	0x416e	; 0x416e <Wrong_PASS>
			}

			if(FunctionCountM(Counter)==0)
    3d16:	80 91 19 01 	lds	r24, 0x0119
    3d1a:	0e 94 9b 1e 	call	0x3d36	; 0x3d36 <FunctionCountM>
    3d1e:	00 97       	sbiw	r24, 0x00	; 0
    3d20:	09 f0       	breq	.+2      	; 0x3d24 <keybad_System+0x23a>
    3d22:	00 cf       	rjmp	.-512    	; 0x3b24 <keybad_System+0x3a>
			{
				break;
			}
		}
	}
}
    3d24:	65 96       	adiw	r28, 0x15	; 21
    3d26:	0f b6       	in	r0, 0x3f	; 63
    3d28:	f8 94       	cli
    3d2a:	de bf       	out	0x3e, r29	; 62
    3d2c:	0f be       	out	0x3f, r0	; 63
    3d2e:	cd bf       	out	0x3d, r28	; 61
    3d30:	cf 91       	pop	r28
    3d32:	df 91       	pop	r29
    3d34:	08 95       	ret

00003d36 <FunctionCountM>:

/******************************************************************************************************************/
/******************************************************************************************************************/
/******************************************************************************************************************/
int FunctionCountM(uint8 Count)
{
    3d36:	df 93       	push	r29
    3d38:	cf 93       	push	r28
    3d3a:	cd b7       	in	r28, 0x3d	; 61
    3d3c:	de b7       	in	r29, 0x3e	; 62
    3d3e:	60 97       	sbiw	r28, 0x10	; 16
    3d40:	0f b6       	in	r0, 0x3f	; 63
    3d42:	f8 94       	cli
    3d44:	de bf       	out	0x3e, r29	; 62
    3d46:	0f be       	out	0x3f, r0	; 63
    3d48:	cd bf       	out	0x3d, r28	; 61
    3d4a:	88 8b       	std	Y+16, r24	; 0x10
	uint8 INDEX ;
	if(Counter==0 || Counter==3)
    3d4c:	80 91 19 01 	lds	r24, 0x0119
    3d50:	88 23       	and	r24, r24
    3d52:	29 f0       	breq	.+10     	; 0x3d5e <FunctionCountM+0x28>
    3d54:	80 91 19 01 	lds	r24, 0x0119
    3d58:	83 30       	cpi	r24, 0x03	; 3
    3d5a:	09 f0       	breq	.+2      	; 0x3d5e <FunctionCountM+0x28>
    3d5c:	92 c0       	rjmp	.+292    	; 0x3e82 <FunctionCountM+0x14c>
	{
		if(Counter==3)
    3d5e:	80 91 19 01 	lds	r24, 0x0119
    3d62:	83 30       	cpi	r24, 0x03	; 3
    3d64:	09 f0       	breq	.+2      	; 0x3d68 <FunctionCountM+0x32>
    3d66:	8d c0       	rjmp	.+282    	; 0x3e82 <FunctionCountM+0x14c>
		{
			BUZZER_ON_OFF(ON);
    3d68:	80 e0       	ldi	r24, 0x00	; 0
    3d6a:	0e 94 dd 1c 	call	0x39ba	; 0x39ba <BUZZER_ON_OFF>
			SpetialSeven7(0);
    3d6e:	80 e0       	ldi	r24, 0x00	; 0
    3d70:	0e 94 3f 11 	call	0x227e	; 0x227e <SpetialSeven7>
			Lcd_Clear();
    3d74:	0e 94 56 18 	call	0x30ac	; 0x30ac <Lcd_Clear>
			LCD_Commands(0X80);
    3d78:	80 e8       	ldi	r24, 0x80	; 128
    3d7a:	0e 94 a7 14 	call	0x294e	; 0x294e <LCD_Commands>
			LCD_Commands(0XC0);
    3d7e:	80 ec       	ldi	r24, 0xC0	; 192
    3d80:	0e 94 a7 14 	call	0x294e	; 0x294e <LCD_Commands>
			LCD_Write_String("TRY LATER....... ");
    3d84:	84 eb       	ldi	r24, 0xB4	; 180
    3d86:	90 e0       	ldi	r25, 0x00	; 0
    3d88:	0e 94 2d 18 	call	0x305a	; 0x305a <LCD_Write_String>

			BUZZER_ON_OFF(ON);
    3d8c:	80 e0       	ldi	r24, 0x00	; 0
    3d8e:	0e 94 dd 1c 	call	0x39ba	; 0x39ba <BUZZER_ON_OFF>
    3d92:	80 e0       	ldi	r24, 0x00	; 0
    3d94:	90 e0       	ldi	r25, 0x00	; 0
    3d96:	aa e7       	ldi	r26, 0x7A	; 122
    3d98:	b4 e4       	ldi	r27, 0x44	; 68
    3d9a:	8b 87       	std	Y+11, r24	; 0x0b
    3d9c:	9c 87       	std	Y+12, r25	; 0x0c
    3d9e:	ad 87       	std	Y+13, r26	; 0x0d
    3da0:	be 87       	std	Y+14, r27	; 0x0e
 */
void
_delay_ms(double __ms)
{
	uint16_t __ticks;
	double __tmp = ((F_CPU) / 4e3) * __ms;
    3da2:	6b 85       	ldd	r22, Y+11	; 0x0b
    3da4:	7c 85       	ldd	r23, Y+12	; 0x0c
    3da6:	8d 85       	ldd	r24, Y+13	; 0x0d
    3da8:	9e 85       	ldd	r25, Y+14	; 0x0e
    3daa:	20 e0       	ldi	r18, 0x00	; 0
    3dac:	30 e0       	ldi	r19, 0x00	; 0
    3dae:	4a ef       	ldi	r20, 0xFA	; 250
    3db0:	54 e4       	ldi	r21, 0x44	; 68
    3db2:	0e 94 1f 02 	call	0x43e	; 0x43e <__mulsf3>
    3db6:	dc 01       	movw	r26, r24
    3db8:	cb 01       	movw	r24, r22
    3dba:	8f 83       	std	Y+7, r24	; 0x07
    3dbc:	98 87       	std	Y+8, r25	; 0x08
    3dbe:	a9 87       	std	Y+9, r26	; 0x09
    3dc0:	ba 87       	std	Y+10, r27	; 0x0a
	if (__tmp < 1.0)
    3dc2:	6f 81       	ldd	r22, Y+7	; 0x07
    3dc4:	78 85       	ldd	r23, Y+8	; 0x08
    3dc6:	89 85       	ldd	r24, Y+9	; 0x09
    3dc8:	9a 85       	ldd	r25, Y+10	; 0x0a
    3dca:	20 e0       	ldi	r18, 0x00	; 0
    3dcc:	30 e0       	ldi	r19, 0x00	; 0
    3dce:	40 e8       	ldi	r20, 0x80	; 128
    3dd0:	5f e3       	ldi	r21, 0x3F	; 63
    3dd2:	0e 94 79 03 	call	0x6f2	; 0x6f2 <__ltsf2>
    3dd6:	88 23       	and	r24, r24
    3dd8:	2c f4       	brge	.+10     	; 0x3de4 <FunctionCountM+0xae>
		__ticks = 1;
    3dda:	81 e0       	ldi	r24, 0x01	; 1
    3ddc:	90 e0       	ldi	r25, 0x00	; 0
    3dde:	9e 83       	std	Y+6, r25	; 0x06
    3de0:	8d 83       	std	Y+5, r24	; 0x05
    3de2:	3f c0       	rjmp	.+126    	; 0x3e62 <FunctionCountM+0x12c>
	else if (__tmp > 65535)
    3de4:	6f 81       	ldd	r22, Y+7	; 0x07
    3de6:	78 85       	ldd	r23, Y+8	; 0x08
    3de8:	89 85       	ldd	r24, Y+9	; 0x09
    3dea:	9a 85       	ldd	r25, Y+10	; 0x0a
    3dec:	20 e0       	ldi	r18, 0x00	; 0
    3dee:	3f ef       	ldi	r19, 0xFF	; 255
    3df0:	4f e7       	ldi	r20, 0x7F	; 127
    3df2:	57 e4       	ldi	r21, 0x47	; 71
    3df4:	0e 94 19 03 	call	0x632	; 0x632 <__gtsf2>
    3df8:	18 16       	cp	r1, r24
    3dfa:	4c f5       	brge	.+82     	; 0x3e4e <FunctionCountM+0x118>
	{
		//	__ticks = requested delay in 1/10 ms
		__ticks = (uint16_t) (__ms * 10.0);
    3dfc:	6b 85       	ldd	r22, Y+11	; 0x0b
    3dfe:	7c 85       	ldd	r23, Y+12	; 0x0c
    3e00:	8d 85       	ldd	r24, Y+13	; 0x0d
    3e02:	9e 85       	ldd	r25, Y+14	; 0x0e
    3e04:	20 e0       	ldi	r18, 0x00	; 0
    3e06:	30 e0       	ldi	r19, 0x00	; 0
    3e08:	40 e2       	ldi	r20, 0x20	; 32
    3e0a:	51 e4       	ldi	r21, 0x41	; 65
    3e0c:	0e 94 1f 02 	call	0x43e	; 0x43e <__mulsf3>
    3e10:	dc 01       	movw	r26, r24
    3e12:	cb 01       	movw	r24, r22
    3e14:	bc 01       	movw	r22, r24
    3e16:	cd 01       	movw	r24, r26
    3e18:	0e 94 49 00 	call	0x92	; 0x92 <__fixunssfsi>
    3e1c:	dc 01       	movw	r26, r24
    3e1e:	cb 01       	movw	r24, r22
    3e20:	9e 83       	std	Y+6, r25	; 0x06
    3e22:	8d 83       	std	Y+5, r24	; 0x05
    3e24:	0f c0       	rjmp	.+30     	; 0x3e44 <FunctionCountM+0x10e>
    3e26:	88 ec       	ldi	r24, 0xC8	; 200
    3e28:	90 e0       	ldi	r25, 0x00	; 0
    3e2a:	9c 83       	std	Y+4, r25	; 0x04
    3e2c:	8b 83       	std	Y+3, r24	; 0x03
    3e2e:	8b 81       	ldd	r24, Y+3	; 0x03
    3e30:	9c 81       	ldd	r25, Y+4	; 0x04
    3e32:	01 97       	sbiw	r24, 0x01	; 1
    3e34:	f1 f7       	brne	.-4      	; 0x3e32 <FunctionCountM+0xfc>
    3e36:	9c 83       	std	Y+4, r25	; 0x04
    3e38:	8b 83       	std	Y+3, r24	; 0x03
		while(__ticks)
		{
			// wait 1/10 ms
			_delay_loop_2(((F_CPU) / 4e3) / 10);
			__ticks --;
    3e3a:	8d 81       	ldd	r24, Y+5	; 0x05
    3e3c:	9e 81       	ldd	r25, Y+6	; 0x06
    3e3e:	01 97       	sbiw	r24, 0x01	; 1
    3e40:	9e 83       	std	Y+6, r25	; 0x06
    3e42:	8d 83       	std	Y+5, r24	; 0x05
		__ticks = 1;
	else if (__tmp > 65535)
	{
		//	__ticks = requested delay in 1/10 ms
		__ticks = (uint16_t) (__ms * 10.0);
		while(__ticks)
    3e44:	8d 81       	ldd	r24, Y+5	; 0x05
    3e46:	9e 81       	ldd	r25, Y+6	; 0x06
    3e48:	00 97       	sbiw	r24, 0x00	; 0
    3e4a:	69 f7       	brne	.-38     	; 0x3e26 <FunctionCountM+0xf0>
    3e4c:	14 c0       	rjmp	.+40     	; 0x3e76 <FunctionCountM+0x140>
			__ticks --;
		}
		return;
	}
	else
		__ticks = (uint16_t)__tmp;
    3e4e:	6f 81       	ldd	r22, Y+7	; 0x07
    3e50:	78 85       	ldd	r23, Y+8	; 0x08
    3e52:	89 85       	ldd	r24, Y+9	; 0x09
    3e54:	9a 85       	ldd	r25, Y+10	; 0x0a
    3e56:	0e 94 49 00 	call	0x92	; 0x92 <__fixunssfsi>
    3e5a:	dc 01       	movw	r26, r24
    3e5c:	cb 01       	movw	r24, r22
    3e5e:	9e 83       	std	Y+6, r25	; 0x06
    3e60:	8d 83       	std	Y+5, r24	; 0x05
    3e62:	8d 81       	ldd	r24, Y+5	; 0x05
    3e64:	9e 81       	ldd	r25, Y+6	; 0x06
    3e66:	9a 83       	std	Y+2, r25	; 0x02
    3e68:	89 83       	std	Y+1, r24	; 0x01
    3e6a:	89 81       	ldd	r24, Y+1	; 0x01
    3e6c:	9a 81       	ldd	r25, Y+2	; 0x02
    3e6e:	01 97       	sbiw	r24, 0x01	; 1
    3e70:	f1 f7       	brne	.-4      	; 0x3e6e <FunctionCountM+0x138>
    3e72:	9a 83       	std	Y+2, r25	; 0x02
    3e74:	89 83       	std	Y+1, r24	; 0x01

			_delay_ms(1000);

			Lcd_Clear();
    3e76:	0e 94 56 18 	call	0x30ac	; 0x30ac <Lcd_Clear>
			BUZZER_ON_OFF(OFF);
    3e7a:	81 e0       	ldi	r24, 0x01	; 1
    3e7c:	0e 94 dd 1c 	call	0x39ba	; 0x39ba <BUZZER_ON_OFF>

			INDEX = 0 ;
    3e80:	1f 86       	std	Y+15, r1	; 0x0f
		}
	}
	return INDEX ;
    3e82:	8f 85       	ldd	r24, Y+15	; 0x0f
    3e84:	88 2f       	mov	r24, r24
    3e86:	90 e0       	ldi	r25, 0x00	; 0
}
    3e88:	60 96       	adiw	r28, 0x10	; 16
    3e8a:	0f b6       	in	r0, 0x3f	; 63
    3e8c:	f8 94       	cli
    3e8e:	de bf       	out	0x3e, r29	; 62
    3e90:	0f be       	out	0x3f, r0	; 63
    3e92:	cd bf       	out	0x3d, r28	; 61
    3e94:	cf 91       	pop	r28
    3e96:	df 91       	pop	r29
    3e98:	08 95       	ret

00003e9a <LDR_System>:
/******************************************************************************************************************/
/******************************************************************************************************************/


void LDR_System(uint16 ADC_Value)
{
    3e9a:	df 93       	push	r29
    3e9c:	cf 93       	push	r28
    3e9e:	00 d0       	rcall	.+0      	; 0x3ea0 <LDR_System+0x6>
    3ea0:	cd b7       	in	r28, 0x3d	; 61
    3ea2:	de b7       	in	r29, 0x3e	; 62
    3ea4:	9a 83       	std	Y+2, r25	; 0x02
    3ea6:	89 83       	std	Y+1, r24	; 0x01
	if(ADC_Value == LOW)// LDR SENSOR
    3ea8:	89 81       	ldd	r24, Y+1	; 0x01
    3eaa:	9a 81       	ldd	r25, Y+2	; 0x02
    3eac:	00 97       	sbiw	r24, 0x00	; 0
    3eae:	39 f4       	brne	.+14     	; 0x3ebe <LDR_System+0x24>
	{
		LED_VoidOffLed(LED_ONEA2);
    3eb0:	82 e0       	ldi	r24, 0x02	; 2
    3eb2:	0e 94 92 12 	call	0x2524	; 0x2524 <LED_VoidOffLed>
		LED_VoidOffLed(LED_TWOA3);
    3eb6:	83 e0       	ldi	r24, 0x03	; 3
    3eb8:	0e 94 92 12 	call	0x2524	; 0x2524 <LED_VoidOffLed>
    3ebc:	17 c0       	rjmp	.+46     	; 0x3eec <LDR_System+0x52>
	}
	else if(ADC_Value == HIGH)
    3ebe:	89 81       	ldd	r24, Y+1	; 0x01
    3ec0:	9a 81       	ldd	r25, Y+2	; 0x02
    3ec2:	81 30       	cpi	r24, 0x01	; 1
    3ec4:	91 05       	cpc	r25, r1
    3ec6:	39 f4       	brne	.+14     	; 0x3ed6 <LDR_System+0x3c>
	{
		LED_VoidOnLed(LED_ONEA2);
    3ec8:	82 e0       	ldi	r24, 0x02	; 2
    3eca:	0e 94 83 12 	call	0x2506	; 0x2506 <LED_VoidOnLed>
		LED_VoidOffLed(LED_TWOA3);
    3ece:	83 e0       	ldi	r24, 0x03	; 3
    3ed0:	0e 94 92 12 	call	0x2524	; 0x2524 <LED_VoidOffLed>
    3ed4:	0b c0       	rjmp	.+22     	; 0x3eec <LDR_System+0x52>
	}
	else if(ADC_Value == HIGHHIGH)
    3ed6:	89 81       	ldd	r24, Y+1	; 0x01
    3ed8:	9a 81       	ldd	r25, Y+2	; 0x02
    3eda:	82 30       	cpi	r24, 0x02	; 2
    3edc:	91 05       	cpc	r25, r1
    3ede:	31 f4       	brne	.+12     	; 0x3eec <LDR_System+0x52>
	{
		LED_VoidOnLed(LED_ONEA2);
    3ee0:	82 e0       	ldi	r24, 0x02	; 2
    3ee2:	0e 94 83 12 	call	0x2506	; 0x2506 <LED_VoidOnLed>
		LED_VoidOnLed(LED_TWOA3);
    3ee6:	83 e0       	ldi	r24, 0x03	; 3
    3ee8:	0e 94 83 12 	call	0x2506	; 0x2506 <LED_VoidOnLed>
	}
}
    3eec:	0f 90       	pop	r0
    3eee:	0f 90       	pop	r0
    3ef0:	cf 91       	pop	r28
    3ef2:	df 91       	pop	r29
    3ef4:	08 95       	ret

00003ef6 <TEMP_Sytem>:
/******************************************************************************************************************/
/******************************************************************************************************************/


void TEMP_Sytem(uint16 TEMP_Value)
{
    3ef6:	df 93       	push	r29
    3ef8:	cf 93       	push	r28
    3efa:	00 d0       	rcall	.+0      	; 0x3efc <TEMP_Sytem+0x6>
    3efc:	cd b7       	in	r28, 0x3d	; 61
    3efe:	de b7       	in	r29, 0x3e	; 62
    3f00:	9a 83       	std	Y+2, r25	; 0x02
    3f02:	89 83       	std	Y+1, r24	; 0x01
	if(TEMP_Value > 30*2 )
    3f04:	89 81       	ldd	r24, Y+1	; 0x01
    3f06:	9a 81       	ldd	r25, Y+2	; 0x02
    3f08:	8d 33       	cpi	r24, 0x3D	; 61
    3f0a:	91 05       	cpc	r25, r1
    3f0c:	18 f0       	brcs	.+6      	; 0x3f14 <TEMP_Sytem+0x1e>
	{
		DC_ON_OFF(ON);
    3f0e:	80 e0       	ldi	r24, 0x00	; 0
    3f10:	0e 94 b6 1c 	call	0x396c	; 0x396c <DC_ON_OFF>
	}
	if(TEMP_Value > (30*2)+5 )
    3f14:	89 81       	ldd	r24, Y+1	; 0x01
    3f16:	9a 81       	ldd	r25, Y+2	; 0x02
    3f18:	82 34       	cpi	r24, 0x42	; 66
    3f1a:	91 05       	cpc	r25, r1
    3f1c:	30 f0       	brcs	.+12     	; 0x3f2a <TEMP_Sytem+0x34>
	{
		DC_ON_OFF(ON);
    3f1e:	80 e0       	ldi	r24, 0x00	; 0
    3f20:	0e 94 b6 1c 	call	0x396c	; 0x396c <DC_ON_OFF>
		BUZZER_ON_OFF(ON);
    3f24:	80 e0       	ldi	r24, 0x00	; 0
    3f26:	0e 94 dd 1c 	call	0x39ba	; 0x39ba <BUZZER_ON_OFF>
	}
	if (TEMP_Value < 30*2)
    3f2a:	89 81       	ldd	r24, Y+1	; 0x01
    3f2c:	9a 81       	ldd	r25, Y+2	; 0x02
    3f2e:	8c 33       	cpi	r24, 0x3C	; 60
    3f30:	91 05       	cpc	r25, r1
    3f32:	30 f4       	brcc	.+12     	; 0x3f40 <TEMP_Sytem+0x4a>
	{
		DC_ON_OFF(OFF);
    3f34:	81 e0       	ldi	r24, 0x01	; 1
    3f36:	0e 94 b6 1c 	call	0x396c	; 0x396c <DC_ON_OFF>
		BUZZER_ON_OFF(OFF);
    3f3a:	81 e0       	ldi	r24, 0x01	; 1
    3f3c:	0e 94 dd 1c 	call	0x39ba	; 0x39ba <BUZZER_ON_OFF>
	}
}
    3f40:	0f 90       	pop	r0
    3f42:	0f 90       	pop	r0
    3f44:	cf 91       	pop	r28
    3f46:	df 91       	pop	r29
    3f48:	08 95       	ret

00003f4a <Right_PASS>:
/**
 * @brief function to open the door and close it ,when
 * @return ZERO
 */
uint8 Right_PASS(void)
{
    3f4a:	df 93       	push	r29
    3f4c:	cf 93       	push	r28
    3f4e:	cd b7       	in	r28, 0x3d	; 61
    3f50:	de b7       	in	r29, 0x3e	; 62
    3f52:	6c 97       	sbiw	r28, 0x1c	; 28
    3f54:	0f b6       	in	r0, 0x3f	; 63
    3f56:	f8 94       	cli
    3f58:	de bf       	out	0x3e, r29	; 62
    3f5a:	0f be       	out	0x3f, r0	; 63
    3f5c:	cd bf       	out	0x3d, r28	; 61
	Sevro_Degre(90);   // Servo move to 90 degree , open the door
    3f5e:	8a e5       	ldi	r24, 0x5A	; 90
    3f60:	0e 94 51 12 	call	0x24a2	; 0x24a2 <Sevro_Degre>
    3f64:	80 e0       	ldi	r24, 0x00	; 0
    3f66:	90 e0       	ldi	r25, 0x00	; 0
    3f68:	aa e7       	ldi	r26, 0x7A	; 122
    3f6a:	b4 e4       	ldi	r27, 0x44	; 68
    3f6c:	89 8f       	std	Y+25, r24	; 0x19
    3f6e:	9a 8f       	std	Y+26, r25	; 0x1a
    3f70:	ab 8f       	std	Y+27, r26	; 0x1b
    3f72:	bc 8f       	std	Y+28, r27	; 0x1c
 */
void
_delay_ms(double __ms)
{
	uint16_t __ticks;
	double __tmp = ((F_CPU) / 4e3) * __ms;
    3f74:	69 8d       	ldd	r22, Y+25	; 0x19
    3f76:	7a 8d       	ldd	r23, Y+26	; 0x1a
    3f78:	8b 8d       	ldd	r24, Y+27	; 0x1b
    3f7a:	9c 8d       	ldd	r25, Y+28	; 0x1c
    3f7c:	20 e0       	ldi	r18, 0x00	; 0
    3f7e:	30 e0       	ldi	r19, 0x00	; 0
    3f80:	4a ef       	ldi	r20, 0xFA	; 250
    3f82:	54 e4       	ldi	r21, 0x44	; 68
    3f84:	0e 94 1f 02 	call	0x43e	; 0x43e <__mulsf3>
    3f88:	dc 01       	movw	r26, r24
    3f8a:	cb 01       	movw	r24, r22
    3f8c:	8d 8b       	std	Y+21, r24	; 0x15
    3f8e:	9e 8b       	std	Y+22, r25	; 0x16
    3f90:	af 8b       	std	Y+23, r26	; 0x17
    3f92:	b8 8f       	std	Y+24, r27	; 0x18
	if (__tmp < 1.0)
    3f94:	6d 89       	ldd	r22, Y+21	; 0x15
    3f96:	7e 89       	ldd	r23, Y+22	; 0x16
    3f98:	8f 89       	ldd	r24, Y+23	; 0x17
    3f9a:	98 8d       	ldd	r25, Y+24	; 0x18
    3f9c:	20 e0       	ldi	r18, 0x00	; 0
    3f9e:	30 e0       	ldi	r19, 0x00	; 0
    3fa0:	40 e8       	ldi	r20, 0x80	; 128
    3fa2:	5f e3       	ldi	r21, 0x3F	; 63
    3fa4:	0e 94 79 03 	call	0x6f2	; 0x6f2 <__ltsf2>
    3fa8:	88 23       	and	r24, r24
    3faa:	2c f4       	brge	.+10     	; 0x3fb6 <Right_PASS+0x6c>
		__ticks = 1;
    3fac:	81 e0       	ldi	r24, 0x01	; 1
    3fae:	90 e0       	ldi	r25, 0x00	; 0
    3fb0:	9c 8b       	std	Y+20, r25	; 0x14
    3fb2:	8b 8b       	std	Y+19, r24	; 0x13
    3fb4:	3f c0       	rjmp	.+126    	; 0x4034 <Right_PASS+0xea>
	else if (__tmp > 65535)
    3fb6:	6d 89       	ldd	r22, Y+21	; 0x15
    3fb8:	7e 89       	ldd	r23, Y+22	; 0x16
    3fba:	8f 89       	ldd	r24, Y+23	; 0x17
    3fbc:	98 8d       	ldd	r25, Y+24	; 0x18
    3fbe:	20 e0       	ldi	r18, 0x00	; 0
    3fc0:	3f ef       	ldi	r19, 0xFF	; 255
    3fc2:	4f e7       	ldi	r20, 0x7F	; 127
    3fc4:	57 e4       	ldi	r21, 0x47	; 71
    3fc6:	0e 94 19 03 	call	0x632	; 0x632 <__gtsf2>
    3fca:	18 16       	cp	r1, r24
    3fcc:	4c f5       	brge	.+82     	; 0x4020 <Right_PASS+0xd6>
	{
		//	__ticks = requested delay in 1/10 ms
		__ticks = (uint16_t) (__ms * 10.0);
    3fce:	69 8d       	ldd	r22, Y+25	; 0x19
    3fd0:	7a 8d       	ldd	r23, Y+26	; 0x1a
    3fd2:	8b 8d       	ldd	r24, Y+27	; 0x1b
    3fd4:	9c 8d       	ldd	r25, Y+28	; 0x1c
    3fd6:	20 e0       	ldi	r18, 0x00	; 0
    3fd8:	30 e0       	ldi	r19, 0x00	; 0
    3fda:	40 e2       	ldi	r20, 0x20	; 32
    3fdc:	51 e4       	ldi	r21, 0x41	; 65
    3fde:	0e 94 1f 02 	call	0x43e	; 0x43e <__mulsf3>
    3fe2:	dc 01       	movw	r26, r24
    3fe4:	cb 01       	movw	r24, r22
    3fe6:	bc 01       	movw	r22, r24
    3fe8:	cd 01       	movw	r24, r26
    3fea:	0e 94 49 00 	call	0x92	; 0x92 <__fixunssfsi>
    3fee:	dc 01       	movw	r26, r24
    3ff0:	cb 01       	movw	r24, r22
    3ff2:	9c 8b       	std	Y+20, r25	; 0x14
    3ff4:	8b 8b       	std	Y+19, r24	; 0x13
    3ff6:	0f c0       	rjmp	.+30     	; 0x4016 <Right_PASS+0xcc>
    3ff8:	88 ec       	ldi	r24, 0xC8	; 200
    3ffa:	90 e0       	ldi	r25, 0x00	; 0
    3ffc:	9a 8b       	std	Y+18, r25	; 0x12
    3ffe:	89 8b       	std	Y+17, r24	; 0x11
    4000:	89 89       	ldd	r24, Y+17	; 0x11
    4002:	9a 89       	ldd	r25, Y+18	; 0x12
    4004:	01 97       	sbiw	r24, 0x01	; 1
    4006:	f1 f7       	brne	.-4      	; 0x4004 <Right_PASS+0xba>
    4008:	9a 8b       	std	Y+18, r25	; 0x12
    400a:	89 8b       	std	Y+17, r24	; 0x11
		while(__ticks)
		{
			// wait 1/10 ms
			_delay_loop_2(((F_CPU) / 4e3) / 10);
			__ticks --;
    400c:	8b 89       	ldd	r24, Y+19	; 0x13
    400e:	9c 89       	ldd	r25, Y+20	; 0x14
    4010:	01 97       	sbiw	r24, 0x01	; 1
    4012:	9c 8b       	std	Y+20, r25	; 0x14
    4014:	8b 8b       	std	Y+19, r24	; 0x13
		__ticks = 1;
	else if (__tmp > 65535)
	{
		//	__ticks = requested delay in 1/10 ms
		__ticks = (uint16_t) (__ms * 10.0);
		while(__ticks)
    4016:	8b 89       	ldd	r24, Y+19	; 0x13
    4018:	9c 89       	ldd	r25, Y+20	; 0x14
    401a:	00 97       	sbiw	r24, 0x00	; 0
    401c:	69 f7       	brne	.-38     	; 0x3ff8 <Right_PASS+0xae>
    401e:	14 c0       	rjmp	.+40     	; 0x4048 <Right_PASS+0xfe>
			__ticks --;
		}
		return;
	}
	else
		__ticks = (uint16_t)__tmp;
    4020:	6d 89       	ldd	r22, Y+21	; 0x15
    4022:	7e 89       	ldd	r23, Y+22	; 0x16
    4024:	8f 89       	ldd	r24, Y+23	; 0x17
    4026:	98 8d       	ldd	r25, Y+24	; 0x18
    4028:	0e 94 49 00 	call	0x92	; 0x92 <__fixunssfsi>
    402c:	dc 01       	movw	r26, r24
    402e:	cb 01       	movw	r24, r22
    4030:	9c 8b       	std	Y+20, r25	; 0x14
    4032:	8b 8b       	std	Y+19, r24	; 0x13
    4034:	8b 89       	ldd	r24, Y+19	; 0x13
    4036:	9c 89       	ldd	r25, Y+20	; 0x14
    4038:	98 8b       	std	Y+16, r25	; 0x10
    403a:	8f 87       	std	Y+15, r24	; 0x0f
    403c:	8f 85       	ldd	r24, Y+15	; 0x0f
    403e:	98 89       	ldd	r25, Y+16	; 0x10
    4040:	01 97       	sbiw	r24, 0x01	; 1
    4042:	f1 f7       	brne	.-4      	; 0x4040 <Right_PASS+0xf6>
    4044:	98 8b       	std	Y+16, r25	; 0x10
    4046:	8f 87       	std	Y+15, r24	; 0x0f
	_delay_ms(1000);
	Sevro_Degre(0);	   // Servo move to 0 degree , Close the door  after 1000 ms
    4048:	80 e0       	ldi	r24, 0x00	; 0
    404a:	0e 94 51 12 	call	0x24a2	; 0x24a2 <Sevro_Degre>
	Counter=0;
    404e:	10 92 19 01 	sts	0x0119, r1

	Lcd_Clear();
    4052:	0e 94 56 18 	call	0x30ac	; 0x30ac <Lcd_Clear>
	LCD_Commands(0X80);
    4056:	80 e8       	ldi	r24, 0x80	; 128
    4058:	0e 94 a7 14 	call	0x294e	; 0x294e <LCD_Commands>
	LCD_Write_String("Right pass ......");
    405c:	86 ec       	ldi	r24, 0xC6	; 198
    405e:	90 e0       	ldi	r25, 0x00	; 0
    4060:	0e 94 2d 18 	call	0x305a	; 0x305a <LCD_Write_String>
    4064:	80 e0       	ldi	r24, 0x00	; 0
    4066:	90 e0       	ldi	r25, 0x00	; 0
    4068:	aa ef       	ldi	r26, 0xFA	; 250
    406a:	b3 e4       	ldi	r27, 0x43	; 67
    406c:	8b 87       	std	Y+11, r24	; 0x0b
    406e:	9c 87       	std	Y+12, r25	; 0x0c
    4070:	ad 87       	std	Y+13, r26	; 0x0d
    4072:	be 87       	std	Y+14, r27	; 0x0e
 */
void
_delay_ms(double __ms)
{
	uint16_t __ticks;
	double __tmp = ((F_CPU) / 4e3) * __ms;
    4074:	6b 85       	ldd	r22, Y+11	; 0x0b
    4076:	7c 85       	ldd	r23, Y+12	; 0x0c
    4078:	8d 85       	ldd	r24, Y+13	; 0x0d
    407a:	9e 85       	ldd	r25, Y+14	; 0x0e
    407c:	20 e0       	ldi	r18, 0x00	; 0
    407e:	30 e0       	ldi	r19, 0x00	; 0
    4080:	4a ef       	ldi	r20, 0xFA	; 250
    4082:	54 e4       	ldi	r21, 0x44	; 68
    4084:	0e 94 1f 02 	call	0x43e	; 0x43e <__mulsf3>
    4088:	dc 01       	movw	r26, r24
    408a:	cb 01       	movw	r24, r22
    408c:	8f 83       	std	Y+7, r24	; 0x07
    408e:	98 87       	std	Y+8, r25	; 0x08
    4090:	a9 87       	std	Y+9, r26	; 0x09
    4092:	ba 87       	std	Y+10, r27	; 0x0a
	if (__tmp < 1.0)
    4094:	6f 81       	ldd	r22, Y+7	; 0x07
    4096:	78 85       	ldd	r23, Y+8	; 0x08
    4098:	89 85       	ldd	r24, Y+9	; 0x09
    409a:	9a 85       	ldd	r25, Y+10	; 0x0a
    409c:	20 e0       	ldi	r18, 0x00	; 0
    409e:	30 e0       	ldi	r19, 0x00	; 0
    40a0:	40 e8       	ldi	r20, 0x80	; 128
    40a2:	5f e3       	ldi	r21, 0x3F	; 63
    40a4:	0e 94 79 03 	call	0x6f2	; 0x6f2 <__ltsf2>
    40a8:	88 23       	and	r24, r24
    40aa:	2c f4       	brge	.+10     	; 0x40b6 <Right_PASS+0x16c>
		__ticks = 1;
    40ac:	81 e0       	ldi	r24, 0x01	; 1
    40ae:	90 e0       	ldi	r25, 0x00	; 0
    40b0:	9e 83       	std	Y+6, r25	; 0x06
    40b2:	8d 83       	std	Y+5, r24	; 0x05
    40b4:	3f c0       	rjmp	.+126    	; 0x4134 <Right_PASS+0x1ea>
	else if (__tmp > 65535)
    40b6:	6f 81       	ldd	r22, Y+7	; 0x07
    40b8:	78 85       	ldd	r23, Y+8	; 0x08
    40ba:	89 85       	ldd	r24, Y+9	; 0x09
    40bc:	9a 85       	ldd	r25, Y+10	; 0x0a
    40be:	20 e0       	ldi	r18, 0x00	; 0
    40c0:	3f ef       	ldi	r19, 0xFF	; 255
    40c2:	4f e7       	ldi	r20, 0x7F	; 127
    40c4:	57 e4       	ldi	r21, 0x47	; 71
    40c6:	0e 94 19 03 	call	0x632	; 0x632 <__gtsf2>
    40ca:	18 16       	cp	r1, r24
    40cc:	4c f5       	brge	.+82     	; 0x4120 <Right_PASS+0x1d6>
	{
		//	__ticks = requested delay in 1/10 ms
		__ticks = (uint16_t) (__ms * 10.0);
    40ce:	6b 85       	ldd	r22, Y+11	; 0x0b
    40d0:	7c 85       	ldd	r23, Y+12	; 0x0c
    40d2:	8d 85       	ldd	r24, Y+13	; 0x0d
    40d4:	9e 85       	ldd	r25, Y+14	; 0x0e
    40d6:	20 e0       	ldi	r18, 0x00	; 0
    40d8:	30 e0       	ldi	r19, 0x00	; 0
    40da:	40 e2       	ldi	r20, 0x20	; 32
    40dc:	51 e4       	ldi	r21, 0x41	; 65
    40de:	0e 94 1f 02 	call	0x43e	; 0x43e <__mulsf3>
    40e2:	dc 01       	movw	r26, r24
    40e4:	cb 01       	movw	r24, r22
    40e6:	bc 01       	movw	r22, r24
    40e8:	cd 01       	movw	r24, r26
    40ea:	0e 94 49 00 	call	0x92	; 0x92 <__fixunssfsi>
    40ee:	dc 01       	movw	r26, r24
    40f0:	cb 01       	movw	r24, r22
    40f2:	9e 83       	std	Y+6, r25	; 0x06
    40f4:	8d 83       	std	Y+5, r24	; 0x05
    40f6:	0f c0       	rjmp	.+30     	; 0x4116 <Right_PASS+0x1cc>
    40f8:	88 ec       	ldi	r24, 0xC8	; 200
    40fa:	90 e0       	ldi	r25, 0x00	; 0
    40fc:	9c 83       	std	Y+4, r25	; 0x04
    40fe:	8b 83       	std	Y+3, r24	; 0x03
    4100:	8b 81       	ldd	r24, Y+3	; 0x03
    4102:	9c 81       	ldd	r25, Y+4	; 0x04
    4104:	01 97       	sbiw	r24, 0x01	; 1
    4106:	f1 f7       	brne	.-4      	; 0x4104 <Right_PASS+0x1ba>
    4108:	9c 83       	std	Y+4, r25	; 0x04
    410a:	8b 83       	std	Y+3, r24	; 0x03
		while(__ticks)
		{
			// wait 1/10 ms
			_delay_loop_2(((F_CPU) / 4e3) / 10);
			__ticks --;
    410c:	8d 81       	ldd	r24, Y+5	; 0x05
    410e:	9e 81       	ldd	r25, Y+6	; 0x06
    4110:	01 97       	sbiw	r24, 0x01	; 1
    4112:	9e 83       	std	Y+6, r25	; 0x06
    4114:	8d 83       	std	Y+5, r24	; 0x05
		__ticks = 1;
	else if (__tmp > 65535)
	{
		//	__ticks = requested delay in 1/10 ms
		__ticks = (uint16_t) (__ms * 10.0);
		while(__ticks)
    4116:	8d 81       	ldd	r24, Y+5	; 0x05
    4118:	9e 81       	ldd	r25, Y+6	; 0x06
    411a:	00 97       	sbiw	r24, 0x00	; 0
    411c:	69 f7       	brne	.-38     	; 0x40f8 <Right_PASS+0x1ae>
    411e:	14 c0       	rjmp	.+40     	; 0x4148 <Right_PASS+0x1fe>
			__ticks --;
		}
		return;
	}
	else
		__ticks = (uint16_t)__tmp;
    4120:	6f 81       	ldd	r22, Y+7	; 0x07
    4122:	78 85       	ldd	r23, Y+8	; 0x08
    4124:	89 85       	ldd	r24, Y+9	; 0x09
    4126:	9a 85       	ldd	r25, Y+10	; 0x0a
    4128:	0e 94 49 00 	call	0x92	; 0x92 <__fixunssfsi>
    412c:	dc 01       	movw	r26, r24
    412e:	cb 01       	movw	r24, r22
    4130:	9e 83       	std	Y+6, r25	; 0x06
    4132:	8d 83       	std	Y+5, r24	; 0x05
    4134:	8d 81       	ldd	r24, Y+5	; 0x05
    4136:	9e 81       	ldd	r25, Y+6	; 0x06
    4138:	9a 83       	std	Y+2, r25	; 0x02
    413a:	89 83       	std	Y+1, r24	; 0x01
    413c:	89 81       	ldd	r24, Y+1	; 0x01
    413e:	9a 81       	ldd	r25, Y+2	; 0x02
    4140:	01 97       	sbiw	r24, 0x01	; 1
    4142:	f1 f7       	brne	.-4      	; 0x4140 <Right_PASS+0x1f6>
    4144:	9a 83       	std	Y+2, r25	; 0x02
    4146:	89 83       	std	Y+1, r24	; 0x01
	_delay_ms(500);
	LCD_Commands(0XC0);
    4148:	80 ec       	ldi	r24, 0xC0	; 192
    414a:	0e 94 a7 14 	call	0x294e	; 0x294e <LCD_Commands>
	LCD_Write_String("Right pass ......");
    414e:	86 ec       	ldi	r24, 0xC6	; 198
    4150:	90 e0       	ldi	r25, 0x00	; 0
    4152:	0e 94 2d 18 	call	0x305a	; 0x305a <LCD_Write_String>
	Lcd_Clear();
    4156:	0e 94 56 18 	call	0x30ac	; 0x30ac <Lcd_Clear>
	return ZERO ;
    415a:	80 e0       	ldi	r24, 0x00	; 0
}
    415c:	6c 96       	adiw	r28, 0x1c	; 28
    415e:	0f b6       	in	r0, 0x3f	; 63
    4160:	f8 94       	cli
    4162:	de bf       	out	0x3e, r29	; 62
    4164:	0f be       	out	0x3f, r0	; 63
    4166:	cd bf       	out	0x3d, r28	; 61
    4168:	cf 91       	pop	r28
    416a:	df 91       	pop	r29
    416c:	08 95       	ret

0000416e <Wrong_PASS>:
/**
 * @brief function to count the wrong input max counter 3
 * @return ZERO
 */
uint8 Wrong_PASS(void)
{
    416e:	df 93       	push	r29
    4170:	cf 93       	push	r28
    4172:	cd b7       	in	r28, 0x3d	; 61
    4174:	de b7       	in	r29, 0x3e	; 62
    4176:	2e 97       	sbiw	r28, 0x0e	; 14
    4178:	0f b6       	in	r0, 0x3f	; 63
    417a:	f8 94       	cli
    417c:	de bf       	out	0x3e, r29	; 62
    417e:	0f be       	out	0x3f, r0	; 63
    4180:	cd bf       	out	0x3d, r28	; 61
	Counter++;
    4182:	80 91 19 01 	lds	r24, 0x0119
    4186:	8f 5f       	subi	r24, 0xFF	; 255
    4188:	80 93 19 01 	sts	0x0119, r24
	SpetialSeven7(Counter);
    418c:	80 91 19 01 	lds	r24, 0x0119
    4190:	0e 94 3f 11 	call	0x227e	; 0x227e <SpetialSeven7>
	LCD_Commands(0X80);
    4194:	80 e8       	ldi	r24, 0x80	; 128
    4196:	0e 94 a7 14 	call	0x294e	; 0x294e <LCD_Commands>
	LCD_Write_String("Wrong PASS ");
    419a:	88 ed       	ldi	r24, 0xD8	; 216
    419c:	90 e0       	ldi	r25, 0x00	; 0
    419e:	0e 94 2d 18 	call	0x305a	; 0x305a <LCD_Write_String>
	LCD_Commands(0XC0);
    41a2:	80 ec       	ldi	r24, 0xC0	; 192
    41a4:	0e 94 a7 14 	call	0x294e	; 0x294e <LCD_Commands>
	LCD_Write_String("TRY AGAIN ");
    41a8:	84 ee       	ldi	r24, 0xE4	; 228
    41aa:	90 e0       	ldi	r25, 0x00	; 0
    41ac:	0e 94 2d 18 	call	0x305a	; 0x305a <LCD_Write_String>
    41b0:	80 e0       	ldi	r24, 0x00	; 0
    41b2:	90 e0       	ldi	r25, 0x00	; 0
    41b4:	af e2       	ldi	r26, 0x2F	; 47
    41b6:	b4 e4       	ldi	r27, 0x44	; 68
    41b8:	8b 87       	std	Y+11, r24	; 0x0b
    41ba:	9c 87       	std	Y+12, r25	; 0x0c
    41bc:	ad 87       	std	Y+13, r26	; 0x0d
    41be:	be 87       	std	Y+14, r27	; 0x0e
 */
void
_delay_ms(double __ms)
{
	uint16_t __ticks;
	double __tmp = ((F_CPU) / 4e3) * __ms;
    41c0:	6b 85       	ldd	r22, Y+11	; 0x0b
    41c2:	7c 85       	ldd	r23, Y+12	; 0x0c
    41c4:	8d 85       	ldd	r24, Y+13	; 0x0d
    41c6:	9e 85       	ldd	r25, Y+14	; 0x0e
    41c8:	20 e0       	ldi	r18, 0x00	; 0
    41ca:	30 e0       	ldi	r19, 0x00	; 0
    41cc:	4a ef       	ldi	r20, 0xFA	; 250
    41ce:	54 e4       	ldi	r21, 0x44	; 68
    41d0:	0e 94 1f 02 	call	0x43e	; 0x43e <__mulsf3>
    41d4:	dc 01       	movw	r26, r24
    41d6:	cb 01       	movw	r24, r22
    41d8:	8f 83       	std	Y+7, r24	; 0x07
    41da:	98 87       	std	Y+8, r25	; 0x08
    41dc:	a9 87       	std	Y+9, r26	; 0x09
    41de:	ba 87       	std	Y+10, r27	; 0x0a
	if (__tmp < 1.0)
    41e0:	6f 81       	ldd	r22, Y+7	; 0x07
    41e2:	78 85       	ldd	r23, Y+8	; 0x08
    41e4:	89 85       	ldd	r24, Y+9	; 0x09
    41e6:	9a 85       	ldd	r25, Y+10	; 0x0a
    41e8:	20 e0       	ldi	r18, 0x00	; 0
    41ea:	30 e0       	ldi	r19, 0x00	; 0
    41ec:	40 e8       	ldi	r20, 0x80	; 128
    41ee:	5f e3       	ldi	r21, 0x3F	; 63
    41f0:	0e 94 79 03 	call	0x6f2	; 0x6f2 <__ltsf2>
    41f4:	88 23       	and	r24, r24
    41f6:	2c f4       	brge	.+10     	; 0x4202 <Wrong_PASS+0x94>
		__ticks = 1;
    41f8:	81 e0       	ldi	r24, 0x01	; 1
    41fa:	90 e0       	ldi	r25, 0x00	; 0
    41fc:	9e 83       	std	Y+6, r25	; 0x06
    41fe:	8d 83       	std	Y+5, r24	; 0x05
    4200:	3f c0       	rjmp	.+126    	; 0x4280 <Wrong_PASS+0x112>
	else if (__tmp > 65535)
    4202:	6f 81       	ldd	r22, Y+7	; 0x07
    4204:	78 85       	ldd	r23, Y+8	; 0x08
    4206:	89 85       	ldd	r24, Y+9	; 0x09
    4208:	9a 85       	ldd	r25, Y+10	; 0x0a
    420a:	20 e0       	ldi	r18, 0x00	; 0
    420c:	3f ef       	ldi	r19, 0xFF	; 255
    420e:	4f e7       	ldi	r20, 0x7F	; 127
    4210:	57 e4       	ldi	r21, 0x47	; 71
    4212:	0e 94 19 03 	call	0x632	; 0x632 <__gtsf2>
    4216:	18 16       	cp	r1, r24
    4218:	4c f5       	brge	.+82     	; 0x426c <Wrong_PASS+0xfe>
	{
		//	__ticks = requested delay in 1/10 ms
		__ticks = (uint16_t) (__ms * 10.0);
    421a:	6b 85       	ldd	r22, Y+11	; 0x0b
    421c:	7c 85       	ldd	r23, Y+12	; 0x0c
    421e:	8d 85       	ldd	r24, Y+13	; 0x0d
    4220:	9e 85       	ldd	r25, Y+14	; 0x0e
    4222:	20 e0       	ldi	r18, 0x00	; 0
    4224:	30 e0       	ldi	r19, 0x00	; 0
    4226:	40 e2       	ldi	r20, 0x20	; 32
    4228:	51 e4       	ldi	r21, 0x41	; 65
    422a:	0e 94 1f 02 	call	0x43e	; 0x43e <__mulsf3>
    422e:	dc 01       	movw	r26, r24
    4230:	cb 01       	movw	r24, r22
    4232:	bc 01       	movw	r22, r24
    4234:	cd 01       	movw	r24, r26
    4236:	0e 94 49 00 	call	0x92	; 0x92 <__fixunssfsi>
    423a:	dc 01       	movw	r26, r24
    423c:	cb 01       	movw	r24, r22
    423e:	9e 83       	std	Y+6, r25	; 0x06
    4240:	8d 83       	std	Y+5, r24	; 0x05
    4242:	0f c0       	rjmp	.+30     	; 0x4262 <Wrong_PASS+0xf4>
    4244:	88 ec       	ldi	r24, 0xC8	; 200
    4246:	90 e0       	ldi	r25, 0x00	; 0
    4248:	9c 83       	std	Y+4, r25	; 0x04
    424a:	8b 83       	std	Y+3, r24	; 0x03
    424c:	8b 81       	ldd	r24, Y+3	; 0x03
    424e:	9c 81       	ldd	r25, Y+4	; 0x04
    4250:	01 97       	sbiw	r24, 0x01	; 1
    4252:	f1 f7       	brne	.-4      	; 0x4250 <Wrong_PASS+0xe2>
    4254:	9c 83       	std	Y+4, r25	; 0x04
    4256:	8b 83       	std	Y+3, r24	; 0x03
		while(__ticks)
		{
			// wait 1/10 ms
			_delay_loop_2(((F_CPU) / 4e3) / 10);
			__ticks --;
    4258:	8d 81       	ldd	r24, Y+5	; 0x05
    425a:	9e 81       	ldd	r25, Y+6	; 0x06
    425c:	01 97       	sbiw	r24, 0x01	; 1
    425e:	9e 83       	std	Y+6, r25	; 0x06
    4260:	8d 83       	std	Y+5, r24	; 0x05
		__ticks = 1;
	else if (__tmp > 65535)
	{
		//	__ticks = requested delay in 1/10 ms
		__ticks = (uint16_t) (__ms * 10.0);
		while(__ticks)
    4262:	8d 81       	ldd	r24, Y+5	; 0x05
    4264:	9e 81       	ldd	r25, Y+6	; 0x06
    4266:	00 97       	sbiw	r24, 0x00	; 0
    4268:	69 f7       	brne	.-38     	; 0x4244 <Wrong_PASS+0xd6>
    426a:	14 c0       	rjmp	.+40     	; 0x4294 <Wrong_PASS+0x126>
			__ticks --;
		}
		return;
	}
	else
		__ticks = (uint16_t)__tmp;
    426c:	6f 81       	ldd	r22, Y+7	; 0x07
    426e:	78 85       	ldd	r23, Y+8	; 0x08
    4270:	89 85       	ldd	r24, Y+9	; 0x09
    4272:	9a 85       	ldd	r25, Y+10	; 0x0a
    4274:	0e 94 49 00 	call	0x92	; 0x92 <__fixunssfsi>
    4278:	dc 01       	movw	r26, r24
    427a:	cb 01       	movw	r24, r22
    427c:	9e 83       	std	Y+6, r25	; 0x06
    427e:	8d 83       	std	Y+5, r24	; 0x05
    4280:	8d 81       	ldd	r24, Y+5	; 0x05
    4282:	9e 81       	ldd	r25, Y+6	; 0x06
    4284:	9a 83       	std	Y+2, r25	; 0x02
    4286:	89 83       	std	Y+1, r24	; 0x01
    4288:	89 81       	ldd	r24, Y+1	; 0x01
    428a:	9a 81       	ldd	r25, Y+2	; 0x02
    428c:	01 97       	sbiw	r24, 0x01	; 1
    428e:	f1 f7       	brne	.-4      	; 0x428c <Wrong_PASS+0x11e>
    4290:	9a 83       	std	Y+2, r25	; 0x02
    4292:	89 83       	std	Y+1, r24	; 0x01

	_delay_ms(700);

	Lcd_Clear();
    4294:	0e 94 56 18 	call	0x30ac	; 0x30ac <Lcd_Clear>

	LCD_Commands(0X80);
    4298:	80 e8       	ldi	r24, 0x80	; 128
    429a:	0e 94 a7 14 	call	0x294e	; 0x294e <LCD_Commands>
	LCD_Write_String("Enter your PASS");
    429e:	8c e7       	ldi	r24, 0x7C	; 124
    42a0:	90 e0       	ldi	r25, 0x00	; 0
    42a2:	0e 94 2d 18 	call	0x305a	; 0x305a <LCD_Write_String>
	return ZERO ;
    42a6:	80 e0       	ldi	r24, 0x00	; 0
}
    42a8:	2e 96       	adiw	r28, 0x0e	; 14
    42aa:	0f b6       	in	r0, 0x3f	; 63
    42ac:	f8 94       	cli
    42ae:	de bf       	out	0x3e, r29	; 62
    42b0:	0f be       	out	0x3f, r0	; 63
    42b2:	cd bf       	out	0x3d, r28	; 61
    42b4:	cf 91       	pop	r28
    42b6:	df 91       	pop	r29
    42b8:	08 95       	ret

000042ba <Function_EntryNumber>:
 * @param SUM
 * @param PASS
 */

void Function_EntryNumber(uint8 *SUM, uint8 *PASS)
{
    42ba:	df 93       	push	r29
    42bc:	cf 93       	push	r28
    42be:	cd b7       	in	r28, 0x3d	; 61
    42c0:	de b7       	in	r29, 0x3e	; 62
    42c2:	63 97       	sbiw	r28, 0x13	; 19
    42c4:	0f b6       	in	r0, 0x3f	; 63
    42c6:	f8 94       	cli
    42c8:	de bf       	out	0x3e, r29	; 62
    42ca:	0f be       	out	0x3f, r0	; 63
    42cc:	cd bf       	out	0x3d, r28	; 61
    42ce:	99 8b       	std	Y+17, r25	; 0x11
    42d0:	88 8b       	std	Y+16, r24	; 0x10
    42d2:	7b 8b       	std	Y+19, r23	; 0x13
    42d4:	6a 8b       	std	Y+18, r22	; 0x12
	for(uint8 i=0 ; i<3 ; i++)
    42d6:	1f 86       	std	Y+15, r1	; 0x0f
    42d8:	a2 c0       	rjmp	.+324    	; 0x441e <Function_EntryNumber+0x164>
	{
		*PASS = KEYBAD_ReturnData() ;  /* Keybad return value in PASS */
    42da:	0e 94 15 1b 	call	0x362a	; 0x362a <KEYBAD_ReturnData>
    42de:	ea 89       	ldd	r30, Y+18	; 0x12
    42e0:	fb 89       	ldd	r31, Y+19	; 0x13
    42e2:	80 83       	st	Z, r24
    42e4:	80 e0       	ldi	r24, 0x00	; 0
    42e6:	90 e0       	ldi	r25, 0x00	; 0
    42e8:	aa e7       	ldi	r26, 0x7A	; 122
    42ea:	b3 e4       	ldi	r27, 0x43	; 67
    42ec:	8b 87       	std	Y+11, r24	; 0x0b
    42ee:	9c 87       	std	Y+12, r25	; 0x0c
    42f0:	ad 87       	std	Y+13, r26	; 0x0d
    42f2:	be 87       	std	Y+14, r27	; 0x0e
 */
void
_delay_ms(double __ms)
{
	uint16_t __ticks;
	double __tmp = ((F_CPU) / 4e3) * __ms;
    42f4:	6b 85       	ldd	r22, Y+11	; 0x0b
    42f6:	7c 85       	ldd	r23, Y+12	; 0x0c
    42f8:	8d 85       	ldd	r24, Y+13	; 0x0d
    42fa:	9e 85       	ldd	r25, Y+14	; 0x0e
    42fc:	20 e0       	ldi	r18, 0x00	; 0
    42fe:	30 e0       	ldi	r19, 0x00	; 0
    4300:	4a ef       	ldi	r20, 0xFA	; 250
    4302:	54 e4       	ldi	r21, 0x44	; 68
    4304:	0e 94 1f 02 	call	0x43e	; 0x43e <__mulsf3>
    4308:	dc 01       	movw	r26, r24
    430a:	cb 01       	movw	r24, r22
    430c:	8f 83       	std	Y+7, r24	; 0x07
    430e:	98 87       	std	Y+8, r25	; 0x08
    4310:	a9 87       	std	Y+9, r26	; 0x09
    4312:	ba 87       	std	Y+10, r27	; 0x0a
	if (__tmp < 1.0)
    4314:	6f 81       	ldd	r22, Y+7	; 0x07
    4316:	78 85       	ldd	r23, Y+8	; 0x08
    4318:	89 85       	ldd	r24, Y+9	; 0x09
    431a:	9a 85       	ldd	r25, Y+10	; 0x0a
    431c:	20 e0       	ldi	r18, 0x00	; 0
    431e:	30 e0       	ldi	r19, 0x00	; 0
    4320:	40 e8       	ldi	r20, 0x80	; 128
    4322:	5f e3       	ldi	r21, 0x3F	; 63
    4324:	0e 94 79 03 	call	0x6f2	; 0x6f2 <__ltsf2>
    4328:	88 23       	and	r24, r24
    432a:	2c f4       	brge	.+10     	; 0x4336 <Function_EntryNumber+0x7c>
		__ticks = 1;
    432c:	81 e0       	ldi	r24, 0x01	; 1
    432e:	90 e0       	ldi	r25, 0x00	; 0
    4330:	9e 83       	std	Y+6, r25	; 0x06
    4332:	8d 83       	std	Y+5, r24	; 0x05
    4334:	3f c0       	rjmp	.+126    	; 0x43b4 <Function_EntryNumber+0xfa>
	else if (__tmp > 65535)
    4336:	6f 81       	ldd	r22, Y+7	; 0x07
    4338:	78 85       	ldd	r23, Y+8	; 0x08
    433a:	89 85       	ldd	r24, Y+9	; 0x09
    433c:	9a 85       	ldd	r25, Y+10	; 0x0a
    433e:	20 e0       	ldi	r18, 0x00	; 0
    4340:	3f ef       	ldi	r19, 0xFF	; 255
    4342:	4f e7       	ldi	r20, 0x7F	; 127
    4344:	57 e4       	ldi	r21, 0x47	; 71
    4346:	0e 94 19 03 	call	0x632	; 0x632 <__gtsf2>
    434a:	18 16       	cp	r1, r24
    434c:	4c f5       	brge	.+82     	; 0x43a0 <Function_EntryNumber+0xe6>
	{
		//	__ticks = requested delay in 1/10 ms
		__ticks = (uint16_t) (__ms * 10.0);
    434e:	6b 85       	ldd	r22, Y+11	; 0x0b
    4350:	7c 85       	ldd	r23, Y+12	; 0x0c
    4352:	8d 85       	ldd	r24, Y+13	; 0x0d
    4354:	9e 85       	ldd	r25, Y+14	; 0x0e
    4356:	20 e0       	ldi	r18, 0x00	; 0
    4358:	30 e0       	ldi	r19, 0x00	; 0
    435a:	40 e2       	ldi	r20, 0x20	; 32
    435c:	51 e4       	ldi	r21, 0x41	; 65
    435e:	0e 94 1f 02 	call	0x43e	; 0x43e <__mulsf3>
    4362:	dc 01       	movw	r26, r24
    4364:	cb 01       	movw	r24, r22
    4366:	bc 01       	movw	r22, r24
    4368:	cd 01       	movw	r24, r26
    436a:	0e 94 49 00 	call	0x92	; 0x92 <__fixunssfsi>
    436e:	dc 01       	movw	r26, r24
    4370:	cb 01       	movw	r24, r22
    4372:	9e 83       	std	Y+6, r25	; 0x06
    4374:	8d 83       	std	Y+5, r24	; 0x05
    4376:	0f c0       	rjmp	.+30     	; 0x4396 <Function_EntryNumber+0xdc>
    4378:	88 ec       	ldi	r24, 0xC8	; 200
    437a:	90 e0       	ldi	r25, 0x00	; 0
    437c:	9c 83       	std	Y+4, r25	; 0x04
    437e:	8b 83       	std	Y+3, r24	; 0x03
    4380:	8b 81       	ldd	r24, Y+3	; 0x03
    4382:	9c 81       	ldd	r25, Y+4	; 0x04
    4384:	01 97       	sbiw	r24, 0x01	; 1
    4386:	f1 f7       	brne	.-4      	; 0x4384 <Function_EntryNumber+0xca>
    4388:	9c 83       	std	Y+4, r25	; 0x04
    438a:	8b 83       	std	Y+3, r24	; 0x03
		while(__ticks)
		{
			// wait 1/10 ms
			_delay_loop_2(((F_CPU) / 4e3) / 10);
			__ticks --;
    438c:	8d 81       	ldd	r24, Y+5	; 0x05
    438e:	9e 81       	ldd	r25, Y+6	; 0x06
    4390:	01 97       	sbiw	r24, 0x01	; 1
    4392:	9e 83       	std	Y+6, r25	; 0x06
    4394:	8d 83       	std	Y+5, r24	; 0x05
		__ticks = 1;
	else if (__tmp > 65535)
	{
		//	__ticks = requested delay in 1/10 ms
		__ticks = (uint16_t) (__ms * 10.0);
		while(__ticks)
    4396:	8d 81       	ldd	r24, Y+5	; 0x05
    4398:	9e 81       	ldd	r25, Y+6	; 0x06
    439a:	00 97       	sbiw	r24, 0x00	; 0
    439c:	69 f7       	brne	.-38     	; 0x4378 <Function_EntryNumber+0xbe>
    439e:	14 c0       	rjmp	.+40     	; 0x43c8 <Function_EntryNumber+0x10e>
			__ticks --;
		}
		return;
	}
	else
		__ticks = (uint16_t)__tmp;
    43a0:	6f 81       	ldd	r22, Y+7	; 0x07
    43a2:	78 85       	ldd	r23, Y+8	; 0x08
    43a4:	89 85       	ldd	r24, Y+9	; 0x09
    43a6:	9a 85       	ldd	r25, Y+10	; 0x0a
    43a8:	0e 94 49 00 	call	0x92	; 0x92 <__fixunssfsi>
    43ac:	dc 01       	movw	r26, r24
    43ae:	cb 01       	movw	r24, r22
    43b0:	9e 83       	std	Y+6, r25	; 0x06
    43b2:	8d 83       	std	Y+5, r24	; 0x05
    43b4:	8d 81       	ldd	r24, Y+5	; 0x05
    43b6:	9e 81       	ldd	r25, Y+6	; 0x06
    43b8:	9a 83       	std	Y+2, r25	; 0x02
    43ba:	89 83       	std	Y+1, r24	; 0x01
    43bc:	89 81       	ldd	r24, Y+1	; 0x01
    43be:	9a 81       	ldd	r25, Y+2	; 0x02
    43c0:	01 97       	sbiw	r24, 0x01	; 1
    43c2:	f1 f7       	brne	.-4      	; 0x43c0 <Function_EntryNumber+0x106>
    43c4:	9a 83       	std	Y+2, r25	; 0x02
    43c6:	89 83       	std	Y+1, r24	; 0x01
		_delay_ms(250);
		//CLCD_voidWriteNumber(PASS);
		LCD_Write_String("*");
    43c8:	8c e8       	ldi	r24, 0x8C	; 140
    43ca:	90 e0       	ldi	r25, 0x00	; 0
    43cc:	0e 94 2d 18 	call	0x305a	; 0x305a <LCD_Write_String>
		if(*PASS>=0 && *PASS<=9)       /* Should password digit between 0 to 9 */
    43d0:	ea 89       	ldd	r30, Y+18	; 0x12
    43d2:	fb 89       	ldd	r31, Y+19	; 0x13
    43d4:	80 81       	ld	r24, Z
    43d6:	8a 30       	cpi	r24, 0x0A	; 10
    43d8:	c0 f4       	brcc	.+48     	; 0x440a <Function_EntryNumber+0x150>
		{
			*SUM = (*SUM)*10 + *PASS;  /* Equation to change from 4 digit to one number and stor it in SUM */
    43da:	e8 89       	ldd	r30, Y+16	; 0x10
    43dc:	f9 89       	ldd	r31, Y+17	; 0x11
    43de:	80 81       	ld	r24, Z
    43e0:	88 2f       	mov	r24, r24
    43e2:	90 e0       	ldi	r25, 0x00	; 0
    43e4:	9c 01       	movw	r18, r24
    43e6:	22 0f       	add	r18, r18
    43e8:	33 1f       	adc	r19, r19
    43ea:	c9 01       	movw	r24, r18
    43ec:	88 0f       	add	r24, r24
    43ee:	99 1f       	adc	r25, r25
    43f0:	88 0f       	add	r24, r24
    43f2:	99 1f       	adc	r25, r25
    43f4:	82 0f       	add	r24, r18
    43f6:	93 1f       	adc	r25, r19
    43f8:	98 2f       	mov	r25, r24
    43fa:	ea 89       	ldd	r30, Y+18	; 0x12
    43fc:	fb 89       	ldd	r31, Y+19	; 0x13
    43fe:	80 81       	ld	r24, Z
    4400:	89 0f       	add	r24, r25
    4402:	e8 89       	ldd	r30, Y+16	; 0x10
    4404:	f9 89       	ldd	r31, Y+17	; 0x11
    4406:	80 83       	st	Z, r24
    4408:	07 c0       	rjmp	.+14     	; 0x4418 <Function_EntryNumber+0x15e>
		}
		else
		{
			LCD_Commands(0X80);
    440a:	80 e8       	ldi	r24, 0x80	; 128
    440c:	0e 94 a7 14 	call	0x294e	; 0x294e <LCD_Commands>
			LCD_Write_String("Your Input Is Wrong");
    4410:	8f ee       	ldi	r24, 0xEF	; 239
    4412:	90 e0       	ldi	r25, 0x00	; 0
    4414:	0e 94 2d 18 	call	0x305a	; 0x305a <LCD_Write_String>
 * @param PASS
 */

void Function_EntryNumber(uint8 *SUM, uint8 *PASS)
{
	for(uint8 i=0 ; i<3 ; i++)
    4418:	8f 85       	ldd	r24, Y+15	; 0x0f
    441a:	8f 5f       	subi	r24, 0xFF	; 255
    441c:	8f 87       	std	Y+15, r24	; 0x0f
    441e:	8f 85       	ldd	r24, Y+15	; 0x0f
    4420:	83 30       	cpi	r24, 0x03	; 3
    4422:	08 f4       	brcc	.+2      	; 0x4426 <Function_EntryNumber+0x16c>
    4424:	5a cf       	rjmp	.-332    	; 0x42da <Function_EntryNumber+0x20>
		{
			LCD_Commands(0X80);
			LCD_Write_String("Your Input Is Wrong");
		}
	}
}
    4426:	63 96       	adiw	r28, 0x13	; 19
    4428:	0f b6       	in	r0, 0x3f	; 63
    442a:	f8 94       	cli
    442c:	de bf       	out	0x3e, r29	; 62
    442e:	0f be       	out	0x3f, r0	; 63
    4430:	cd bf       	out	0x3d, r28	; 61
    4432:	cf 91       	pop	r28
    4434:	df 91       	pop	r29
    4436:	08 95       	ret

00004438 <Function_EntryNumber2>:
 *        because user inter one digit in first code
 * @param SUM
 * @param PASS
 */
void Function_EntryNumber2(uint8 *SUM, uint8 *PASS)
{
    4438:	df 93       	push	r29
    443a:	cf 93       	push	r28
    443c:	cd b7       	in	r28, 0x3d	; 61
    443e:	de b7       	in	r29, 0x3e	; 62
    4440:	63 97       	sbiw	r28, 0x13	; 19
    4442:	0f b6       	in	r0, 0x3f	; 63
    4444:	f8 94       	cli
    4446:	de bf       	out	0x3e, r29	; 62
    4448:	0f be       	out	0x3f, r0	; 63
    444a:	cd bf       	out	0x3d, r28	; 61
    444c:	99 8b       	std	Y+17, r25	; 0x11
    444e:	88 8b       	std	Y+16, r24	; 0x10
    4450:	7b 8b       	std	Y+19, r23	; 0x13
    4452:	6a 8b       	std	Y+18, r22	; 0x12
	for(uint8 i=0 ; i<2 ; i++)
    4454:	1f 86       	std	Y+15, r1	; 0x0f
    4456:	a2 c0       	rjmp	.+324    	; 0x459c <Function_EntryNumber2+0x164>
	{
		*PASS = KEYBAD_ReturnData() ;  /* Keybad return value in PASS */
    4458:	0e 94 15 1b 	call	0x362a	; 0x362a <KEYBAD_ReturnData>
    445c:	ea 89       	ldd	r30, Y+18	; 0x12
    445e:	fb 89       	ldd	r31, Y+19	; 0x13
    4460:	80 83       	st	Z, r24
    4462:	80 e0       	ldi	r24, 0x00	; 0
    4464:	90 e0       	ldi	r25, 0x00	; 0
    4466:	aa e7       	ldi	r26, 0x7A	; 122
    4468:	b3 e4       	ldi	r27, 0x43	; 67
    446a:	8b 87       	std	Y+11, r24	; 0x0b
    446c:	9c 87       	std	Y+12, r25	; 0x0c
    446e:	ad 87       	std	Y+13, r26	; 0x0d
    4470:	be 87       	std	Y+14, r27	; 0x0e
 */
void
_delay_ms(double __ms)
{
	uint16_t __ticks;
	double __tmp = ((F_CPU) / 4e3) * __ms;
    4472:	6b 85       	ldd	r22, Y+11	; 0x0b
    4474:	7c 85       	ldd	r23, Y+12	; 0x0c
    4476:	8d 85       	ldd	r24, Y+13	; 0x0d
    4478:	9e 85       	ldd	r25, Y+14	; 0x0e
    447a:	20 e0       	ldi	r18, 0x00	; 0
    447c:	30 e0       	ldi	r19, 0x00	; 0
    447e:	4a ef       	ldi	r20, 0xFA	; 250
    4480:	54 e4       	ldi	r21, 0x44	; 68
    4482:	0e 94 1f 02 	call	0x43e	; 0x43e <__mulsf3>
    4486:	dc 01       	movw	r26, r24
    4488:	cb 01       	movw	r24, r22
    448a:	8f 83       	std	Y+7, r24	; 0x07
    448c:	98 87       	std	Y+8, r25	; 0x08
    448e:	a9 87       	std	Y+9, r26	; 0x09
    4490:	ba 87       	std	Y+10, r27	; 0x0a
	if (__tmp < 1.0)
    4492:	6f 81       	ldd	r22, Y+7	; 0x07
    4494:	78 85       	ldd	r23, Y+8	; 0x08
    4496:	89 85       	ldd	r24, Y+9	; 0x09
    4498:	9a 85       	ldd	r25, Y+10	; 0x0a
    449a:	20 e0       	ldi	r18, 0x00	; 0
    449c:	30 e0       	ldi	r19, 0x00	; 0
    449e:	40 e8       	ldi	r20, 0x80	; 128
    44a0:	5f e3       	ldi	r21, 0x3F	; 63
    44a2:	0e 94 79 03 	call	0x6f2	; 0x6f2 <__ltsf2>
    44a6:	88 23       	and	r24, r24
    44a8:	2c f4       	brge	.+10     	; 0x44b4 <Function_EntryNumber2+0x7c>
		__ticks = 1;
    44aa:	81 e0       	ldi	r24, 0x01	; 1
    44ac:	90 e0       	ldi	r25, 0x00	; 0
    44ae:	9e 83       	std	Y+6, r25	; 0x06
    44b0:	8d 83       	std	Y+5, r24	; 0x05
    44b2:	3f c0       	rjmp	.+126    	; 0x4532 <Function_EntryNumber2+0xfa>
	else if (__tmp > 65535)
    44b4:	6f 81       	ldd	r22, Y+7	; 0x07
    44b6:	78 85       	ldd	r23, Y+8	; 0x08
    44b8:	89 85       	ldd	r24, Y+9	; 0x09
    44ba:	9a 85       	ldd	r25, Y+10	; 0x0a
    44bc:	20 e0       	ldi	r18, 0x00	; 0
    44be:	3f ef       	ldi	r19, 0xFF	; 255
    44c0:	4f e7       	ldi	r20, 0x7F	; 127
    44c2:	57 e4       	ldi	r21, 0x47	; 71
    44c4:	0e 94 19 03 	call	0x632	; 0x632 <__gtsf2>
    44c8:	18 16       	cp	r1, r24
    44ca:	4c f5       	brge	.+82     	; 0x451e <Function_EntryNumber2+0xe6>
	{
		//	__ticks = requested delay in 1/10 ms
		__ticks = (uint16_t) (__ms * 10.0);
    44cc:	6b 85       	ldd	r22, Y+11	; 0x0b
    44ce:	7c 85       	ldd	r23, Y+12	; 0x0c
    44d0:	8d 85       	ldd	r24, Y+13	; 0x0d
    44d2:	9e 85       	ldd	r25, Y+14	; 0x0e
    44d4:	20 e0       	ldi	r18, 0x00	; 0
    44d6:	30 e0       	ldi	r19, 0x00	; 0
    44d8:	40 e2       	ldi	r20, 0x20	; 32
    44da:	51 e4       	ldi	r21, 0x41	; 65
    44dc:	0e 94 1f 02 	call	0x43e	; 0x43e <__mulsf3>
    44e0:	dc 01       	movw	r26, r24
    44e2:	cb 01       	movw	r24, r22
    44e4:	bc 01       	movw	r22, r24
    44e6:	cd 01       	movw	r24, r26
    44e8:	0e 94 49 00 	call	0x92	; 0x92 <__fixunssfsi>
    44ec:	dc 01       	movw	r26, r24
    44ee:	cb 01       	movw	r24, r22
    44f0:	9e 83       	std	Y+6, r25	; 0x06
    44f2:	8d 83       	std	Y+5, r24	; 0x05
    44f4:	0f c0       	rjmp	.+30     	; 0x4514 <Function_EntryNumber2+0xdc>
    44f6:	88 ec       	ldi	r24, 0xC8	; 200
    44f8:	90 e0       	ldi	r25, 0x00	; 0
    44fa:	9c 83       	std	Y+4, r25	; 0x04
    44fc:	8b 83       	std	Y+3, r24	; 0x03
    44fe:	8b 81       	ldd	r24, Y+3	; 0x03
    4500:	9c 81       	ldd	r25, Y+4	; 0x04
    4502:	01 97       	sbiw	r24, 0x01	; 1
    4504:	f1 f7       	brne	.-4      	; 0x4502 <Function_EntryNumber2+0xca>
    4506:	9c 83       	std	Y+4, r25	; 0x04
    4508:	8b 83       	std	Y+3, r24	; 0x03
		while(__ticks)
		{
			// wait 1/10 ms
			_delay_loop_2(((F_CPU) / 4e3) / 10);
			__ticks --;
    450a:	8d 81       	ldd	r24, Y+5	; 0x05
    450c:	9e 81       	ldd	r25, Y+6	; 0x06
    450e:	01 97       	sbiw	r24, 0x01	; 1
    4510:	9e 83       	std	Y+6, r25	; 0x06
    4512:	8d 83       	std	Y+5, r24	; 0x05
		__ticks = 1;
	else if (__tmp > 65535)
	{
		//	__ticks = requested delay in 1/10 ms
		__ticks = (uint16_t) (__ms * 10.0);
		while(__ticks)
    4514:	8d 81       	ldd	r24, Y+5	; 0x05
    4516:	9e 81       	ldd	r25, Y+6	; 0x06
    4518:	00 97       	sbiw	r24, 0x00	; 0
    451a:	69 f7       	brne	.-38     	; 0x44f6 <Function_EntryNumber2+0xbe>
    451c:	14 c0       	rjmp	.+40     	; 0x4546 <Function_EntryNumber2+0x10e>
			__ticks --;
		}
		return;
	}
	else
		__ticks = (uint16_t)__tmp;
    451e:	6f 81       	ldd	r22, Y+7	; 0x07
    4520:	78 85       	ldd	r23, Y+8	; 0x08
    4522:	89 85       	ldd	r24, Y+9	; 0x09
    4524:	9a 85       	ldd	r25, Y+10	; 0x0a
    4526:	0e 94 49 00 	call	0x92	; 0x92 <__fixunssfsi>
    452a:	dc 01       	movw	r26, r24
    452c:	cb 01       	movw	r24, r22
    452e:	9e 83       	std	Y+6, r25	; 0x06
    4530:	8d 83       	std	Y+5, r24	; 0x05
    4532:	8d 81       	ldd	r24, Y+5	; 0x05
    4534:	9e 81       	ldd	r25, Y+6	; 0x06
    4536:	9a 83       	std	Y+2, r25	; 0x02
    4538:	89 83       	std	Y+1, r24	; 0x01
    453a:	89 81       	ldd	r24, Y+1	; 0x01
    453c:	9a 81       	ldd	r25, Y+2	; 0x02
    453e:	01 97       	sbiw	r24, 0x01	; 1
    4540:	f1 f7       	brne	.-4      	; 0x453e <Function_EntryNumber2+0x106>
    4542:	9a 83       	std	Y+2, r25	; 0x02
    4544:	89 83       	std	Y+1, r24	; 0x01
		_delay_ms(250);
		//CLCD_voidWriteNumber(PASS);
		LCD_Write_String("*");
    4546:	8c e8       	ldi	r24, 0x8C	; 140
    4548:	90 e0       	ldi	r25, 0x00	; 0
    454a:	0e 94 2d 18 	call	0x305a	; 0x305a <LCD_Write_String>
		if(*PASS>=0 && *PASS<=9)       /* Should password digit between 0 to 9 */
    454e:	ea 89       	ldd	r30, Y+18	; 0x12
    4550:	fb 89       	ldd	r31, Y+19	; 0x13
    4552:	80 81       	ld	r24, Z
    4554:	8a 30       	cpi	r24, 0x0A	; 10
    4556:	c0 f4       	brcc	.+48     	; 0x4588 <Function_EntryNumber2+0x150>
		{
			*SUM = (*SUM)*10 + *PASS;  /* Equation to change from 4 digit to one number and stor it in SUM */
    4558:	e8 89       	ldd	r30, Y+16	; 0x10
    455a:	f9 89       	ldd	r31, Y+17	; 0x11
    455c:	80 81       	ld	r24, Z
    455e:	88 2f       	mov	r24, r24
    4560:	90 e0       	ldi	r25, 0x00	; 0
    4562:	9c 01       	movw	r18, r24
    4564:	22 0f       	add	r18, r18
    4566:	33 1f       	adc	r19, r19
    4568:	c9 01       	movw	r24, r18
    456a:	88 0f       	add	r24, r24
    456c:	99 1f       	adc	r25, r25
    456e:	88 0f       	add	r24, r24
    4570:	99 1f       	adc	r25, r25
    4572:	82 0f       	add	r24, r18
    4574:	93 1f       	adc	r25, r19
    4576:	98 2f       	mov	r25, r24
    4578:	ea 89       	ldd	r30, Y+18	; 0x12
    457a:	fb 89       	ldd	r31, Y+19	; 0x13
    457c:	80 81       	ld	r24, Z
    457e:	89 0f       	add	r24, r25
    4580:	e8 89       	ldd	r30, Y+16	; 0x10
    4582:	f9 89       	ldd	r31, Y+17	; 0x11
    4584:	80 83       	st	Z, r24
    4586:	07 c0       	rjmp	.+14     	; 0x4596 <Function_EntryNumber2+0x15e>
		}
		else
		{
			LCD_Commands(0X80);
    4588:	80 e8       	ldi	r24, 0x80	; 128
    458a:	0e 94 a7 14 	call	0x294e	; 0x294e <LCD_Commands>
			LCD_Write_String("Your Input Is Wrong");
    458e:	8f ee       	ldi	r24, 0xEF	; 239
    4590:	90 e0       	ldi	r25, 0x00	; 0
    4592:	0e 94 2d 18 	call	0x305a	; 0x305a <LCD_Write_String>
 * @param SUM
 * @param PASS
 */
void Function_EntryNumber2(uint8 *SUM, uint8 *PASS)
{
	for(uint8 i=0 ; i<2 ; i++)
    4596:	8f 85       	ldd	r24, Y+15	; 0x0f
    4598:	8f 5f       	subi	r24, 0xFF	; 255
    459a:	8f 87       	std	Y+15, r24	; 0x0f
    459c:	8f 85       	ldd	r24, Y+15	; 0x0f
    459e:	82 30       	cpi	r24, 0x02	; 2
    45a0:	08 f4       	brcc	.+2      	; 0x45a4 <Function_EntryNumber2+0x16c>
    45a2:	5a cf       	rjmp	.-332    	; 0x4458 <Function_EntryNumber2+0x20>
		{
			LCD_Commands(0X80);
			LCD_Write_String("Your Input Is Wrong");
		}
	}
}
    45a4:	63 96       	adiw	r28, 0x13	; 19
    45a6:	0f b6       	in	r0, 0x3f	; 63
    45a8:	f8 94       	cli
    45aa:	de bf       	out	0x3e, r29	; 62
    45ac:	0f be       	out	0x3f, r0	; 63
    45ae:	cd bf       	out	0x3d, r28	; 61
    45b0:	cf 91       	pop	r28
    45b2:	df 91       	pop	r29
    45b4:	08 95       	ret

000045b6 <__udivmodqi4>:
    45b6:	99 1b       	sub	r25, r25
    45b8:	79 e0       	ldi	r23, 0x09	; 9
    45ba:	04 c0       	rjmp	.+8      	; 0x45c4 <__udivmodqi4_ep>

000045bc <__udivmodqi4_loop>:
    45bc:	99 1f       	adc	r25, r25
    45be:	96 17       	cp	r25, r22
    45c0:	08 f0       	brcs	.+2      	; 0x45c4 <__udivmodqi4_ep>
    45c2:	96 1b       	sub	r25, r22

000045c4 <__udivmodqi4_ep>:
    45c4:	88 1f       	adc	r24, r24
    45c6:	7a 95       	dec	r23
    45c8:	c9 f7       	brne	.-14     	; 0x45bc <__udivmodqi4_loop>
    45ca:	80 95       	com	r24
    45cc:	08 95       	ret

000045ce <__udivmodsi4>:
    45ce:	a1 e2       	ldi	r26, 0x21	; 33
    45d0:	1a 2e       	mov	r1, r26
    45d2:	aa 1b       	sub	r26, r26
    45d4:	bb 1b       	sub	r27, r27
    45d6:	fd 01       	movw	r30, r26
    45d8:	0d c0       	rjmp	.+26     	; 0x45f4 <__udivmodsi4_ep>

000045da <__udivmodsi4_loop>:
    45da:	aa 1f       	adc	r26, r26
    45dc:	bb 1f       	adc	r27, r27
    45de:	ee 1f       	adc	r30, r30
    45e0:	ff 1f       	adc	r31, r31
    45e2:	a2 17       	cp	r26, r18
    45e4:	b3 07       	cpc	r27, r19
    45e6:	e4 07       	cpc	r30, r20
    45e8:	f5 07       	cpc	r31, r21
    45ea:	20 f0       	brcs	.+8      	; 0x45f4 <__udivmodsi4_ep>
    45ec:	a2 1b       	sub	r26, r18
    45ee:	b3 0b       	sbc	r27, r19
    45f0:	e4 0b       	sbc	r30, r20
    45f2:	f5 0b       	sbc	r31, r21

000045f4 <__udivmodsi4_ep>:
    45f4:	66 1f       	adc	r22, r22
    45f6:	77 1f       	adc	r23, r23
    45f8:	88 1f       	adc	r24, r24
    45fa:	99 1f       	adc	r25, r25
    45fc:	1a 94       	dec	r1
    45fe:	69 f7       	brne	.-38     	; 0x45da <__udivmodsi4_loop>
    4600:	60 95       	com	r22
    4602:	70 95       	com	r23
    4604:	80 95       	com	r24
    4606:	90 95       	com	r25
    4608:	9b 01       	movw	r18, r22
    460a:	ac 01       	movw	r20, r24
    460c:	bd 01       	movw	r22, r26
    460e:	cf 01       	movw	r24, r30
    4610:	08 95       	ret

00004612 <__prologue_saves__>:
    4612:	2f 92       	push	r2
    4614:	3f 92       	push	r3
    4616:	4f 92       	push	r4
    4618:	5f 92       	push	r5
    461a:	6f 92       	push	r6
    461c:	7f 92       	push	r7
    461e:	8f 92       	push	r8
    4620:	9f 92       	push	r9
    4622:	af 92       	push	r10
    4624:	bf 92       	push	r11
    4626:	cf 92       	push	r12
    4628:	df 92       	push	r13
    462a:	ef 92       	push	r14
    462c:	ff 92       	push	r15
    462e:	0f 93       	push	r16
    4630:	1f 93       	push	r17
    4632:	cf 93       	push	r28
    4634:	df 93       	push	r29
    4636:	cd b7       	in	r28, 0x3d	; 61
    4638:	de b7       	in	r29, 0x3e	; 62
    463a:	ca 1b       	sub	r28, r26
    463c:	db 0b       	sbc	r29, r27
    463e:	0f b6       	in	r0, 0x3f	; 63
    4640:	f8 94       	cli
    4642:	de bf       	out	0x3e, r29	; 62
    4644:	0f be       	out	0x3f, r0	; 63
    4646:	cd bf       	out	0x3d, r28	; 61
    4648:	09 94       	ijmp

0000464a <__epilogue_restores__>:
    464a:	2a 88       	ldd	r2, Y+18	; 0x12
    464c:	39 88       	ldd	r3, Y+17	; 0x11
    464e:	48 88       	ldd	r4, Y+16	; 0x10
    4650:	5f 84       	ldd	r5, Y+15	; 0x0f
    4652:	6e 84       	ldd	r6, Y+14	; 0x0e
    4654:	7d 84       	ldd	r7, Y+13	; 0x0d
    4656:	8c 84       	ldd	r8, Y+12	; 0x0c
    4658:	9b 84       	ldd	r9, Y+11	; 0x0b
    465a:	aa 84       	ldd	r10, Y+10	; 0x0a
    465c:	b9 84       	ldd	r11, Y+9	; 0x09
    465e:	c8 84       	ldd	r12, Y+8	; 0x08
    4660:	df 80       	ldd	r13, Y+7	; 0x07
    4662:	ee 80       	ldd	r14, Y+6	; 0x06
    4664:	fd 80       	ldd	r15, Y+5	; 0x05
    4666:	0c 81       	ldd	r16, Y+4	; 0x04
    4668:	1b 81       	ldd	r17, Y+3	; 0x03
    466a:	aa 81       	ldd	r26, Y+2	; 0x02
    466c:	b9 81       	ldd	r27, Y+1	; 0x01
    466e:	ce 0f       	add	r28, r30
    4670:	d1 1d       	adc	r29, r1
    4672:	0f b6       	in	r0, 0x3f	; 63
    4674:	f8 94       	cli
    4676:	de bf       	out	0x3e, r29	; 62
    4678:	0f be       	out	0x3f, r0	; 63
    467a:	cd bf       	out	0x3d, r28	; 61
    467c:	ed 01       	movw	r28, r26
    467e:	08 95       	ret

00004680 <_exit>:
    4680:	f8 94       	cli

00004682 <__stop_program>:
    4682:	ff cf       	rjmp	.-2      	; 0x4682 <__stop_program>
